
test_synthesizer.elf:     file format elf32-littlenios2
test_synthesizer.elf
architecture: nios2:r1, flags 0x00000112:
EXEC_P, HAS_SYMS, D_PAGED
start address 0x00020224

Program Header:
    LOAD off    0x00001000 vaddr 0x00020000 paddr 0x00020000 align 2**12
         filesz 0x00000020 memsz 0x00000020 flags r-x
    LOAD off    0x00001020 vaddr 0x00020020 paddr 0x00020020 align 2**12
         filesz 0x00005308 memsz 0x00005308 flags r-x
    LOAD off    0x00006328 vaddr 0x00025328 paddr 0x00026dac align 2**12
         filesz 0x00001a84 memsz 0x00001a84 flags rw-
    LOAD off    0x00008830 vaddr 0x00028830 paddr 0x00028830 align 2**12
         filesz 0x00000000 memsz 0x00000394 flags rw-

Sections:
Idx Name          Size      VMA       LMA       File off  Algn
  0 .entry        00000020  00020000  00020000  00001000  2**5
                  CONTENTS, ALLOC, LOAD, READONLY, CODE
  1 .exceptions   00000204  00020020  00020020  00001020  2**2
                  CONTENTS, ALLOC, LOAD, READONLY, CODE
  2 .text         00004dd4  00020224  00020224  00001224  2**2
                  CONTENTS, ALLOC, LOAD, READONLY, CODE
  3 .rodata       00000330  00024ff8  00024ff8  00005ff8  2**2
                  CONTENTS, ALLOC, LOAD, READONLY, DATA
  4 .rwdata       00001a84  00025328  00026dac  00006328  2**2
                  CONTENTS, ALLOC, LOAD, DATA, SMALL_DATA
  5 .bss          00000394  00028830  00028830  00008830  2**2
                  ALLOC, SMALL_DATA
  6 .onchip_memory2_0 00000000  00028bc4  00028bc4  00007dac  2**0
                  CONTENTS
  7 .comment      0000002c  00000000  00000000  00007dac  2**0
                  CONTENTS, READONLY
  8 .debug_aranges 000008b8  00000000  00000000  00007dd8  2**3
                  CONTENTS, READONLY, DEBUGGING
  9 .debug_info   0002728b  00000000  00000000  00008690  2**0
                  CONTENTS, READONLY, DEBUGGING
 10 .debug_abbrev 00008bfb  00000000  00000000  0002f91b  2**0
                  CONTENTS, READONLY, DEBUGGING
 11 .debug_line   0000985e  00000000  00000000  00038516  2**0
                  CONTENTS, READONLY, DEBUGGING
 12 .debug_frame  00001594  00000000  00000000  00041d74  2**2
                  CONTENTS, READONLY, DEBUGGING
 13 .debug_str    00004319  00000000  00000000  00043308  2**0
                  CONTENTS, READONLY, DEBUGGING
 14 .debug_loc    00003618  00000000  00000000  00047621  2**0
                  CONTENTS, READONLY, DEBUGGING
 15 .debug_alt_sim_info 00000040  00000000  00000000  0004ac3c  2**2
                  CONTENTS, READONLY, DEBUGGING
 16 .debug_ranges 00000488  00000000  00000000  0004ac80  2**3
                  CONTENTS, READONLY, DEBUGGING
 17 .thread_model 00000003  00000000  00000000  0004e03e  2**0
                  CONTENTS, READONLY
 18 .cpu          0000000c  00000000  00000000  0004e041  2**0
                  CONTENTS, READONLY
 19 .qsys         00000001  00000000  00000000  0004e04d  2**0
                  CONTENTS, READONLY
 20 .simulation_enabled 00000001  00000000  00000000  0004e04e  2**0
                  CONTENTS, READONLY
 21 .stderr_dev   0000000b  00000000  00000000  0004e04f  2**0
                  CONTENTS, READONLY
 22 .stdin_dev    0000000b  00000000  00000000  0004e05a  2**0
                  CONTENTS, READONLY
 23 .stdout_dev   0000000b  00000000  00000000  0004e065  2**0
                  CONTENTS, READONLY
 24 .sopc_system_name 00000008  00000000  00000000  0004e070  2**0
                  CONTENTS, READONLY
SYMBOL TABLE:
00020000 l    d  .entry	00000000 .entry
00020020 l    d  .exceptions	00000000 .exceptions
00020224 l    d  .text	00000000 .text
00024ff8 l    d  .rodata	00000000 .rodata
00025328 l    d  .rwdata	00000000 .rwdata
00028830 l    d  .bss	00000000 .bss
00028bc4 l    d  .onchip_memory2_0	00000000 .onchip_memory2_0
00000000 l    d  .comment	00000000 .comment
00000000 l    d  .debug_aranges	00000000 .debug_aranges
00000000 l    d  .debug_info	00000000 .debug_info
00000000 l    d  .debug_abbrev	00000000 .debug_abbrev
00000000 l    d  .debug_line	00000000 .debug_line
00000000 l    d  .debug_frame	00000000 .debug_frame
00000000 l    d  .debug_str	00000000 .debug_str
00000000 l    d  .debug_loc	00000000 .debug_loc
00000000 l    d  .debug_alt_sim_info	00000000 .debug_alt_sim_info
00000000 l    d  .debug_ranges	00000000 .debug_ranges
00000000 l    df *ABS*	00000000 ../../../LMX2694/software/lmx2694_bsp/obj/HAL/src/crt0.o
0002025c l       .text	00000000 alt_after_alt_main
00000000 l    df *ABS*	00000000 alt_irq_handler.c
00000000 l    df *ABS*	00000000 alt_instruction_exception_entry.c
00000000 l    df *ABS*	00000000 main.cpp
00024ff8 l     O .rodata	000000e6 _ZL17default_registers
0002885c l     O .bss	00000024 _ZL3pll
000202dc l     F .text	00000074 _Z41__static_initialization_and_destruction_0ii
00020350 l     F .text	00000030 _GLOBAL__sub_I_main
00020380 l     F .text	00000030 _GLOBAL__sub_D_main
00000000 l    df *ABS*	00000000 lmx2694Handler.cpp
000250de l     O .rodata	000000e6 _ZL17default_registers
00028880 l     O .bss	00000050 _ZL9staticSPI
000288d0 l     O .bss	000000e6 _ZL20local_read_registers
000289b6 l     O .bss	000000e6 _ZL21local_write_registers
00020be0 l     F .text	00000074 _Z41__static_initialization_and_destruction_0ii
00020c54 l     F .text	00000030 _GLOBAL__sub_I__ZN15lmx2694_HandlerC2Ev
00020c84 l     F .text	00000030 _GLOBAL__sub_D__ZN15lmx2694_HandlerC2Ev
00000000 l    df *ABS*	00000000 SPIHandler.cpp
00000000 l    df *ABS*	00000000 class_type_info.cc
00000000 l    df *ABS*	00000000 del_ops.cc
00000000 l    df *ABS*	00000000 si_class_type_info.cc
00000000 l    df *ABS*	00000000 tinfo.cc
00000000 l    df *ABS*	00000000 del_op.cc
00000000 l    df *ABS*	00000000 malloc.c
00000000 l    df *ABS*	00000000 mallocr.c
00000000 l    df *ABS*	00000000 memset.c
00000000 l    df *ABS*	00000000 sbrkr.c
00000000 l    df *ABS*	00000000 strcmp.c
00000000 l    df *ABS*	00000000 mallocr.c
00000000 l    df *ABS*	00000000 impure.c
00025730 l     O .rwdata	00000424 impure_data
00000000 l    df *ABS*	00000000 int_errno.c
00000000 l    df *ABS*	00000000 alt_load.c
000227ac l     F .text	00000068 alt_load_section
00000000 l    df *ABS*	00000000 alt_main.c
00000000 l    df *ABS*	00000000 alt_malloc_lock.c
00000000 l    df *ABS*	00000000 alt_sbrk.c
00026d84 l     O .rwdata	00000004 heap_end
00000000 l    df *ABS*	00000000 alt_usleep.c
00000000 l    df *ABS*	00000000 alt_sys_init.c
00022a44 l     F .text	00000034 alt_dev_reg
00025b54 l     O .rwdata	00001060 jtag_uart_0
00000000 l    df *ABS*	00000000 altera_avalon_jtag_uart_fd.c
00000000 l    df *ABS*	00000000 altera_avalon_jtag_uart_init.c
00022d3c l     F .text	0000020c altera_avalon_jtag_uart_irq
00022f48 l     F .text	000000a0 altera_avalon_jtag_uart_timeout
00000000 l    df *ABS*	00000000 altera_avalon_jtag_uart_ioctl.c
00000000 l    df *ABS*	00000000 altera_avalon_jtag_uart_read.c
00000000 l    df *ABS*	00000000 altera_avalon_jtag_uart_write.c
00000000 l    df *ABS*	00000000 altera_avalon_spi.c
00000000 l    df *ABS*	00000000 altera_avalon_timer_sc.c
00023788 l     F .text	0000007c alt_avalon_timer_sc_irq
00000000 l    df *ABS*	00000000 alt_alarm_start.c
00000000 l    df *ABS*	00000000 alt_busy_sleep.c
00000000 l    df *ABS*	00000000 alt_close.c
00023b14 l     F .text	0000003c alt_get_errno
00000000 l    df *ABS*	00000000 alt_dcache_flush_all.c
00000000 l    df *ABS*	00000000 alt_dev.c
00023c4c l     F .text	0000002c alt_dev_null_write
00000000 l    df *ABS*	00000000 alt_dev_llist_insert.c
00023c78 l     F .text	0000003c alt_get_errno
00000000 l    df *ABS*	00000000 alt_do_ctors.c
00000000 l    df *ABS*	00000000 alt_do_dtors.c
00000000 l    df *ABS*	00000000 alt_errno.c
00000000 l    df *ABS*	00000000 alt_icache_flush_all.c
00000000 l    df *ABS*	00000000 alt_iic.c
00000000 l    df *ABS*	00000000 alt_iic_isr_register.c
00000000 l    df *ABS*	00000000 alt_io_redirect.c
000240dc l     F .text	000000d4 alt_open_fd
00000000 l    df *ABS*	00000000 alt_irq_vars.c
00000000 l    df *ABS*	00000000 alt_open.c
0002422c l     F .text	0000003c alt_get_errno
00024268 l     F .text	000000dc alt_file_locked
00000000 l    df *ABS*	00000000 alt_release_fd.c
00000000 l    df *ABS*	00000000 alt_tick.c
00000000 l    df *ABS*	00000000 altera_nios2_gen2_irq.c
00000000 l    df *ABS*	00000000 alt_find_dev.c
00000000 l    df *ABS*	00000000 alt_find_file.c
00000000 l    df *ABS*	00000000 alt_get_fd.c
00000000 l    df *ABS*	00000000 atexit.c
00000000 l    df *ABS*	00000000 exit.c
00000000 l    df *ABS*	00000000 memcmp.c
00000000 l    df *ABS*	00000000 memcpy.c
00000000 l    df *ABS*	00000000 strlen.c
00000000 l    df *ABS*	00000000 __atexit.c
00000000 l    df *ABS*	00000000 __call_atexit.c
00000000 l    df *ABS*	00000000 lib2-divmod.c
00000000 l    df *ABS*	00000000 lib2-mul.c
00000000 l    df *ABS*	00000000 alt_exit.c
00028858 g     O .bss	00000004 alt_instruction_exception_handler
00021934 g     F .text	00000008 _ZNKSt9type_info15__is_function_pEv
000203b0 g     F .text	00000054 _ZN15lmx2694_HandlerC2Ev
00022898 g     F .text	0000007c alt_main
00028ac4 g     O .bss	00000100 alt_irq
00026dac g       *ABS*	00000000 __flash_rwdata_start
00021114 g     F .text	00000084 _ZN11SPI_Handler12TransferDataEPhmS0_m
00028bc4 g       *ABS*	00000000 __alt_heap_start
00020d70 g     F .text	00000044 _ZN11SPI_Handler4InitEmm
00021668 g     F .text	00000010 _ZN10__cxxabiv120__si_class_type_infoD2Ev
00025264  w    O .rodata	00000025 _ZTSN10__cxxabiv120__si_class_type_infoE
00022938 g     F .text	00000024 __malloc_unlock
00020438 g     F .text	0000003c _ZN15lmx2694_HandlerD0Ev
00020404 g     F .text	00000034 _ZN15lmx2694_HandlerD2Ev
00020d34 g     F .text	0000003c _ZN11SPI_HandlerD0Ev
00020db4 g     F .text	0000003c _ZN11SPI_Handler4OpenEv
00026d64  w    O .rwdata	00000008 _ZTI11SPI_Handler
000246c0 g     F .text	00000024 altera_nios2_gen2_irq_init
00020000 g     F .entry	0000000c __reset
00020020 g       *ABS*	00000000 __flash_exceptions_start
0002883c g     O .bss	00000004 errno
000206d0 g     F .text	00000110 _ZN15lmx2694_Handler13Program_ResetEv
00028844 g     O .bss	00000004 alt_argv
0002ed5c g       *ABS*	00000000 _gp
00022a14 g     F .text	00000030 usleep
00020d00 g     F .text	00000034 _ZN11SPI_HandlerD2Ev
00026bdc g     O .rwdata	00000180 alt_fd_list
00026d5c  w    O .rwdata	00000008 _ZTI15lmx2694_Handler
000246e4 g     F .text	00000090 alt_find_dev
00024a8c g     F .text	00000100 memcpy
0002142c g     F .text	00000018 _ZNK10__cxxabiv117__class_type_info20__do_find_public_srcEiPKvPKS0_S2_
000241b0 g     F .text	0000007c alt_io_redirect
00024ff8 g       *ABS*	00000000 __DTOR_END__
00021444 g     F .text	00000010 _ZN10__cxxabiv117__class_type_infoD1Ev
00024934 g     F .text	00000098 alt_exception_cause_generated_bad_addr
000251c4  w    O .rodata	00000010 _ZTV15lmx2694_Handler
00023144 g     F .text	00000220 altera_avalon_jtag_uart_read
00021994 g     F .text	00000010 malloc
00020000 g       *ABS*	00000000 __alt_mem_onchip_memory2_0
00024ec8 g     F .text	00000064 .hidden __udivsi3
00028838 g     O .bss	00000004 __malloc_top_pad
000215bc g     F .text	000000a8 _ZNK10__cxxabiv117__class_type_info10__do_catchEPKSt9type_infoPPvj
00022284 g     F .text	00000058 _sbrk_r
000252d4  w    O .rodata	00000020 _ZTVSt9type_info
00026d98 g     O .rwdata	00000004 alt_max_fd
00020960 g     F .text	000000b0 _ZN15lmx2694_Handler21Write_Single_RegisterEht
00028834 g     O .bss	00000004 __malloc_max_sbrked_mem
00025298  w    O .rodata	0000002c _ZTVN10__cxxabiv120__si_class_type_infoE
0002051c g     F .text	000000a8 _ZN15lmx2694_Handler10Power_DownEv
00021550 g     F .text	0000006c _ZNK10__cxxabiv117__class_type_info11__do_upcastEPKS0_PKvRNS0_15__upcast_resultE
00021990 g     F .text	00000004 _ZdlPv
00026d7c g     O .rwdata	00000004 _global_impure_ptr
00028bc4 g       *ABS*	00000000 __bss_end
00023ff4 g     F .text	000000e8 alt_iic_isr_register
000245b8 g     F .text	00000108 alt_tick
00020bbc g     F .text	00000024 _ZN15lmx2694_Handler9Self_TestEv
00023fa8 g     F .text	0000004c alt_ic_irq_enabled
00024514 g     F .text	000000a4 alt_alarm_stop
0002884c g     O .bss	00000004 alt_irq_active
000200fc g     F .exceptions	000000c8 alt_irq_handler
00026bb4 g     O .rwdata	00000028 alt_dev_null
00025208  w    O .rodata	00000022 _ZTSN10__cxxabiv117__class_type_infoE
00023c2c g     F .text	00000020 alt_dcache_flush_all
00026dac g       *ABS*	00000000 __ram_rwdata_end
00021930 g     F .text	00000004 _ZNSt9type_infoD1Ev
00026d90 g     O .rwdata	00000008 alt_dev_list
00021944 g     F .text	00000008 _ZNSt9type_infoD0Ev
00025328 g       *ABS*	00000000 __ram_rodata_end
00021664 g     F .text	00000004 _ZdlPvj
00024f2c g     F .text	0000005c .hidden __umodsi3
0002193c g     F .text	00000008 _ZNKSt9type_info11__do_upcastEPKN10__cxxabiv117__class_type_infoEPPv
00028bc4 g       *ABS*	00000000 end
00022c7c g     F .text	000000c0 altera_avalon_jtag_uart_init
000201c4 g     F .exceptions	00000060 alt_instruction_exception_entry
0002148c g     F .text	000000c4 _ZNK10__cxxabiv117__class_type_info12__do_dyncastEiNS0_10__sub_kindEPKS0_PKvS3_S5_RNS0_16__dyncast_resultE
00024fe8 g       *ABS*	00000000 __CTOR_LIST__
00040000 g       *ABS*	00000000 __alt_stack_pointer
00023804 g     F .text	00000084 alt_avalon_timer_sc_init
000213b4 g     F .text	00000078 _ZNK10__cxxabiv117__class_type_info11__do_upcastEPKS0_PPv
00023364 g     F .text	00000228 altera_avalon_jtag_uart_write
000224b0 g     F .text	000002fc _free_r
00020df0 g     F .text	00000038 _ZN11SPI_Handler5CloseEv
00024cb4 g     F .text	00000120 __call_exitprocs
00026d74 g     O .rwdata	00000004 __malloc_sbrk_base
00020224 g     F .text	0000003c _start
00028850 g     O .bss	00000004 _alt_tick_rate
000251d4  w    O .rodata	00000012 _ZTS15lmx2694_Handler
000252c4  w    O .rodata	0000000d _ZTSSt9type_info
00020e8c g     F .text	00000188 _ZN11SPI_Handler9WriteDataEPhm
0002358c g     F .text	000001fc alt_avalon_spi_command
00028854 g     O .bss	00000004 _alt_nticks
00022ab4 g     F .text	00000064 alt_sys_init
000208dc g     F .text	00000084 _ZN15lmx2694_Handler18Initiate_RegistersEv
00024c24 g     F .text	00000090 __register_exitproc
0002174c g     F .text	00000160 _ZNK10__cxxabiv120__si_class_type_info12__do_dyncastEiNS_17__class_type_info10__sub_kindEPKS1_PKvS4_S6_RNS1_16__dyncast_resultE
00021090 g     F .text	00000084 _ZN11SPI_Handler12TransferDataEPhS0_m
00022fe8 g     F .text	00000068 altera_avalon_jtag_uart_close
00024f88 g     F .text	00000028 .hidden __mulsi3
00025328 g       *ABS*	00000000 __ram_rwdata_start
00024ff8 g       *ABS*	00000000 __ram_rodata_start
00028a9c g     O .bss	00000028 __malloc_current_mallinfo
00021930 g     F .text	00000004 _ZNSt9type_infoD2Ev
000218ac g     F .text	00000084 _ZNK10__cxxabiv120__si_class_type_info11__do_upcastEPKNS_17__class_type_infoEPKvRNS1_15__upcast_resultE
00022b18 g     F .text	00000060 altera_avalon_jtag_uart_read_fd
0002487c g     F .text	000000b8 alt_get_fd
000239bc g     F .text	00000158 alt_busy_sleep
000205c4 g     F .text	000000b0 _ZN15lmx2694_Handler13Write_FCAL_ENEb
00024a14 g     F .text	00000078 memcmp
00022bd8 g     F .text	00000050 altera_avalon_jtag_uart_close_fd
00028bc4 g       *ABS*	00000000 __alt_stack_base
00022c28 g     F .text	00000054 altera_avalon_jtag_uart_ioctl_fd
00021668 g     F .text	00000010 _ZN10__cxxabiv120__si_class_type_infoD1Ev
00021934 g     F .text	00000008 _ZNKSt9type_info14__is_pointer_pEv
00025328 g     O .rwdata	00000408 __malloc_av_
00024774 g     F .text	00000108 alt_find_file
00023cb4 g     F .text	000000a8 alt_dev_llist_insert
00022914 g     F .text	00000024 __malloc_lock
0002295c g     F .text	000000b8 sbrk
000207e0 g     F .text	00000070 _ZN15lmx2694_Handler15Get_Three_BytesEm
00025238  w    O .rodata	0000002c _ZTVN10__cxxabiv117__class_type_infoE
00028830 g       *ABS*	00000000 __bss_start
00022194 g     F .text	000000f0 memset
00020260 g     F .text	0000007c main
00028848 g     O .bss	00000004 alt_envp
00028830 g     O .bss	00000004 __malloc_max_total_mem
00022b78 g     F .text	00000060 altera_avalon_jtag_uart_write_fd
00040000 g       *ABS*	00000000 __alt_heap_limit
000219b4 g     F .text	000007e0 _malloc_r
00026d9c g     O .rwdata	00000004 alt_errno
000251f8  w    O .rodata	0000000e _ZTS11SPI_Handler
0002522c  w    O .rodata	0000000c _ZTIN10__cxxabiv117__class_type_infoE
00024dd4 g     F .text	00000080 .hidden __divsi3
00022394 g     F .text	0000011c _malloc_trim_r
00024ff0 g       *ABS*	00000000 __CTOR_END__
00020404 g     F .text	00000034 _ZN15lmx2694_HandlerD1Ev
000222dc g     F .text	000000b8 strcmp
00024ff8 g       *ABS*	00000000 __flash_rodata_start
00024ff0 g       *ABS*	00000000 __DTOR_LIST__
000203b0 g     F .text	00000054 _ZN15lmx2694_HandlerC1Ev
00020cb4 g     F .text	0000004c _ZN11SPI_HandlerC2Ev
00022a78 g     F .text	0000003c alt_irq_init
000244a4 g     F .text	00000070 alt_release_fd
00021678 g     F .text	00000038 _ZN10__cxxabiv120__si_class_type_infoD0Ev
000249cc g     F .text	00000014 atexit
00026d80 g     O .rwdata	00000004 _impure_ptr
00028840 g     O .bss	00000004 alt_argc
00023dc0 g     F .text	00000064 _do_dtors
00020020 g       .exceptions	00000000 alt_irq_entry
00020850 g     F .text	0000008c _ZN15lmx2694_Handler16Make_Three_BytesEht
00021014 g     F .text	0000007c _ZN11SPI_Handler12TransferDataEPhm
00026d88 g     O .rwdata	00000008 alt_fs_list
00021444 g     F .text	00000010 _ZN10__cxxabiv117__class_type_infoD2Ev
000251e8  w    O .rodata	00000010 _ZTV11SPI_Handler
00020020 g       *ABS*	00000000 __ram_exceptions_start
00020474 g     F .text	000000a8 _ZN15lmx2694_Handler4InitEv
00023e44 g     F .text	00000050 alt_ic_isr_register
0002528c  w    O .rodata	0000000c _ZTIN10__cxxabiv120__si_class_type_infoE
00026dac g       *ABS*	00000000 _edata
00028bc4 g       *ABS*	00000000 _end
00020d00 g     F .text	00000034 _ZN11SPI_HandlerD1Ev
00020224 g       *ABS*	00000000 __ram_exceptions_end
00023050 g     F .text	000000f4 altera_avalon_jtag_uart_ioctl
00020e28 g     F .text	00000064 _ZN11SPI_Handler5SetCSEb
00023f1c g     F .text	0000008c alt_ic_irq_disable
00026d78 g     O .rwdata	00000004 __malloc_trim_threshold
000249e0 g     F .text	00000034 exit
000216b0 g     F .text	0000009c _ZNK10__cxxabiv120__si_class_type_info20__do_find_public_srcEiPKvPKNS_17__class_type_infoES2_
00024e54 g     F .text	00000074 .hidden __modsi3
00040000 g       *ABS*	00000000 __alt_data_end
00020020 g     F .exceptions	00000000 alt_exception
00020a10 g     F .text	000001ac _ZN15lmx2694_Handler20Read_Single_RegisterEh
00020674 g     F .text	0000005c _ZN15lmx2694_Handler14Toggle_FCAL_ENEv
00024fb0 g     F .text	00000038 _exit
00023888 g     F .text	00000134 alt_alarm_start
00024b8c g     F .text	00000098 strlen
00026d6c  w    O .rwdata	00000008 _ZTISt9type_info
00024344 g     F .text	00000160 open
00023e24 g     F .text	00000020 alt_icache_flush_all
00021198 g     F .text	00000084 _ZN11SPI_Handler8ReadDataEPhS0_m
00026da0 g     O .rwdata	00000004 alt_priority_mask
00023e94 g     F .text	00000088 alt_ic_irq_enable
0002121c g     F .text	00000198 _ZN11SPI_Handler8ReadDataEPhm
00020cb4 g     F .text	0000004c _ZN11SPI_HandlerC1Ev
00026da4 g     O .rwdata	00000008 alt_alarm_list
00023d5c g     F .text	00000064 _do_ctors
00023b50 g     F .text	000000dc close
00022814 g     F .text	00000084 alt_load
0002194c g     F .text	00000044 _ZNKSt9type_info10__do_catchEPKS_PPvj
000219a4 g     F .text	00000010 free
00021454 g     F .text	00000038 _ZN10__cxxabiv117__class_type_infoD0Ev



Disassembly of section .entry:

00020000 <__reset>:
   20000:	004000b4 	movhi	at,2
   20004:	08408914 	ori	at,at,548
   20008:	0800683a 	jmp	at
	...

Disassembly of section .exceptions:

00020020 <alt_exception>:
   20020:	deffed04 	addi	sp,sp,-76
   20024:	dfc00015 	stw	ra,0(sp)
   20028:	d8400215 	stw	at,8(sp)
   2002c:	d8800315 	stw	r2,12(sp)
   20030:	d8c00415 	stw	r3,16(sp)
   20034:	d9000515 	stw	r4,20(sp)
   20038:	d9400615 	stw	r5,24(sp)
   2003c:	d9800715 	stw	r6,28(sp)
   20040:	d9c00815 	stw	r7,32(sp)
   20044:	000b307a 	rdctl	r5,estatus
   20048:	da000915 	stw	r8,36(sp)
   2004c:	da400a15 	stw	r9,40(sp)
   20050:	da800b15 	stw	r10,44(sp)
   20054:	dac00c15 	stw	r11,48(sp)
   20058:	db000d15 	stw	r12,52(sp)
   2005c:	db400e15 	stw	r13,56(sp)
   20060:	db800f15 	stw	r14,60(sp)
   20064:	dbc01015 	stw	r15,64(sp)
   20068:	d9401115 	stw	r5,68(sp)
   2006c:	ebffff04 	addi	r15,ea,-4
   20070:	dbc01215 	stw	r15,72(sp)
   20074:	0009313a 	rdctl	r4,ipending
   20078:	2880004c 	andi	r2,r5,1
   2007c:	10000326 	beq	r2,zero,2008c <alt_exception+0x6c>
   20080:	20000226 	beq	r4,zero,2008c <alt_exception+0x6c>
   20084:	00200fc0 	call	200fc <alt_irq_handler>
   20088:	00000706 	br	200a8 <alt_exception+0x88>
   2008c:	df401215 	stw	ea,72(sp)
   20090:	e8bfff17 	ldw	r2,-4(ea)
   20094:	e93fff04 	addi	r4,ea,-4
   20098:	00201c40 	call	201c4 <alt_instruction_exception_entry>
   2009c:	1000021e 	bne	r2,zero,200a8 <alt_exception+0x88>
   200a0:	ebffff04 	addi	r15,ea,-4
   200a4:	dbc01215 	stw	r15,72(sp)
   200a8:	d9401117 	ldw	r5,68(sp)
   200ac:	df401217 	ldw	ea,72(sp)
   200b0:	dfc00017 	ldw	ra,0(sp)
   200b4:	2801707a 	wrctl	estatus,r5
   200b8:	d8400217 	ldw	at,8(sp)
   200bc:	d8800317 	ldw	r2,12(sp)
   200c0:	d8c00417 	ldw	r3,16(sp)
   200c4:	d9000517 	ldw	r4,20(sp)
   200c8:	d9400617 	ldw	r5,24(sp)
   200cc:	d9800717 	ldw	r6,28(sp)
   200d0:	d9c00817 	ldw	r7,32(sp)
   200d4:	da000917 	ldw	r8,36(sp)
   200d8:	da400a17 	ldw	r9,40(sp)
   200dc:	da800b17 	ldw	r10,44(sp)
   200e0:	dac00c17 	ldw	r11,48(sp)
   200e4:	db000d17 	ldw	r12,52(sp)
   200e8:	db400e17 	ldw	r13,56(sp)
   200ec:	db800f17 	ldw	r14,60(sp)
   200f0:	dbc01017 	ldw	r15,64(sp)
   200f4:	dec01304 	addi	sp,sp,76
   200f8:	ef80083a 	eret

000200fc <alt_irq_handler>:
   200fc:	defff904 	addi	sp,sp,-28
   20100:	dfc00615 	stw	ra,24(sp)
   20104:	df000515 	stw	fp,20(sp)
   20108:	df000504 	addi	fp,sp,20
   2010c:	0001883a 	nop
   20110:	0005313a 	rdctl	r2,ipending
   20114:	e0bffc15 	stw	r2,-16(fp)
   20118:	e0bffc17 	ldw	r2,-16(fp)
   2011c:	e0bfff15 	stw	r2,-4(fp)
   20120:	e03ffd15 	stw	zero,-12(fp)
   20124:	00800044 	movi	r2,1
   20128:	e0bffe15 	stw	r2,-8(fp)
   2012c:	e0ffff17 	ldw	r3,-4(fp)
   20130:	e0bffe17 	ldw	r2,-8(fp)
   20134:	1884703a 	and	r2,r3,r2
   20138:	10001126 	beq	r2,zero,20180 <alt_irq_handler+0x84>
   2013c:	e0bffd17 	ldw	r2,-12(fp)
   20140:	100690fa 	slli	r3,r2,3
   20144:	008000f4 	movhi	r2,3
   20148:	1885883a 	add	r2,r3,r2
   2014c:	10e2b117 	ldw	r3,-30012(r2)
   20150:	e0bffd17 	ldw	r2,-12(fp)
   20154:	100890fa 	slli	r4,r2,3
   20158:	008000f4 	movhi	r2,3
   2015c:	2085883a 	add	r2,r4,r2
   20160:	10a2b217 	ldw	r2,-30008(r2)
   20164:	1009883a 	mov	r4,r2
   20168:	183ee83a 	callr	r3
   2016c:	0001883a 	nop
   20170:	0005313a 	rdctl	r2,ipending
   20174:	e0bffb15 	stw	r2,-20(fp)
   20178:	e0bffb17 	ldw	r2,-20(fp)
   2017c:	00000706 	br	2019c <alt_irq_handler+0xa0>
   20180:	e0bffe17 	ldw	r2,-8(fp)
   20184:	1085883a 	add	r2,r2,r2
   20188:	e0bffe15 	stw	r2,-8(fp)
   2018c:	e0bffd17 	ldw	r2,-12(fp)
   20190:	10800044 	addi	r2,r2,1
   20194:	e0bffd15 	stw	r2,-12(fp)
   20198:	003fe406 	br	2012c <alt_irq_handler+0x30>
   2019c:	e0bfff15 	stw	r2,-4(fp)
   201a0:	e0bfff17 	ldw	r2,-4(fp)
   201a4:	103fde1e 	bne	r2,zero,20120 <alt_irq_handler+0x24>
   201a8:	0001883a 	nop
   201ac:	0001883a 	nop
   201b0:	e037883a 	mov	sp,fp
   201b4:	dfc00117 	ldw	ra,4(sp)
   201b8:	df000017 	ldw	fp,0(sp)
   201bc:	dec00204 	addi	sp,sp,8
   201c0:	f800283a 	ret

000201c4 <alt_instruction_exception_entry>:
   201c4:	defffb04 	addi	sp,sp,-20
   201c8:	dfc00415 	stw	ra,16(sp)
   201cc:	df000315 	stw	fp,12(sp)
   201d0:	df000304 	addi	fp,sp,12
   201d4:	e13ffd15 	stw	r4,-12(fp)
   201d8:	00bfffc4 	movi	r2,-1
   201dc:	e0bfff15 	stw	r2,-4(fp)
   201e0:	e03ffe15 	stw	zero,-8(fp)
   201e4:	d0a6bf17 	ldw	r2,-25860(gp)
   201e8:	10000726 	beq	r2,zero,20208 <alt_instruction_exception_entry+0x44>
   201ec:	d0a6bf17 	ldw	r2,-25860(gp)
   201f0:	e0ffff17 	ldw	r3,-4(fp)
   201f4:	e1bffe17 	ldw	r6,-8(fp)
   201f8:	e17ffd17 	ldw	r5,-12(fp)
   201fc:	1809883a 	mov	r4,r3
   20200:	103ee83a 	callr	r2
   20204:	00000206 	br	20210 <alt_instruction_exception_entry+0x4c>
   20208:	003da03a 	break	0
   2020c:	0005883a 	mov	r2,zero
   20210:	e037883a 	mov	sp,fp
   20214:	dfc00117 	ldw	ra,4(sp)
   20218:	df000017 	ldw	fp,0(sp)
   2021c:	dec00204 	addi	sp,sp,8
   20220:	f800283a 	ret

Disassembly of section .text:

00020224 <_start>:
   20224:	06c00134 	movhi	sp,4
   20228:	dec00014 	ori	sp,sp,0
   2022c:	068000b4 	movhi	gp,2
   20230:	d6bb5714 	ori	gp,gp,60764
   20234:	008000b4 	movhi	r2,2
   20238:	10a20c14 	ori	r2,r2,34864
   2023c:	00c000b4 	movhi	r3,2
   20240:	18e2f114 	ori	r3,r3,35780
   20244:	10c00326 	beq	r2,r3,20254 <_start+0x30>
   20248:	10000015 	stw	zero,0(r2)
   2024c:	10800104 	addi	r2,r2,4
   20250:	10fffd36 	bltu	r2,r3,20248 <_start+0x24>
   20254:	00228140 	call	22814 <alt_load>
   20258:	00228980 	call	22898 <alt_main>

0002025c <alt_after_alt_main>:
   2025c:	003fff06 	br	2025c <alt_after_alt_main>

00020260 <main>:
   20260:	defffc04 	addi	sp,sp,-16
   20264:	dfc00315 	stw	ra,12(sp)
   20268:	df000215 	stw	fp,8(sp)
   2026c:	df000204 	addi	fp,sp,8
   20270:	010000f4 	movhi	r4,3
   20274:	21221704 	addi	r4,r4,-30628
   20278:	00204740 	call	20474 <_ZN15lmx2694_Handler4InitEv>
   2027c:	e03fff15 	stw	zero,-4(fp)
   20280:	e03ffe15 	stw	zero,-8(fp)
   20284:	010000f4 	movhi	r4,3
   20288:	21221704 	addi	r4,r4,-30628
   2028c:	0020bbc0 	call	20bbc <_ZN15lmx2694_Handler9Self_TestEv>
   20290:	10803fcc 	andi	r2,r2,255
   20294:	103ffb1e 	bne	r2,zero,20284 <main+0x24>
   20298:	e0bfff17 	ldw	r2,-4(fp)
   2029c:	00ffff94 	movui	r3,65534
   202a0:	18800c16 	blt	r3,r2,202d4 <main+0x74>
   202a4:	e0bfff17 	ldw	r2,-4(fp)
   202a8:	10800044 	addi	r2,r2,1
   202ac:	e0bfff15 	stw	r2,-4(fp)
   202b0:	e0bffe17 	ldw	r2,-8(fp)
   202b4:	108003c8 	cmpgei	r2,r2,15
   202b8:	1000041e 	bne	r2,zero,202cc <main+0x6c>
   202bc:	e0bffe17 	ldw	r2,-8(fp)
   202c0:	10800044 	addi	r2,r2,1
   202c4:	e0bffe15 	stw	r2,-8(fp)
   202c8:	003ff906 	br	202b0 <main+0x50>
   202cc:	e03ffe15 	stw	zero,-8(fp)
   202d0:	003ff106 	br	20298 <main+0x38>
   202d4:	e03fff15 	stw	zero,-4(fp)
   202d8:	003fea06 	br	20284 <main+0x24>

000202dc <_Z41__static_initialization_and_destruction_0ii>:
   202dc:	defffc04 	addi	sp,sp,-16
   202e0:	dfc00315 	stw	ra,12(sp)
   202e4:	df000215 	stw	fp,8(sp)
   202e8:	df000204 	addi	fp,sp,8
   202ec:	e13fff15 	stw	r4,-4(fp)
   202f0:	e17ffe15 	stw	r5,-8(fp)
   202f4:	e0bfff17 	ldw	r2,-4(fp)
   202f8:	10800058 	cmpnei	r2,r2,1
   202fc:	1000061e 	bne	r2,zero,20318 <_Z41__static_initialization_and_destruction_0ii+0x3c>
   20300:	e0fffe17 	ldw	r3,-8(fp)
   20304:	00bfffd4 	movui	r2,65535
   20308:	1880031e 	bne	r3,r2,20318 <_Z41__static_initialization_and_destruction_0ii+0x3c>
   2030c:	010000f4 	movhi	r4,3
   20310:	21221704 	addi	r4,r4,-30628
   20314:	00203b00 	call	203b0 <_ZN15lmx2694_HandlerC1Ev>
   20318:	e0bfff17 	ldw	r2,-4(fp)
   2031c:	1000061e 	bne	r2,zero,20338 <_Z41__static_initialization_and_destruction_0ii+0x5c>
   20320:	e0fffe17 	ldw	r3,-8(fp)
   20324:	00bfffd4 	movui	r2,65535
   20328:	1880031e 	bne	r3,r2,20338 <_Z41__static_initialization_and_destruction_0ii+0x5c>
   2032c:	010000f4 	movhi	r4,3
   20330:	21221704 	addi	r4,r4,-30628
   20334:	00204040 	call	20404 <_ZN15lmx2694_HandlerD1Ev>
   20338:	0001883a 	nop
   2033c:	e037883a 	mov	sp,fp
   20340:	dfc00117 	ldw	ra,4(sp)
   20344:	df000017 	ldw	fp,0(sp)
   20348:	dec00204 	addi	sp,sp,8
   2034c:	f800283a 	ret

00020350 <_GLOBAL__sub_I_main>:
   20350:	defffe04 	addi	sp,sp,-8
   20354:	dfc00115 	stw	ra,4(sp)
   20358:	df000015 	stw	fp,0(sp)
   2035c:	d839883a 	mov	fp,sp
   20360:	017fffd4 	movui	r5,65535
   20364:	01000044 	movi	r4,1
   20368:	00202dc0 	call	202dc <_Z41__static_initialization_and_destruction_0ii>
   2036c:	e037883a 	mov	sp,fp
   20370:	dfc00117 	ldw	ra,4(sp)
   20374:	df000017 	ldw	fp,0(sp)
   20378:	dec00204 	addi	sp,sp,8
   2037c:	f800283a 	ret

00020380 <_GLOBAL__sub_D_main>:
   20380:	defffe04 	addi	sp,sp,-8
   20384:	dfc00115 	stw	ra,4(sp)
   20388:	df000015 	stw	fp,0(sp)
   2038c:	d839883a 	mov	fp,sp
   20390:	017fffd4 	movui	r5,65535
   20394:	0009883a 	mov	r4,zero
   20398:	00202dc0 	call	202dc <_Z41__static_initialization_and_destruction_0ii>
   2039c:	e037883a 	mov	sp,fp
   203a0:	dfc00117 	ldw	ra,4(sp)
   203a4:	df000017 	ldw	fp,0(sp)
   203a8:	dec00204 	addi	sp,sp,8
   203ac:	f800283a 	ret

000203b0 <_ZN15lmx2694_HandlerC1Ev>:
   203b0:	defffe04 	addi	sp,sp,-8
   203b4:	df000115 	stw	fp,4(sp)
   203b8:	df000104 	addi	fp,sp,4
   203bc:	e13fff15 	stw	r4,-4(fp)
   203c0:	008000b4 	movhi	r2,2
   203c4:	10947304 	addi	r2,r2,20940
   203c8:	e0ffff17 	ldw	r3,-4(fp)
   203cc:	18800015 	stw	r2,0(r3)
   203d0:	e0ffff17 	ldw	r3,-4(fp)
   203d4:	008000f4 	movhi	r2,3
   203d8:	10a23404 	addi	r2,r2,-30512
   203dc:	18800315 	stw	r2,12(r3)
   203e0:	e0ffff17 	ldw	r3,-4(fp)
   203e4:	008000f4 	movhi	r2,3
   203e8:	10a26d84 	addi	r2,r2,-30282
   203ec:	18800215 	stw	r2,8(r3)
   203f0:	0001883a 	nop
   203f4:	e037883a 	mov	sp,fp
   203f8:	df000017 	ldw	fp,0(sp)
   203fc:	dec00104 	addi	sp,sp,4
   20400:	f800283a 	ret

00020404 <_ZN15lmx2694_HandlerD1Ev>:
   20404:	defffe04 	addi	sp,sp,-8
   20408:	df000115 	stw	fp,4(sp)
   2040c:	df000104 	addi	fp,sp,4
   20410:	e13fff15 	stw	r4,-4(fp)
   20414:	008000b4 	movhi	r2,2
   20418:	10947304 	addi	r2,r2,20940
   2041c:	e0ffff17 	ldw	r3,-4(fp)
   20420:	18800015 	stw	r2,0(r3)
   20424:	0001883a 	nop
   20428:	e037883a 	mov	sp,fp
   2042c:	df000017 	ldw	fp,0(sp)
   20430:	dec00104 	addi	sp,sp,4
   20434:	f800283a 	ret

00020438 <_ZN15lmx2694_HandlerD0Ev>:
   20438:	defffd04 	addi	sp,sp,-12
   2043c:	dfc00215 	stw	ra,8(sp)
   20440:	df000115 	stw	fp,4(sp)
   20444:	df000104 	addi	fp,sp,4
   20448:	e13fff15 	stw	r4,-4(fp)
   2044c:	e13fff17 	ldw	r4,-4(fp)
   20450:	00204040 	call	20404 <_ZN15lmx2694_HandlerD1Ev>
   20454:	01400904 	movi	r5,36
   20458:	e13fff17 	ldw	r4,-4(fp)
   2045c:	00216640 	call	21664 <_ZdlPvj>
   20460:	e037883a 	mov	sp,fp
   20464:	dfc00117 	ldw	ra,4(sp)
   20468:	df000017 	ldw	fp,0(sp)
   2046c:	dec00204 	addi	sp,sp,8
   20470:	f800283a 	ret

00020474 <_ZN15lmx2694_Handler4InitEv>:
   20474:	defffd04 	addi	sp,sp,-12
   20478:	dfc00215 	stw	ra,8(sp)
   2047c:	df000115 	stw	fp,4(sp)
   20480:	df000104 	addi	fp,sp,4
   20484:	e13fff15 	stw	r4,-4(fp)
   20488:	e0ffff17 	ldw	r3,-4(fp)
   2048c:	008000f4 	movhi	r2,3
   20490:	10a22004 	addi	r2,r2,-30592
   20494:	18800415 	stw	r2,16(r3)
   20498:	e0bfff17 	ldw	r2,-4(fp)
   2049c:	10800417 	ldw	r2,16(r2)
   204a0:	000d883a 	mov	r6,zero
   204a4:	01400134 	movhi	r5,4
   204a8:	29440804 	addi	r5,r5,4128
   204ac:	1009883a 	mov	r4,r2
   204b0:	0020d700 	call	20d70 <_ZN11SPI_Handler4InitEmm>
   204b4:	e0bfff17 	ldw	r2,-4(fp)
   204b8:	10800417 	ldw	r2,16(r2)
   204bc:	01400044 	movi	r5,1
   204c0:	1009883a 	mov	r4,r2
   204c4:	0020e280 	call	20e28 <_ZN11SPI_Handler5SetCSEb>
   204c8:	e13fff17 	ldw	r4,-4(fp)
   204cc:	002051c0 	call	2051c <_ZN15lmx2694_Handler10Power_DownEv>
   204d0:	e13fff17 	ldw	r4,-4(fp)
   204d4:	00206d00 	call	206d0 <_ZN15lmx2694_Handler13Program_ResetEv>
   204d8:	e13fff17 	ldw	r4,-4(fp)
   204dc:	00208dc0 	call	208dc <_ZN15lmx2694_Handler18Initiate_RegistersEv>
   204e0:	0109c404 	movi	r4,10000
   204e4:	0022a140 	call	22a14 <usleep>
   204e8:	e13fff17 	ldw	r4,-4(fp)
   204ec:	00206740 	call	20674 <_ZN15lmx2694_Handler14Toggle_FCAL_ENEv>
   204f0:	01401b84 	movi	r5,110
   204f4:	e13fff17 	ldw	r4,-4(fp)
   204f8:	0020a100 	call	20a10 <_ZN15lmx2694_Handler20Read_Single_RegisterEh>
   204fc:	10bfffcc 	andi	r2,r2,65535
   20500:	1081000c 	andi	r2,r2,1024
   20504:	1004c03a 	cmpne	r2,r2,zero
   20508:	e037883a 	mov	sp,fp
   2050c:	dfc00117 	ldw	ra,4(sp)
   20510:	df000017 	ldw	fp,0(sp)
   20514:	dec00204 	addi	sp,sp,8
   20518:	f800283a 	ret

0002051c <_ZN15lmx2694_Handler10Power_DownEv>:
   2051c:	defffd04 	addi	sp,sp,-12
   20520:	dfc00215 	stw	ra,8(sp)
   20524:	df000115 	stw	fp,4(sp)
   20528:	df000104 	addi	fp,sp,4
   2052c:	e13fff15 	stw	r4,-4(fp)
   20530:	e0bfff17 	ldw	r2,-4(fp)
   20534:	10800417 	ldw	r2,16(r2)
   20538:	000b883a 	mov	r5,zero
   2053c:	1009883a 	mov	r4,r2
   20540:	0020e280 	call	20e28 <_ZN11SPI_Handler5SetCSEb>
   20544:	01484644 	movi	r5,8473
   20548:	e13fff17 	ldw	r4,-4(fp)
   2054c:	00207e00 	call	207e0 <_ZN15lmx2694_Handler15Get_Three_BytesEm>
   20550:	e0bfff17 	ldw	r2,-4(fp)
   20554:	10c00417 	ldw	r3,16(r2)
   20558:	e0bfff17 	ldw	r2,-4(fp)
   2055c:	10800504 	addi	r2,r2,20
   20560:	018000c4 	movi	r6,3
   20564:	100b883a 	mov	r5,r2
   20568:	1809883a 	mov	r4,r3
   2056c:	0020e8c0 	call	20e8c <_ZN11SPI_Handler9WriteDataEPhm>
   20570:	1007883a 	mov	r3,r2
   20574:	e0bfff17 	ldw	r2,-4(fp)
   20578:	10c00715 	stw	r3,28(r2)
   2057c:	e0bfff17 	ldw	r2,-4(fp)
   20580:	10800717 	ldw	r2,28(r2)
   20584:	0084803a 	cmplt	r2,zero,r2
   20588:	1007883a 	mov	r3,r2
   2058c:	e0bfff17 	ldw	r2,-4(fp)
   20590:	10c00685 	stb	r3,26(r2)
   20594:	e0bfff17 	ldw	r2,-4(fp)
   20598:	10800417 	ldw	r2,16(r2)
   2059c:	01400044 	movi	r5,1
   205a0:	1009883a 	mov	r4,r2
   205a4:	0020e280 	call	20e28 <_ZN11SPI_Handler5SetCSEb>
   205a8:	e0bfff17 	ldw	r2,-4(fp)
   205ac:	10800683 	ldbu	r2,26(r2)
   205b0:	e037883a 	mov	sp,fp
   205b4:	dfc00117 	ldw	ra,4(sp)
   205b8:	df000017 	ldw	fp,0(sp)
   205bc:	dec00204 	addi	sp,sp,8
   205c0:	f800283a 	ret

000205c4 <_ZN15lmx2694_Handler13Write_FCAL_ENEb>:
   205c4:	defffc04 	addi	sp,sp,-16
   205c8:	dfc00315 	stw	ra,12(sp)
   205cc:	df000215 	stw	fp,8(sp)
   205d0:	df000204 	addi	fp,sp,8
   205d4:	e13fff15 	stw	r4,-4(fp)
   205d8:	2805883a 	mov	r2,r5
   205dc:	e0bffe05 	stb	r2,-8(fp)
   205e0:	e0bffe03 	ldbu	r2,-8(fp)
   205e4:	10000826 	beq	r2,zero,20608 <_ZN15lmx2694_Handler13Write_FCAL_ENEb+0x44>
   205e8:	000b883a 	mov	r5,zero
   205ec:	e13fff17 	ldw	r4,-4(fp)
   205f0:	0020a100 	call	20a10 <_ZN15lmx2694_Handler20Read_Single_RegisterEh>
   205f4:	10800214 	ori	r2,r2,8
   205f8:	1007883a 	mov	r3,r2
   205fc:	e0bfff17 	ldw	r2,-4(fp)
   20600:	10c0080d 	sth	r3,32(r2)
   20604:	00000906 	br	2062c <_ZN15lmx2694_Handler13Write_FCAL_ENEb+0x68>
   20608:	000b883a 	mov	r5,zero
   2060c:	e13fff17 	ldw	r4,-4(fp)
   20610:	0020a100 	call	20a10 <_ZN15lmx2694_Handler20Read_Single_RegisterEh>
   20614:	1007883a 	mov	r3,r2
   20618:	00bffdc4 	movi	r2,-9
   2061c:	1884703a 	and	r2,r3,r2
   20620:	1007883a 	mov	r3,r2
   20624:	e0bfff17 	ldw	r2,-4(fp)
   20628:	10c0080d 	sth	r3,32(r2)
   2062c:	e0bfff17 	ldw	r2,-4(fp)
   20630:	1080080b 	ldhu	r2,32(r2)
   20634:	10bfffcc 	andi	r2,r2,65535
   20638:	100d883a 	mov	r6,r2
   2063c:	000b883a 	mov	r5,zero
   20640:	e13fff17 	ldw	r4,-4(fp)
   20644:	00209600 	call	20960 <_ZN15lmx2694_Handler21Write_Single_RegisterEht>
   20648:	1007883a 	mov	r3,r2
   2064c:	e0bfff17 	ldw	r2,-4(fp)
   20650:	10c00715 	stw	r3,28(r2)
   20654:	e0bfff17 	ldw	r2,-4(fp)
   20658:	10800717 	ldw	r2,28(r2)
   2065c:	1004c03a 	cmpne	r2,r2,zero
   20660:	e037883a 	mov	sp,fp
   20664:	dfc00117 	ldw	ra,4(sp)
   20668:	df000017 	ldw	fp,0(sp)
   2066c:	dec00204 	addi	sp,sp,8
   20670:	f800283a 	ret

00020674 <_ZN15lmx2694_Handler14Toggle_FCAL_ENEv>:
   20674:	defffd04 	addi	sp,sp,-12
   20678:	dfc00215 	stw	ra,8(sp)
   2067c:	df000115 	stw	fp,4(sp)
   20680:	df000104 	addi	fp,sp,4
   20684:	e13fff15 	stw	r4,-4(fp)
   20688:	000b883a 	mov	r5,zero
   2068c:	e13fff17 	ldw	r4,-4(fp)
   20690:	00205c40 	call	205c4 <_ZN15lmx2694_Handler13Write_FCAL_ENEb>
   20694:	01001904 	movi	r4,100
   20698:	0022a140 	call	22a14 <usleep>
   2069c:	01400044 	movi	r5,1
   206a0:	e13fff17 	ldw	r4,-4(fp)
   206a4:	00205c40 	call	205c4 <_ZN15lmx2694_Handler13Write_FCAL_ENEb>
   206a8:	1007883a 	mov	r3,r2
   206ac:	e0bfff17 	ldw	r2,-4(fp)
   206b0:	10c00685 	stb	r3,26(r2)
   206b4:	e0bfff17 	ldw	r2,-4(fp)
   206b8:	10800683 	ldbu	r2,26(r2)
   206bc:	e037883a 	mov	sp,fp
   206c0:	dfc00117 	ldw	ra,4(sp)
   206c4:	df000017 	ldw	fp,0(sp)
   206c8:	dec00204 	addi	sp,sp,8
   206cc:	f800283a 	ret

000206d0 <_ZN15lmx2694_Handler13Program_ResetEv>:
   206d0:	defffd04 	addi	sp,sp,-12
   206d4:	dfc00215 	stw	ra,8(sp)
   206d8:	df000115 	stw	fp,4(sp)
   206dc:	df000104 	addi	fp,sp,4
   206e0:	e13fff15 	stw	r4,-4(fp)
   206e4:	e0bfff17 	ldw	r2,-4(fp)
   206e8:	10800417 	ldw	r2,16(r2)
   206ec:	000b883a 	mov	r5,zero
   206f0:	1009883a 	mov	r4,r2
   206f4:	0020e280 	call	20e28 <_ZN11SPI_Handler5SetCSEb>
   206f8:	01484784 	movi	r5,8478
   206fc:	e13fff17 	ldw	r4,-4(fp)
   20700:	00207e00 	call	207e0 <_ZN15lmx2694_Handler15Get_Three_BytesEm>
   20704:	e0bfff17 	ldw	r2,-4(fp)
   20708:	10c00417 	ldw	r3,16(r2)
   2070c:	e0bfff17 	ldw	r2,-4(fp)
   20710:	10800504 	addi	r2,r2,20
   20714:	018000c4 	movi	r6,3
   20718:	100b883a 	mov	r5,r2
   2071c:	1809883a 	mov	r4,r3
   20720:	0020e8c0 	call	20e8c <_ZN11SPI_Handler9WriteDataEPhm>
   20724:	1007883a 	mov	r3,r2
   20728:	e0bfff17 	ldw	r2,-4(fp)
   2072c:	10c00715 	stw	r3,28(r2)
   20730:	e0bfff17 	ldw	r2,-4(fp)
   20734:	10800417 	ldw	r2,16(r2)
   20738:	01400044 	movi	r5,1
   2073c:	1009883a 	mov	r4,r2
   20740:	0020e280 	call	20e28 <_ZN11SPI_Handler5SetCSEb>
   20744:	01001904 	movi	r4,100
   20748:	0022a140 	call	22a14 <usleep>
   2074c:	e0bfff17 	ldw	r2,-4(fp)
   20750:	10800417 	ldw	r2,16(r2)
   20754:	000b883a 	mov	r5,zero
   20758:	1009883a 	mov	r4,r2
   2075c:	0020e280 	call	20e28 <_ZN11SPI_Handler5SetCSEb>
   20760:	01484704 	movi	r5,8476
   20764:	e13fff17 	ldw	r4,-4(fp)
   20768:	00207e00 	call	207e0 <_ZN15lmx2694_Handler15Get_Three_BytesEm>
   2076c:	e0bfff17 	ldw	r2,-4(fp)
   20770:	10c00417 	ldw	r3,16(r2)
   20774:	e0bfff17 	ldw	r2,-4(fp)
   20778:	10800504 	addi	r2,r2,20
   2077c:	018000c4 	movi	r6,3
   20780:	100b883a 	mov	r5,r2
   20784:	1809883a 	mov	r4,r3
   20788:	0020e8c0 	call	20e8c <_ZN11SPI_Handler9WriteDataEPhm>
   2078c:	1007883a 	mov	r3,r2
   20790:	e0bfff17 	ldw	r2,-4(fp)
   20794:	10c00715 	stw	r3,28(r2)
   20798:	e0bfff17 	ldw	r2,-4(fp)
   2079c:	10800717 	ldw	r2,28(r2)
   207a0:	0084803a 	cmplt	r2,zero,r2
   207a4:	1007883a 	mov	r3,r2
   207a8:	e0bfff17 	ldw	r2,-4(fp)
   207ac:	10c00685 	stb	r3,26(r2)
   207b0:	e0bfff17 	ldw	r2,-4(fp)
   207b4:	10800417 	ldw	r2,16(r2)
   207b8:	01400044 	movi	r5,1
   207bc:	1009883a 	mov	r4,r2
   207c0:	0020e280 	call	20e28 <_ZN11SPI_Handler5SetCSEb>
   207c4:	e0bfff17 	ldw	r2,-4(fp)
   207c8:	10800683 	ldbu	r2,26(r2)
   207cc:	e037883a 	mov	sp,fp
   207d0:	dfc00117 	ldw	ra,4(sp)
   207d4:	df000017 	ldw	fp,0(sp)
   207d8:	dec00204 	addi	sp,sp,8
   207dc:	f800283a 	ret

000207e0 <_ZN15lmx2694_Handler15Get_Three_BytesEm>:
   207e0:	defffc04 	addi	sp,sp,-16
   207e4:	df000315 	stw	fp,12(sp)
   207e8:	df000304 	addi	fp,sp,12
   207ec:	e13ffe15 	stw	r4,-8(fp)
   207f0:	e17ffd15 	stw	r5,-12(fp)
   207f4:	e03fff15 	stw	zero,-4(fp)
   207f8:	e0bfff17 	ldw	r2,-4(fp)
   207fc:	108000c8 	cmpgei	r2,r2,3
   20800:	10000e1e 	bne	r2,zero,2083c <_ZN15lmx2694_Handler15Get_Three_BytesEm+0x5c>
   20804:	e0bfff17 	ldw	r2,-4(fp)
   20808:	100490fa 	slli	r2,r2,3
   2080c:	e0fffd17 	ldw	r3,-12(fp)
   20810:	1888d83a 	srl	r4,r3,r2
   20814:	00c00084 	movi	r3,2
   20818:	e0bfff17 	ldw	r2,-4(fp)
   2081c:	1885c83a 	sub	r2,r3,r2
   20820:	e0fffe17 	ldw	r3,-8(fp)
   20824:	1885883a 	add	r2,r3,r2
   20828:	11000505 	stb	r4,20(r2)
   2082c:	e0bfff17 	ldw	r2,-4(fp)
   20830:	10800044 	addi	r2,r2,1
   20834:	e0bfff15 	stw	r2,-4(fp)
   20838:	003fef06 	br	207f8 <_ZN15lmx2694_Handler15Get_Three_BytesEm+0x18>
   2083c:	0001883a 	nop
   20840:	e037883a 	mov	sp,fp
   20844:	df000017 	ldw	fp,0(sp)
   20848:	dec00104 	addi	sp,sp,4
   2084c:	f800283a 	ret

00020850 <_ZN15lmx2694_Handler16Make_Three_BytesEht>:
   20850:	defffb04 	addi	sp,sp,-20
   20854:	df000415 	stw	fp,16(sp)
   20858:	df000404 	addi	fp,sp,16
   2085c:	e13ffe15 	stw	r4,-8(fp)
   20860:	2805883a 	mov	r2,r5
   20864:	3007883a 	mov	r3,r6
   20868:	e0bffd05 	stb	r2,-12(fp)
   2086c:	1805883a 	mov	r2,r3
   20870:	e0bffc0d 	sth	r2,-16(fp)
   20874:	e03fff15 	stw	zero,-4(fp)
   20878:	e0bfff17 	ldw	r2,-4(fp)
   2087c:	10800088 	cmpgei	r2,r2,2
   20880:	10000e1e 	bne	r2,zero,208bc <_ZN15lmx2694_Handler16Make_Three_BytesEht+0x6c>
   20884:	e0fffc0b 	ldhu	r3,-16(fp)
   20888:	e0bfff17 	ldw	r2,-4(fp)
   2088c:	100490fa 	slli	r2,r2,3
   20890:	1889d83a 	sra	r4,r3,r2
   20894:	00c00084 	movi	r3,2
   20898:	e0bfff17 	ldw	r2,-4(fp)
   2089c:	1885c83a 	sub	r2,r3,r2
   208a0:	e0fffe17 	ldw	r3,-8(fp)
   208a4:	1885883a 	add	r2,r3,r2
   208a8:	11000505 	stb	r4,20(r2)
   208ac:	e0bfff17 	ldw	r2,-4(fp)
   208b0:	10800044 	addi	r2,r2,1
   208b4:	e0bfff15 	stw	r2,-4(fp)
   208b8:	003fef06 	br	20878 <_ZN15lmx2694_Handler16Make_Three_BytesEht+0x28>
   208bc:	e0bffe17 	ldw	r2,-8(fp)
   208c0:	e0fffd03 	ldbu	r3,-12(fp)
   208c4:	10c00505 	stb	r3,20(r2)
   208c8:	0001883a 	nop
   208cc:	e037883a 	mov	sp,fp
   208d0:	df000017 	ldw	fp,0(sp)
   208d4:	dec00104 	addi	sp,sp,4
   208d8:	f800283a 	ret

000208dc <_ZN15lmx2694_Handler18Initiate_RegistersEv>:
   208dc:	defffc04 	addi	sp,sp,-16
   208e0:	dfc00315 	stw	ra,12(sp)
   208e4:	df000215 	stw	fp,8(sp)
   208e8:	df000204 	addi	fp,sp,8
   208ec:	e13ffe15 	stw	r4,-8(fp)
   208f0:	00801cc4 	movi	r2,115
   208f4:	e0bfff15 	stw	r2,-4(fp)
   208f8:	e0bfff17 	ldw	r2,-4(fp)
   208fc:	0080120e 	bge	zero,r2,20948 <_ZN15lmx2694_Handler18Initiate_RegistersEv+0x6c>
   20900:	e0bfff17 	ldw	r2,-4(fp)
   20904:	10bfffc4 	addi	r2,r2,-1
   20908:	11003fcc 	andi	r4,r2,255
   2090c:	e0bfff17 	ldw	r2,-4(fp)
   20910:	10bfe344 	addi	r2,r2,-115
   20914:	1087883a 	add	r3,r2,r2
   20918:	008000b4 	movhi	r2,2
   2091c:	1885883a 	add	r2,r3,r2
   20920:	1094378b 	ldhu	r2,20702(r2)
   20924:	10bfffcc 	andi	r2,r2,65535
   20928:	100d883a 	mov	r6,r2
   2092c:	200b883a 	mov	r5,r4
   20930:	e13ffe17 	ldw	r4,-8(fp)
   20934:	00209600 	call	20960 <_ZN15lmx2694_Handler21Write_Single_RegisterEht>
   20938:	e0bfff17 	ldw	r2,-4(fp)
   2093c:	10bfffc4 	addi	r2,r2,-1
   20940:	e0bfff15 	stw	r2,-4(fp)
   20944:	003fec06 	br	208f8 <_ZN15lmx2694_Handler18Initiate_RegistersEv+0x1c>
   20948:	0001883a 	nop
   2094c:	e037883a 	mov	sp,fp
   20950:	dfc00117 	ldw	ra,4(sp)
   20954:	df000017 	ldw	fp,0(sp)
   20958:	dec00204 	addi	sp,sp,8
   2095c:	f800283a 	ret

00020960 <_ZN15lmx2694_Handler21Write_Single_RegisterEht>:
   20960:	defffb04 	addi	sp,sp,-20
   20964:	dfc00415 	stw	ra,16(sp)
   20968:	df000315 	stw	fp,12(sp)
   2096c:	df000304 	addi	fp,sp,12
   20970:	e13fff15 	stw	r4,-4(fp)
   20974:	2805883a 	mov	r2,r5
   20978:	3007883a 	mov	r3,r6
   2097c:	e0bffe05 	stb	r2,-8(fp)
   20980:	1805883a 	mov	r2,r3
   20984:	e0bffd0d 	sth	r2,-12(fp)
   20988:	e0bfff17 	ldw	r2,-4(fp)
   2098c:	10800417 	ldw	r2,16(r2)
   20990:	000b883a 	mov	r5,zero
   20994:	1009883a 	mov	r4,r2
   20998:	0020e280 	call	20e28 <_ZN11SPI_Handler5SetCSEb>
   2099c:	e0bffe03 	ldbu	r2,-8(fp)
   209a0:	e0fffd0b 	ldhu	r3,-12(fp)
   209a4:	180d883a 	mov	r6,r3
   209a8:	100b883a 	mov	r5,r2
   209ac:	e13fff17 	ldw	r4,-4(fp)
   209b0:	00208500 	call	20850 <_ZN15lmx2694_Handler16Make_Three_BytesEht>
   209b4:	e0bfff17 	ldw	r2,-4(fp)
   209b8:	10c00417 	ldw	r3,16(r2)
   209bc:	e0bfff17 	ldw	r2,-4(fp)
   209c0:	10800504 	addi	r2,r2,20
   209c4:	018000c4 	movi	r6,3
   209c8:	100b883a 	mov	r5,r2
   209cc:	1809883a 	mov	r4,r3
   209d0:	0020e8c0 	call	20e8c <_ZN11SPI_Handler9WriteDataEPhm>
   209d4:	1007883a 	mov	r3,r2
   209d8:	e0bfff17 	ldw	r2,-4(fp)
   209dc:	10c00715 	stw	r3,28(r2)
   209e0:	e0bfff17 	ldw	r2,-4(fp)
   209e4:	10800417 	ldw	r2,16(r2)
   209e8:	01400044 	movi	r5,1
   209ec:	1009883a 	mov	r4,r2
   209f0:	0020e280 	call	20e28 <_ZN11SPI_Handler5SetCSEb>
   209f4:	e0bfff17 	ldw	r2,-4(fp)
   209f8:	10800717 	ldw	r2,28(r2)
   209fc:	e037883a 	mov	sp,fp
   20a00:	dfc00117 	ldw	ra,4(sp)
   20a04:	df000017 	ldw	fp,0(sp)
   20a08:	dec00204 	addi	sp,sp,8
   20a0c:	f800283a 	ret

00020a10 <_ZN15lmx2694_Handler20Read_Single_RegisterEh>:
   20a10:	defffa04 	addi	sp,sp,-24
   20a14:	dfc00515 	stw	ra,20(sp)
   20a18:	df000415 	stw	fp,16(sp)
   20a1c:	df000404 	addi	fp,sp,16
   20a20:	e13ffe15 	stw	r4,-8(fp)
   20a24:	2805883a 	mov	r2,r5
   20a28:	e0bffd05 	stb	r2,-12(fp)
   20a2c:	01884604 	movi	r6,8472
   20a30:	000b883a 	mov	r5,zero
   20a34:	e13ffe17 	ldw	r4,-8(fp)
   20a38:	00209600 	call	20960 <_ZN15lmx2694_Handler21Write_Single_RegisterEht>
   20a3c:	e0bffe17 	ldw	r2,-8(fp)
   20a40:	1000080d 	sth	zero,32(r2)
   20a44:	00803fc4 	movi	r2,255
   20a48:	e0bfff8d 	sth	r2,-2(fp)
   20a4c:	e0bffe17 	ldw	r2,-8(fp)
   20a50:	1080080b 	ldhu	r2,32(r2)
   20a54:	10bfffcc 	andi	r2,r2,65535
   20a58:	1005003a 	cmpeq	r2,r2,zero
   20a5c:	1009883a 	mov	r4,r2
   20a60:	e0bffe17 	ldw	r2,-8(fp)
   20a64:	1080080b 	ldhu	r2,32(r2)
   20a68:	e0ffff8b 	ldhu	r3,-2(fp)
   20a6c:	10bfffcc 	andi	r2,r2,65535
   20a70:	1884c03a 	cmpne	r2,r3,r2
   20a74:	2084b03a 	or	r2,r4,r2
   20a78:	10c03fcc 	andi	r3,r2,255
   20a7c:	e0bffe17 	ldw	r2,-8(fp)
   20a80:	1080080b 	ldhu	r2,32(r2)
   20a84:	113fffcc 	andi	r4,r2,65535
   20a88:	00bfffd4 	movui	r2,65535
   20a8c:	2085003a 	cmpeq	r2,r4,r2
   20a90:	10803fcc 	andi	r2,r2,255
   20a94:	1884b03a 	or	r2,r3,r2
   20a98:	10003d26 	beq	r2,zero,20b90 <_ZN15lmx2694_Handler20Read_Single_RegisterEh+0x180>
   20a9c:	e0bffe17 	ldw	r2,-8(fp)
   20aa0:	10800417 	ldw	r2,16(r2)
   20aa4:	000b883a 	mov	r5,zero
   20aa8:	1009883a 	mov	r4,r2
   20aac:	0020e280 	call	20e28 <_ZN11SPI_Handler5SetCSEb>
   20ab0:	e0fffd03 	ldbu	r3,-12(fp)
   20ab4:	00bfe004 	movi	r2,-128
   20ab8:	1884b03a 	or	r2,r3,r2
   20abc:	1007883a 	mov	r3,r2
   20ac0:	e0bffe17 	ldw	r2,-8(fp)
   20ac4:	10c00885 	stb	r3,34(r2)
   20ac8:	e0bffe17 	ldw	r2,-8(fp)
   20acc:	10800883 	ldbu	r2,34(r2)
   20ad0:	10803fcc 	andi	r2,r2,255
   20ad4:	000d883a 	mov	r6,zero
   20ad8:	100b883a 	mov	r5,r2
   20adc:	e13ffe17 	ldw	r4,-8(fp)
   20ae0:	00208500 	call	20850 <_ZN15lmx2694_Handler16Make_Three_BytesEht>
   20ae4:	e0bffe17 	ldw	r2,-8(fp)
   20ae8:	108005c4 	addi	r2,r2,23
   20aec:	018000c4 	movi	r6,3
   20af0:	000b883a 	mov	r5,zero
   20af4:	1009883a 	mov	r4,r2
   20af8:	00221940 	call	22194 <memset>
   20afc:	e0bffe17 	ldw	r2,-8(fp)
   20b00:	10c00417 	ldw	r3,16(r2)
   20b04:	e0bffe17 	ldw	r2,-8(fp)
   20b08:	11000504 	addi	r4,r2,20
   20b0c:	e0bffe17 	ldw	r2,-8(fp)
   20b10:	114005c4 	addi	r5,r2,23
   20b14:	008000c4 	movi	r2,3
   20b18:	d8800015 	stw	r2,0(sp)
   20b1c:	280f883a 	mov	r7,r5
   20b20:	018000c4 	movi	r6,3
   20b24:	200b883a 	mov	r5,r4
   20b28:	1809883a 	mov	r4,r3
   20b2c:	00211140 	call	21114 <_ZN11SPI_Handler12TransferDataEPhmS0_m>
   20b30:	1007883a 	mov	r3,r2
   20b34:	e0bffe17 	ldw	r2,-8(fp)
   20b38:	10c00715 	stw	r3,28(r2)
   20b3c:	e0bffe17 	ldw	r2,-8(fp)
   20b40:	1080080b 	ldhu	r2,32(r2)
   20b44:	e0bfff8d 	sth	r2,-2(fp)
   20b48:	e0bffe17 	ldw	r2,-8(fp)
   20b4c:	10800603 	ldbu	r2,24(r2)
   20b50:	10803fcc 	andi	r2,r2,255
   20b54:	1004923a 	slli	r2,r2,8
   20b58:	1007883a 	mov	r3,r2
   20b5c:	e0bffe17 	ldw	r2,-8(fp)
   20b60:	10800643 	ldbu	r2,25(r2)
   20b64:	10803fcc 	andi	r2,r2,255
   20b68:	1885883a 	add	r2,r3,r2
   20b6c:	1007883a 	mov	r3,r2
   20b70:	e0bffe17 	ldw	r2,-8(fp)
   20b74:	10c0080d 	sth	r3,32(r2)
   20b78:	e0bffe17 	ldw	r2,-8(fp)
   20b7c:	10800417 	ldw	r2,16(r2)
   20b80:	01400044 	movi	r5,1
   20b84:	1009883a 	mov	r4,r2
   20b88:	0020e280 	call	20e28 <_ZN11SPI_Handler5SetCSEb>
   20b8c:	003faf06 	br	20a4c <_ZN15lmx2694_Handler20Read_Single_RegisterEh+0x3c>
   20b90:	01884704 	movi	r6,8476
   20b94:	000b883a 	mov	r5,zero
   20b98:	e13ffe17 	ldw	r4,-8(fp)
   20b9c:	00209600 	call	20960 <_ZN15lmx2694_Handler21Write_Single_RegisterEht>
   20ba0:	e0bffe17 	ldw	r2,-8(fp)
   20ba4:	1080080b 	ldhu	r2,32(r2)
   20ba8:	e037883a 	mov	sp,fp
   20bac:	dfc00117 	ldw	ra,4(sp)
   20bb0:	df000017 	ldw	fp,0(sp)
   20bb4:	dec00204 	addi	sp,sp,8
   20bb8:	f800283a 	ret

00020bbc <_ZN15lmx2694_Handler9Self_TestEv>:
   20bbc:	defffe04 	addi	sp,sp,-8
   20bc0:	df000115 	stw	fp,4(sp)
   20bc4:	df000104 	addi	fp,sp,4
   20bc8:	e13fff15 	stw	r4,-4(fp)
   20bcc:	0005883a 	mov	r2,zero
   20bd0:	e037883a 	mov	sp,fp
   20bd4:	df000017 	ldw	fp,0(sp)
   20bd8:	dec00104 	addi	sp,sp,4
   20bdc:	f800283a 	ret

00020be0 <_Z41__static_initialization_and_destruction_0ii>:
   20be0:	defffc04 	addi	sp,sp,-16
   20be4:	dfc00315 	stw	ra,12(sp)
   20be8:	df000215 	stw	fp,8(sp)
   20bec:	df000204 	addi	fp,sp,8
   20bf0:	e13fff15 	stw	r4,-4(fp)
   20bf4:	e17ffe15 	stw	r5,-8(fp)
   20bf8:	e0bfff17 	ldw	r2,-4(fp)
   20bfc:	10800058 	cmpnei	r2,r2,1
   20c00:	1000061e 	bne	r2,zero,20c1c <_Z41__static_initialization_and_destruction_0ii+0x3c>
   20c04:	e0fffe17 	ldw	r3,-8(fp)
   20c08:	00bfffd4 	movui	r2,65535
   20c0c:	1880031e 	bne	r3,r2,20c1c <_Z41__static_initialization_and_destruction_0ii+0x3c>
   20c10:	010000f4 	movhi	r4,3
   20c14:	21222004 	addi	r4,r4,-30592
   20c18:	0020cb40 	call	20cb4 <_ZN11SPI_HandlerC1Ev>
   20c1c:	e0bfff17 	ldw	r2,-4(fp)
   20c20:	1000061e 	bne	r2,zero,20c3c <_Z41__static_initialization_and_destruction_0ii+0x5c>
   20c24:	e0fffe17 	ldw	r3,-8(fp)
   20c28:	00bfffd4 	movui	r2,65535
   20c2c:	1880031e 	bne	r3,r2,20c3c <_Z41__static_initialization_and_destruction_0ii+0x5c>
   20c30:	010000f4 	movhi	r4,3
   20c34:	21222004 	addi	r4,r4,-30592
   20c38:	0020d000 	call	20d00 <_ZN11SPI_HandlerD1Ev>
   20c3c:	0001883a 	nop
   20c40:	e037883a 	mov	sp,fp
   20c44:	dfc00117 	ldw	ra,4(sp)
   20c48:	df000017 	ldw	fp,0(sp)
   20c4c:	dec00204 	addi	sp,sp,8
   20c50:	f800283a 	ret

00020c54 <_GLOBAL__sub_I__ZN15lmx2694_HandlerC2Ev>:
   20c54:	defffe04 	addi	sp,sp,-8
   20c58:	dfc00115 	stw	ra,4(sp)
   20c5c:	df000015 	stw	fp,0(sp)
   20c60:	d839883a 	mov	fp,sp
   20c64:	017fffd4 	movui	r5,65535
   20c68:	01000044 	movi	r4,1
   20c6c:	0020be00 	call	20be0 <_Z41__static_initialization_and_destruction_0ii>
   20c70:	e037883a 	mov	sp,fp
   20c74:	dfc00117 	ldw	ra,4(sp)
   20c78:	df000017 	ldw	fp,0(sp)
   20c7c:	dec00204 	addi	sp,sp,8
   20c80:	f800283a 	ret

00020c84 <_GLOBAL__sub_D__ZN15lmx2694_HandlerC2Ev>:
   20c84:	defffe04 	addi	sp,sp,-8
   20c88:	dfc00115 	stw	ra,4(sp)
   20c8c:	df000015 	stw	fp,0(sp)
   20c90:	d839883a 	mov	fp,sp
   20c94:	017fffd4 	movui	r5,65535
   20c98:	0009883a 	mov	r4,zero
   20c9c:	0020be00 	call	20be0 <_Z41__static_initialization_and_destruction_0ii>
   20ca0:	e037883a 	mov	sp,fp
   20ca4:	dfc00117 	ldw	ra,4(sp)
   20ca8:	df000017 	ldw	fp,0(sp)
   20cac:	dec00204 	addi	sp,sp,8
   20cb0:	f800283a 	ret

00020cb4 <_ZN11SPI_HandlerC1Ev>:
   20cb4:	defffe04 	addi	sp,sp,-8
   20cb8:	df000115 	stw	fp,4(sp)
   20cbc:	df000104 	addi	fp,sp,4
   20cc0:	e13fff15 	stw	r4,-4(fp)
   20cc4:	008000b4 	movhi	r2,2
   20cc8:	10947c04 	addi	r2,r2,20976
   20ccc:	e0ffff17 	ldw	r3,-4(fp)
   20cd0:	18800015 	stw	r2,0(r3)
   20cd4:	e0bfff17 	ldw	r2,-4(fp)
   20cd8:	10000115 	stw	zero,4(r2)
   20cdc:	e0bfff17 	ldw	r2,-4(fp)
   20ce0:	10000315 	stw	zero,12(r2)
   20ce4:	e0bfff17 	ldw	r2,-4(fp)
   20ce8:	10000215 	stw	zero,8(r2)
   20cec:	0001883a 	nop
   20cf0:	e037883a 	mov	sp,fp
   20cf4:	df000017 	ldw	fp,0(sp)
   20cf8:	dec00104 	addi	sp,sp,4
   20cfc:	f800283a 	ret

00020d00 <_ZN11SPI_HandlerD1Ev>:
   20d00:	defffe04 	addi	sp,sp,-8
   20d04:	df000115 	stw	fp,4(sp)
   20d08:	df000104 	addi	fp,sp,4
   20d0c:	e13fff15 	stw	r4,-4(fp)
   20d10:	008000b4 	movhi	r2,2
   20d14:	10947c04 	addi	r2,r2,20976
   20d18:	e0ffff17 	ldw	r3,-4(fp)
   20d1c:	18800015 	stw	r2,0(r3)
   20d20:	0001883a 	nop
   20d24:	e037883a 	mov	sp,fp
   20d28:	df000017 	ldw	fp,0(sp)
   20d2c:	dec00104 	addi	sp,sp,4
   20d30:	f800283a 	ret

00020d34 <_ZN11SPI_HandlerD0Ev>:
   20d34:	defffd04 	addi	sp,sp,-12
   20d38:	dfc00215 	stw	ra,8(sp)
   20d3c:	df000115 	stw	fp,4(sp)
   20d40:	df000104 	addi	fp,sp,4
   20d44:	e13fff15 	stw	r4,-4(fp)
   20d48:	e13fff17 	ldw	r4,-4(fp)
   20d4c:	0020d000 	call	20d00 <_ZN11SPI_HandlerD1Ev>
   20d50:	01401404 	movi	r5,80
   20d54:	e13fff17 	ldw	r4,-4(fp)
   20d58:	00216640 	call	21664 <_ZdlPvj>
   20d5c:	e037883a 	mov	sp,fp
   20d60:	dfc00117 	ldw	ra,4(sp)
   20d64:	df000017 	ldw	fp,0(sp)
   20d68:	dec00204 	addi	sp,sp,8
   20d6c:	f800283a 	ret

00020d70 <_ZN11SPI_Handler4InitEmm>:
   20d70:	defffc04 	addi	sp,sp,-16
   20d74:	df000315 	stw	fp,12(sp)
   20d78:	df000304 	addi	fp,sp,12
   20d7c:	e13fff15 	stw	r4,-4(fp)
   20d80:	e17ffe15 	stw	r5,-8(fp)
   20d84:	e1bffd15 	stw	r6,-12(fp)
   20d88:	e0bfff17 	ldw	r2,-4(fp)
   20d8c:	e0fffd17 	ldw	r3,-12(fp)
   20d90:	10c00215 	stw	r3,8(r2)
   20d94:	e0bfff17 	ldw	r2,-4(fp)
   20d98:	e0fffe17 	ldw	r3,-8(fp)
   20d9c:	10c00115 	stw	r3,4(r2)
   20da0:	00800044 	movi	r2,1
   20da4:	e037883a 	mov	sp,fp
   20da8:	df000017 	ldw	fp,0(sp)
   20dac:	dec00104 	addi	sp,sp,4
   20db0:	f800283a 	ret

00020db4 <_ZN11SPI_Handler4OpenEv>:
   20db4:	defffe04 	addi	sp,sp,-8
   20db8:	df000115 	stw	fp,4(sp)
   20dbc:	df000104 	addi	fp,sp,4
   20dc0:	e13fff15 	stw	r4,-4(fp)
   20dc4:	e0bfff17 	ldw	r2,-4(fp)
   20dc8:	10800117 	ldw	r2,4(r2)
   20dcc:	10800304 	addi	r2,r2,12
   20dd0:	1007883a 	mov	r3,r2
   20dd4:	00810004 	movi	r2,1024
   20dd8:	18800035 	stwio	r2,0(r3)
   20ddc:	0001883a 	nop
   20de0:	e037883a 	mov	sp,fp
   20de4:	df000017 	ldw	fp,0(sp)
   20de8:	dec00104 	addi	sp,sp,4
   20dec:	f800283a 	ret

00020df0 <_ZN11SPI_Handler5CloseEv>:
   20df0:	defffe04 	addi	sp,sp,-8
   20df4:	df000115 	stw	fp,4(sp)
   20df8:	df000104 	addi	fp,sp,4
   20dfc:	e13fff15 	stw	r4,-4(fp)
   20e00:	e0bfff17 	ldw	r2,-4(fp)
   20e04:	10800117 	ldw	r2,4(r2)
   20e08:	10800304 	addi	r2,r2,12
   20e0c:	0007883a 	mov	r3,zero
   20e10:	10c00035 	stwio	r3,0(r2)
   20e14:	0001883a 	nop
   20e18:	e037883a 	mov	sp,fp
   20e1c:	df000017 	ldw	fp,0(sp)
   20e20:	dec00104 	addi	sp,sp,4
   20e24:	f800283a 	ret

00020e28 <_ZN11SPI_Handler5SetCSEb>:
   20e28:	defffd04 	addi	sp,sp,-12
   20e2c:	df000215 	stw	fp,8(sp)
   20e30:	df000204 	addi	fp,sp,8
   20e34:	e13fff15 	stw	r4,-4(fp)
   20e38:	2805883a 	mov	r2,r5
   20e3c:	e0bffe05 	stb	r2,-8(fp)
   20e40:	e0bffe03 	ldbu	r2,-8(fp)
   20e44:	10000626 	beq	r2,zero,20e60 <_ZN11SPI_Handler5SetCSEb+0x38>
   20e48:	e0bfff17 	ldw	r2,-4(fp)
   20e4c:	10800117 	ldw	r2,4(r2)
   20e50:	10800304 	addi	r2,r2,12
   20e54:	0007883a 	mov	r3,zero
   20e58:	10c00035 	stwio	r3,0(r2)
   20e5c:	00000606 	br	20e78 <_ZN11SPI_Handler5SetCSEb+0x50>
   20e60:	e0bfff17 	ldw	r2,-4(fp)
   20e64:	10800117 	ldw	r2,4(r2)
   20e68:	10800304 	addi	r2,r2,12
   20e6c:	1007883a 	mov	r3,r2
   20e70:	00810004 	movi	r2,1024
   20e74:	18800035 	stwio	r2,0(r3)
   20e78:	0001883a 	nop
   20e7c:	e037883a 	mov	sp,fp
   20e80:	df000017 	ldw	fp,0(sp)
   20e84:	dec00104 	addi	sp,sp,4
   20e88:	f800283a 	ret

00020e8c <_ZN11SPI_Handler9WriteDataEPhm>:
   20e8c:	defff704 	addi	sp,sp,-36
   20e90:	df000815 	stw	fp,32(sp)
   20e94:	df000804 	addi	fp,sp,32
   20e98:	e13ffa15 	stw	r4,-24(fp)
   20e9c:	e17ff915 	stw	r5,-28(fp)
   20ea0:	e1bff815 	stw	r6,-32(fp)
   20ea4:	e0fff917 	ldw	r3,-28(fp)
   20ea8:	e0bff817 	ldw	r2,-32(fp)
   20eac:	1885883a 	add	r2,r3,r2
   20eb0:	e0bffd15 	stw	r2,-12(fp)
   20eb4:	e0bffa17 	ldw	r2,-24(fp)
   20eb8:	10800404 	addi	r2,r2,16
   20ebc:	e0bffc15 	stw	r2,-16(fp)
   20ec0:	e0bff817 	ldw	r2,-32(fp)
   20ec4:	e0bfff15 	stw	r2,-4(fp)
   20ec8:	00800044 	movi	r2,1
   20ecc:	e0bffe15 	stw	r2,-8(fp)
   20ed0:	e0bffa17 	ldw	r2,-24(fp)
   20ed4:	10800117 	ldw	r2,4(r2)
   20ed8:	10800504 	addi	r2,r2,20
   20edc:	1009883a 	mov	r4,r2
   20ee0:	e0bffa17 	ldw	r2,-24(fp)
   20ee4:	10800217 	ldw	r2,8(r2)
   20ee8:	00c00044 	movi	r3,1
   20eec:	1884983a 	sll	r2,r3,r2
   20ef0:	20800035 	stwio	r2,0(r4)
   20ef4:	e0bffa17 	ldw	r2,-24(fp)
   20ef8:	10800117 	ldw	r2,4(r2)
   20efc:	10800037 	ldwio	r2,0(r2)
   20f00:	e0bffa17 	ldw	r2,-24(fp)
   20f04:	10800117 	ldw	r2,4(r2)
   20f08:	10800204 	addi	r2,r2,8
   20f0c:	10800037 	ldwio	r2,0(r2)
   20f10:	e0bffb15 	stw	r2,-20(fp)
   20f14:	e0bffb17 	ldw	r2,-20(fp)
   20f18:	1080100c 	andi	r2,r2,64
   20f1c:	10000226 	beq	r2,zero,20f28 <_ZN11SPI_Handler9WriteDataEPhm+0x9c>
   20f20:	e0bffe17 	ldw	r2,-8(fp)
   20f24:	1000041e 	bne	r2,zero,20f38 <_ZN11SPI_Handler9WriteDataEPhm+0xac>
   20f28:	e0bffb17 	ldw	r2,-20(fp)
   20f2c:	1080200c 	andi	r2,r2,128
   20f30:	1000011e 	bne	r2,zero,20f38 <_ZN11SPI_Handler9WriteDataEPhm+0xac>
   20f34:	003ff206 	br	20f00 <_ZN11SPI_Handler9WriteDataEPhm+0x74>
   20f38:	e0bffb17 	ldw	r2,-20(fp)
   20f3c:	1080100c 	andi	r2,r2,64
   20f40:	10001526 	beq	r2,zero,20f98 <_ZN11SPI_Handler9WriteDataEPhm+0x10c>
   20f44:	e0bffe17 	ldw	r2,-8(fp)
   20f48:	0080130e 	bge	zero,r2,20f98 <_ZN11SPI_Handler9WriteDataEPhm+0x10c>
   20f4c:	e0bffe17 	ldw	r2,-8(fp)
   20f50:	10bfffc4 	addi	r2,r2,-1
   20f54:	e0bffe15 	stw	r2,-8(fp)
   20f58:	e0fff917 	ldw	r3,-28(fp)
   20f5c:	e0bffd17 	ldw	r2,-12(fp)
   20f60:	18800b2e 	bgeu	r3,r2,20f90 <_ZN11SPI_Handler9WriteDataEPhm+0x104>
   20f64:	e0bffa17 	ldw	r2,-24(fp)
   20f68:	10800117 	ldw	r2,4(r2)
   20f6c:	10800104 	addi	r2,r2,4
   20f70:	1009883a 	mov	r4,r2
   20f74:	e0bff917 	ldw	r2,-28(fp)
   20f78:	10c00044 	addi	r3,r2,1
   20f7c:	e0fff915 	stw	r3,-28(fp)
   20f80:	10800003 	ldbu	r2,0(r2)
   20f84:	10803fcc 	andi	r2,r2,255
   20f88:	20800035 	stwio	r2,0(r4)
   20f8c:	00000206 	br	20f98 <_ZN11SPI_Handler9WriteDataEPhm+0x10c>
   20f90:	00bf0004 	movi	r2,-1024
   20f94:	e0bffe15 	stw	r2,-8(fp)
   20f98:	e0bffb17 	ldw	r2,-20(fp)
   20f9c:	1080200c 	andi	r2,r2,128
   20fa0:	103fd726 	beq	r2,zero,20f00 <_ZN11SPI_Handler9WriteDataEPhm+0x74>
   20fa4:	e0bfff17 	ldw	r2,-4(fp)
   20fa8:	10000326 	beq	r2,zero,20fb8 <_ZN11SPI_Handler9WriteDataEPhm+0x12c>
   20fac:	e0bfff17 	ldw	r2,-4(fp)
   20fb0:	10bfffc4 	addi	r2,r2,-1
   20fb4:	e0bfff15 	stw	r2,-4(fp)
   20fb8:	e0bffe17 	ldw	r2,-8(fp)
   20fbc:	10800044 	addi	r2,r2,1
   20fc0:	e0bffe15 	stw	r2,-8(fp)
   20fc4:	e0bfff17 	ldw	r2,-4(fp)
   20fc8:	103fcd1e 	bne	r2,zero,20f00 <_ZN11SPI_Handler9WriteDataEPhm+0x74>
   20fcc:	e0bffa17 	ldw	r2,-24(fp)
   20fd0:	10800404 	addi	r2,r2,16
   20fd4:	e0fffc17 	ldw	r3,-16(fp)
   20fd8:	18bfc91e 	bne	r3,r2,20f00 <_ZN11SPI_Handler9WriteDataEPhm+0x74>
   20fdc:	e0bffa17 	ldw	r2,-24(fp)
   20fe0:	10800117 	ldw	r2,4(r2)
   20fe4:	10800204 	addi	r2,r2,8
   20fe8:	10800037 	ldwio	r2,0(r2)
   20fec:	e0bffb15 	stw	r2,-20(fp)
   20ff0:	e0bffb17 	ldw	r2,-20(fp)
   20ff4:	1080080c 	andi	r2,r2,32
   20ff8:	1000011e 	bne	r2,zero,21000 <_ZN11SPI_Handler9WriteDataEPhm+0x174>
   20ffc:	003ff706 	br	20fdc <_ZN11SPI_Handler9WriteDataEPhm+0x150>
   21000:	e0bff817 	ldw	r2,-32(fp)
   21004:	e037883a 	mov	sp,fp
   21008:	df000017 	ldw	fp,0(sp)
   2100c:	dec00104 	addi	sp,sp,4
   21010:	f800283a 	ret

00021014 <_ZN11SPI_Handler12TransferDataEPhm>:
   21014:	defff804 	addi	sp,sp,-32
   21018:	dfc00715 	stw	ra,28(sp)
   2101c:	df000615 	stw	fp,24(sp)
   21020:	df000604 	addi	fp,sp,24
   21024:	e13fff15 	stw	r4,-4(fp)
   21028:	e17ffe15 	stw	r5,-8(fp)
   2102c:	e1bffd15 	stw	r6,-12(fp)
   21030:	e0bfff17 	ldw	r2,-4(fp)
   21034:	11000117 	ldw	r4,4(r2)
   21038:	e0bfff17 	ldw	r2,-4(fp)
   2103c:	11400217 	ldw	r5,8(r2)
   21040:	e0bfff17 	ldw	r2,-4(fp)
   21044:	10800404 	addi	r2,r2,16
   21048:	00c00044 	movi	r3,1
   2104c:	d8c00215 	stw	r3,8(sp)
   21050:	d8800115 	stw	r2,4(sp)
   21054:	e0bffd17 	ldw	r2,-12(fp)
   21058:	d8800015 	stw	r2,0(sp)
   2105c:	e1fffe17 	ldw	r7,-8(fp)
   21060:	e1bffd17 	ldw	r6,-12(fp)
   21064:	002358c0 	call	2358c <alt_avalon_spi_command>
   21068:	1007883a 	mov	r3,r2
   2106c:	e0bfff17 	ldw	r2,-4(fp)
   21070:	10c00315 	stw	r3,12(r2)
   21074:	e0bfff17 	ldw	r2,-4(fp)
   21078:	10800317 	ldw	r2,12(r2)
   2107c:	e037883a 	mov	sp,fp
   21080:	dfc00117 	ldw	ra,4(sp)
   21084:	df000017 	ldw	fp,0(sp)
   21088:	dec00204 	addi	sp,sp,8
   2108c:	f800283a 	ret

00021090 <_ZN11SPI_Handler12TransferDataEPhS0_m>:
   21090:	defff704 	addi	sp,sp,-36
   21094:	dfc00815 	stw	ra,32(sp)
   21098:	df000715 	stw	fp,28(sp)
   2109c:	df000704 	addi	fp,sp,28
   210a0:	e13fff15 	stw	r4,-4(fp)
   210a4:	e17ffe15 	stw	r5,-8(fp)
   210a8:	e1bffd15 	stw	r6,-12(fp)
   210ac:	e1fffc15 	stw	r7,-16(fp)
   210b0:	e0bfff17 	ldw	r2,-4(fp)
   210b4:	10c00117 	ldw	r3,4(r2)
   210b8:	e0bfff17 	ldw	r2,-4(fp)
   210bc:	11000217 	ldw	r4,8(r2)
   210c0:	00800044 	movi	r2,1
   210c4:	d8800215 	stw	r2,8(sp)
   210c8:	e0bffd17 	ldw	r2,-12(fp)
   210cc:	d8800115 	stw	r2,4(sp)
   210d0:	e0bffc17 	ldw	r2,-16(fp)
   210d4:	d8800015 	stw	r2,0(sp)
   210d8:	e1fffe17 	ldw	r7,-8(fp)
   210dc:	e1bffc17 	ldw	r6,-16(fp)
   210e0:	200b883a 	mov	r5,r4
   210e4:	1809883a 	mov	r4,r3
   210e8:	002358c0 	call	2358c <alt_avalon_spi_command>
   210ec:	1007883a 	mov	r3,r2
   210f0:	e0bfff17 	ldw	r2,-4(fp)
   210f4:	10c00315 	stw	r3,12(r2)
   210f8:	e0bfff17 	ldw	r2,-4(fp)
   210fc:	10800317 	ldw	r2,12(r2)
   21100:	e037883a 	mov	sp,fp
   21104:	dfc00117 	ldw	ra,4(sp)
   21108:	df000017 	ldw	fp,0(sp)
   2110c:	dec00204 	addi	sp,sp,8
   21110:	f800283a 	ret

00021114 <_ZN11SPI_Handler12TransferDataEPhmS0_m>:
   21114:	defff704 	addi	sp,sp,-36
   21118:	dfc00815 	stw	ra,32(sp)
   2111c:	df000715 	stw	fp,28(sp)
   21120:	df000704 	addi	fp,sp,28
   21124:	e13fff15 	stw	r4,-4(fp)
   21128:	e17ffe15 	stw	r5,-8(fp)
   2112c:	e1bffd15 	stw	r6,-12(fp)
   21130:	e1fffc15 	stw	r7,-16(fp)
   21134:	e0bfff17 	ldw	r2,-4(fp)
   21138:	10c00117 	ldw	r3,4(r2)
   2113c:	e0bfff17 	ldw	r2,-4(fp)
   21140:	11000217 	ldw	r4,8(r2)
   21144:	00800044 	movi	r2,1
   21148:	d8800215 	stw	r2,8(sp)
   2114c:	e0bffc17 	ldw	r2,-16(fp)
   21150:	d8800115 	stw	r2,4(sp)
   21154:	e0800217 	ldw	r2,8(fp)
   21158:	d8800015 	stw	r2,0(sp)
   2115c:	e1fffe17 	ldw	r7,-8(fp)
   21160:	e1bffd17 	ldw	r6,-12(fp)
   21164:	200b883a 	mov	r5,r4
   21168:	1809883a 	mov	r4,r3
   2116c:	002358c0 	call	2358c <alt_avalon_spi_command>
   21170:	1007883a 	mov	r3,r2
   21174:	e0bfff17 	ldw	r2,-4(fp)
   21178:	10c00315 	stw	r3,12(r2)
   2117c:	e0bfff17 	ldw	r2,-4(fp)
   21180:	10800317 	ldw	r2,12(r2)
   21184:	e037883a 	mov	sp,fp
   21188:	dfc00117 	ldw	ra,4(sp)
   2118c:	df000017 	ldw	fp,0(sp)
   21190:	dec00204 	addi	sp,sp,8
   21194:	f800283a 	ret

00021198 <_ZN11SPI_Handler8ReadDataEPhS0_m>:
   21198:	defff704 	addi	sp,sp,-36
   2119c:	dfc00815 	stw	ra,32(sp)
   211a0:	df000715 	stw	fp,28(sp)
   211a4:	df000704 	addi	fp,sp,28
   211a8:	e13fff15 	stw	r4,-4(fp)
   211ac:	e17ffe15 	stw	r5,-8(fp)
   211b0:	e1bffd15 	stw	r6,-12(fp)
   211b4:	e1fffc15 	stw	r7,-16(fp)
   211b8:	e0bfff17 	ldw	r2,-4(fp)
   211bc:	10c00117 	ldw	r3,4(r2)
   211c0:	e0bfff17 	ldw	r2,-4(fp)
   211c4:	11000217 	ldw	r4,8(r2)
   211c8:	00800044 	movi	r2,1
   211cc:	d8800215 	stw	r2,8(sp)
   211d0:	e0bffd17 	ldw	r2,-12(fp)
   211d4:	d8800115 	stw	r2,4(sp)
   211d8:	e0bffc17 	ldw	r2,-16(fp)
   211dc:	d8800015 	stw	r2,0(sp)
   211e0:	e1fffe17 	ldw	r7,-8(fp)
   211e4:	01800044 	movi	r6,1
   211e8:	200b883a 	mov	r5,r4
   211ec:	1809883a 	mov	r4,r3
   211f0:	002358c0 	call	2358c <alt_avalon_spi_command>
   211f4:	1007883a 	mov	r3,r2
   211f8:	e0bfff17 	ldw	r2,-4(fp)
   211fc:	10c00315 	stw	r3,12(r2)
   21200:	e0bfff17 	ldw	r2,-4(fp)
   21204:	10800317 	ldw	r2,12(r2)
   21208:	e037883a 	mov	sp,fp
   2120c:	dfc00117 	ldw	ra,4(sp)
   21210:	df000017 	ldw	fp,0(sp)
   21214:	dec00204 	addi	sp,sp,8
   21218:	f800283a 	ret

0002121c <_ZN11SPI_Handler8ReadDataEPhm>:
   2121c:	defff604 	addi	sp,sp,-40
   21220:	df000915 	stw	fp,36(sp)
   21224:	df000904 	addi	fp,sp,36
   21228:	e13ff915 	stw	r4,-28(fp)
   2122c:	e17ff815 	stw	r5,-32(fp)
   21230:	e1bff715 	stw	r6,-36(fp)
   21234:	e0fff817 	ldw	r3,-32(fp)
   21238:	e0bff717 	ldw	r2,-36(fp)
   2123c:	1885883a 	add	r2,r3,r2
   21240:	e0bffc15 	stw	r2,-16(fp)
   21244:	e0bff717 	ldw	r2,-36(fp)
   21248:	e0bfff15 	stw	r2,-4(fp)
   2124c:	e03ffe15 	stw	zero,-8(fp)
   21250:	00800044 	movi	r2,1
   21254:	e0bffd15 	stw	r2,-12(fp)
   21258:	e0bff917 	ldw	r2,-28(fp)
   2125c:	10800117 	ldw	r2,4(r2)
   21260:	10800504 	addi	r2,r2,20
   21264:	1009883a 	mov	r4,r2
   21268:	e0bff917 	ldw	r2,-28(fp)
   2126c:	10800217 	ldw	r2,8(r2)
   21270:	00c00044 	movi	r3,1
   21274:	1884983a 	sll	r2,r3,r2
   21278:	20800035 	stwio	r2,0(r4)
   2127c:	e0bff917 	ldw	r2,-28(fp)
   21280:	10800117 	ldw	r2,4(r2)
   21284:	10800037 	ldwio	r2,0(r2)
   21288:	e0bff917 	ldw	r2,-28(fp)
   2128c:	10800117 	ldw	r2,4(r2)
   21290:	10800204 	addi	r2,r2,8
   21294:	10800037 	ldwio	r2,0(r2)
   21298:	e0bffb15 	stw	r2,-20(fp)
   2129c:	e0bffb17 	ldw	r2,-20(fp)
   212a0:	1080100c 	andi	r2,r2,64
   212a4:	10000226 	beq	r2,zero,212b0 <_ZN11SPI_Handler8ReadDataEPhm+0x94>
   212a8:	e0bffd17 	ldw	r2,-12(fp)
   212ac:	1000041e 	bne	r2,zero,212c0 <_ZN11SPI_Handler8ReadDataEPhm+0xa4>
   212b0:	e0bffb17 	ldw	r2,-20(fp)
   212b4:	1080200c 	andi	r2,r2,128
   212b8:	1000011e 	bne	r2,zero,212c0 <_ZN11SPI_Handler8ReadDataEPhm+0xa4>
   212bc:	003ff206 	br	21288 <_ZN11SPI_Handler8ReadDataEPhm+0x6c>
   212c0:	e0bffb17 	ldw	r2,-20(fp)
   212c4:	1080100c 	andi	r2,r2,64
   212c8:	10001226 	beq	r2,zero,21314 <_ZN11SPI_Handler8ReadDataEPhm+0xf8>
   212cc:	e0bffd17 	ldw	r2,-12(fp)
   212d0:	0080100e 	bge	zero,r2,21314 <_ZN11SPI_Handler8ReadDataEPhm+0xf8>
   212d4:	e0bffd17 	ldw	r2,-12(fp)
   212d8:	10bfffc4 	addi	r2,r2,-1
   212dc:	e0bffd15 	stw	r2,-12(fp)
   212e0:	e0bfff17 	ldw	r2,-4(fp)
   212e4:	10000926 	beq	r2,zero,2130c <_ZN11SPI_Handler8ReadDataEPhm+0xf0>
   212e8:	e0bfff17 	ldw	r2,-4(fp)
   212ec:	10bfffc4 	addi	r2,r2,-1
   212f0:	e0bfff15 	stw	r2,-4(fp)
   212f4:	e0bff917 	ldw	r2,-28(fp)
   212f8:	10800117 	ldw	r2,4(r2)
   212fc:	10800104 	addi	r2,r2,4
   21300:	0007883a 	mov	r3,zero
   21304:	10c00035 	stwio	r3,0(r2)
   21308:	00000206 	br	21314 <_ZN11SPI_Handler8ReadDataEPhm+0xf8>
   2130c:	00bf0004 	movi	r2,-1024
   21310:	e0bffd15 	stw	r2,-12(fp)
   21314:	e0bffb17 	ldw	r2,-20(fp)
   21318:	1080200c 	andi	r2,r2,128
   2131c:	103fda26 	beq	r2,zero,21288 <_ZN11SPI_Handler8ReadDataEPhm+0x6c>
   21320:	e0bff917 	ldw	r2,-28(fp)
   21324:	10800117 	ldw	r2,4(r2)
   21328:	10800037 	ldwio	r2,0(r2)
   2132c:	e0bffa15 	stw	r2,-24(fp)
   21330:	e0bffe17 	ldw	r2,-8(fp)
   21334:	10000426 	beq	r2,zero,21348 <_ZN11SPI_Handler8ReadDataEPhm+0x12c>
   21338:	e0bffe17 	ldw	r2,-8(fp)
   2133c:	10bfffc4 	addi	r2,r2,-1
   21340:	e0bffe15 	stw	r2,-8(fp)
   21344:	00000506 	br	2135c <_ZN11SPI_Handler8ReadDataEPhm+0x140>
   21348:	e0bff817 	ldw	r2,-32(fp)
   2134c:	10c00044 	addi	r3,r2,1
   21350:	e0fff815 	stw	r3,-32(fp)
   21354:	e0fffa17 	ldw	r3,-24(fp)
   21358:	10c00005 	stb	r3,0(r2)
   2135c:	e0bffd17 	ldw	r2,-12(fp)
   21360:	10800044 	addi	r2,r2,1
   21364:	e0bffd15 	stw	r2,-12(fp)
   21368:	e0bffe17 	ldw	r2,-8(fp)
   2136c:	103fc61e 	bne	r2,zero,21288 <_ZN11SPI_Handler8ReadDataEPhm+0x6c>
   21370:	e0fff817 	ldw	r3,-32(fp)
   21374:	e0bffc17 	ldw	r2,-16(fp)
   21378:	18bfc31e 	bne	r3,r2,21288 <_ZN11SPI_Handler8ReadDataEPhm+0x6c>
   2137c:	e0bff917 	ldw	r2,-28(fp)
   21380:	10800117 	ldw	r2,4(r2)
   21384:	10800204 	addi	r2,r2,8
   21388:	10800037 	ldwio	r2,0(r2)
   2138c:	e0bffb15 	stw	r2,-20(fp)
   21390:	e0bffb17 	ldw	r2,-20(fp)
   21394:	1080080c 	andi	r2,r2,32
   21398:	1000011e 	bne	r2,zero,213a0 <_ZN11SPI_Handler8ReadDataEPhm+0x184>
   2139c:	003ff706 	br	2137c <_ZN11SPI_Handler8ReadDataEPhm+0x160>
   213a0:	e0bff717 	ldw	r2,-36(fp)
   213a4:	e037883a 	mov	sp,fp
   213a8:	df000017 	ldw	fp,0(sp)
   213ac:	dec00104 	addi	sp,sp,4
   213b0:	f800283a 	ret

000213b4 <_ZNK10__cxxabiv117__class_type_info11__do_upcastEPKS0_PPv>:
   213b4:	20800017 	ldw	r2,0(r4)
   213b8:	defffa04 	addi	sp,sp,-24
   213bc:	dc000415 	stw	r16,16(sp)
   213c0:	10800617 	ldw	r2,24(r2)
   213c4:	3021883a 	mov	r16,r6
   213c8:	31800017 	ldw	r6,0(r6)
   213cc:	00c00404 	movi	r3,16
   213d0:	dfc00515 	stw	ra,20(sp)
   213d4:	d8000015 	stw	zero,0(sp)
   213d8:	d8000115 	stw	zero,4(sp)
   213dc:	d8c00215 	stw	r3,8(sp)
   213e0:	d8000315 	stw	zero,12(sp)
   213e4:	d80f883a 	mov	r7,sp
   213e8:	103ee83a 	callr	r2
   213ec:	d8800117 	ldw	r2,4(sp)
   213f0:	1080018c 	andi	r2,r2,6
   213f4:	10800198 	cmpnei	r2,r2,6
   213f8:	1000071e 	bne	r2,zero,21418 <_ZNK10__cxxabiv117__class_type_info11__do_upcastEPKS0_PPv+0x64>
   213fc:	d8c00017 	ldw	r3,0(sp)
   21400:	00800044 	movi	r2,1
   21404:	80c00015 	stw	r3,0(r16)
   21408:	dfc00517 	ldw	ra,20(sp)
   2140c:	dc000417 	ldw	r16,16(sp)
   21410:	dec00604 	addi	sp,sp,24
   21414:	f800283a 	ret
   21418:	0005883a 	mov	r2,zero
   2141c:	dfc00517 	ldw	ra,20(sp)
   21420:	dc000417 	ldw	r16,16(sp)
   21424:	dec00604 	addi	sp,sp,24
   21428:	f800283a 	ret

0002142c <_ZNK10__cxxabiv117__class_type_info20__do_find_public_srcEiPKvPKS0_S2_>:
   2142c:	d8c00017 	ldw	r3,0(sp)
   21430:	00800044 	movi	r2,1
   21434:	19800126 	beq	r3,r6,2143c <_ZNK10__cxxabiv117__class_type_info20__do_find_public_srcEiPKvPKS0_S2_+0x10>
   21438:	f800283a 	ret
   2143c:	00800184 	movi	r2,6
   21440:	f800283a 	ret

00021444 <_ZN10__cxxabiv117__class_type_infoD1Ev>:
   21444:	008000b4 	movhi	r2,2
   21448:	10949004 	addi	r2,r2,21056
   2144c:	20800015 	stw	r2,0(r4)
   21450:	00219301 	jmpi	21930 <_ZNSt9type_infoD1Ev>

00021454 <_ZN10__cxxabiv117__class_type_infoD0Ev>:
   21454:	defffe04 	addi	sp,sp,-8
   21458:	008000b4 	movhi	r2,2
   2145c:	dc000015 	stw	r16,0(sp)
   21460:	dfc00115 	stw	ra,4(sp)
   21464:	10949004 	addi	r2,r2,21056
   21468:	20800015 	stw	r2,0(r4)
   2146c:	2021883a 	mov	r16,r4
   21470:	00219300 	call	21930 <_ZNSt9type_infoD1Ev>
   21474:	01400204 	movi	r5,8
   21478:	8009883a 	mov	r4,r16
   2147c:	dfc00117 	ldw	ra,4(sp)
   21480:	dc000017 	ldw	r16,0(sp)
   21484:	dec00204 	addi	sp,sp,8
   21488:	00216641 	jmpi	21664 <_ZdlPvj>

0002148c <_ZNK10__cxxabiv117__class_type_info12__do_dyncastEiNS0_10__sub_kindEPKS0_PKvS3_S5_RNS0_16__dyncast_resultE>:
   2148c:	defffa04 	addi	sp,sp,-24
   21490:	dc800415 	stw	r18,16(sp)
   21494:	d8800817 	ldw	r2,32(sp)
   21498:	dc800617 	ldw	r18,24(sp)
   2149c:	dc400315 	stw	r17,12(sp)
   214a0:	dc000215 	stw	r16,8(sp)
   214a4:	dfc00515 	stw	ra,20(sp)
   214a8:	dc400917 	ldw	r17,36(sp)
   214ac:	21000117 	ldw	r4,4(r4)
   214b0:	3021883a 	mov	r16,r6
   214b4:	90801226 	beq	r18,r2,21500 <_ZNK10__cxxabiv117__class_type_info12__do_dyncastEiNS0_10__sub_kindEPKS0_PKvS3_S5_RNS0_16__dyncast_resultE+0x74>
   214b8:	39400117 	ldw	r5,4(r7)
   214bc:	29000526 	beq	r5,r4,214d4 <_ZNK10__cxxabiv117__class_type_info12__do_dyncastEiNS0_10__sub_kindEPKS0_PKvS3_S5_RNS0_16__dyncast_resultE+0x48>
   214c0:	20800007 	ldb	r2,0(r4)
   214c4:	10800aa0 	cmpeqi	r2,r2,42
   214c8:	1000061e 	bne	r2,zero,214e4 <_ZNK10__cxxabiv117__class_type_info12__do_dyncastEiNS0_10__sub_kindEPKS0_PKvS3_S5_RNS0_16__dyncast_resultE+0x58>
   214cc:	00222dc0 	call	222dc <strcmp>
   214d0:	1000041e 	bne	r2,zero,214e4 <_ZNK10__cxxabiv117__class_type_info12__do_dyncastEiNS0_10__sub_kindEPKS0_PKvS3_S5_RNS0_16__dyncast_resultE+0x58>
   214d4:	00800044 	movi	r2,1
   214d8:	8c800015 	stw	r18,0(r17)
   214dc:	8c000115 	stw	r16,4(r17)
   214e0:	88800315 	stw	r2,12(r17)
   214e4:	0005883a 	mov	r2,zero
   214e8:	dfc00517 	ldw	ra,20(sp)
   214ec:	dc800417 	ldw	r18,16(sp)
   214f0:	dc400317 	ldw	r17,12(sp)
   214f4:	dc000217 	ldw	r16,8(sp)
   214f8:	dec00604 	addi	sp,sp,24
   214fc:	f800283a 	ret
   21500:	d8800717 	ldw	r2,28(sp)
   21504:	11400117 	ldw	r5,4(r2)
   21508:	29000f26 	beq	r5,r4,21548 <_ZNK10__cxxabiv117__class_type_info12__do_dyncastEiNS0_10__sub_kindEPKS0_PKvS3_S5_RNS0_16__dyncast_resultE+0xbc>
   2150c:	20800007 	ldb	r2,0(r4)
   21510:	10800aa0 	cmpeqi	r2,r2,42
   21514:	1000091e 	bne	r2,zero,2153c <_ZNK10__cxxabiv117__class_type_info12__do_dyncastEiNS0_10__sub_kindEPKS0_PKvS3_S5_RNS0_16__dyncast_resultE+0xb0>
   21518:	d9c00115 	stw	r7,4(sp)
   2151c:	d9000015 	stw	r4,0(sp)
   21520:	00222dc0 	call	222dc <strcmp>
   21524:	10000826 	beq	r2,zero,21548 <_ZNK10__cxxabiv117__class_type_info12__do_dyncastEiNS0_10__sub_kindEPKS0_PKvS3_S5_RNS0_16__dyncast_resultE+0xbc>
   21528:	d9c00117 	ldw	r7,4(sp)
   2152c:	d9000017 	ldw	r4,0(sp)
   21530:	39400117 	ldw	r5,4(r7)
   21534:	217fe51e 	bne	r4,r5,214cc <_ZNK10__cxxabiv117__class_type_info12__do_dyncastEiNS0_10__sub_kindEPKS0_PKvS3_S5_RNS0_16__dyncast_resultE+0x40>
   21538:	003fe606 	br	214d4 <_ZNK10__cxxabiv117__class_type_info12__do_dyncastEiNS0_10__sub_kindEPKS0_PKvS3_S5_RNS0_16__dyncast_resultE+0x48>
   2153c:	38800117 	ldw	r2,4(r7)
   21540:	113fe81e 	bne	r2,r4,214e4 <_ZNK10__cxxabiv117__class_type_info12__do_dyncastEiNS0_10__sub_kindEPKS0_PKvS3_S5_RNS0_16__dyncast_resultE+0x58>
   21544:	003fe306 	br	214d4 <_ZNK10__cxxabiv117__class_type_info12__do_dyncastEiNS0_10__sub_kindEPKS0_PKvS3_S5_RNS0_16__dyncast_resultE+0x48>
   21548:	8c000215 	stw	r16,8(r17)
   2154c:	003fe506 	br	214e4 <_ZNK10__cxxabiv117__class_type_info12__do_dyncastEiNS0_10__sub_kindEPKS0_PKvS3_S5_RNS0_16__dyncast_resultE+0x58>

00021550 <_ZNK10__cxxabiv117__class_type_info11__do_upcastEPKS0_PKvRNS0_15__upcast_resultE>:
   21550:	21000117 	ldw	r4,4(r4)
   21554:	29400117 	ldw	r5,4(r5)
   21558:	defffd04 	addi	sp,sp,-12
   2155c:	dc400115 	stw	r17,4(sp)
   21560:	dc000015 	stw	r16,0(sp)
   21564:	dfc00215 	stw	ra,8(sp)
   21568:	3023883a 	mov	r17,r6
   2156c:	3821883a 	mov	r16,r7
   21570:	21400726 	beq	r4,r5,21590 <_ZNK10__cxxabiv117__class_type_info11__do_upcastEPKS0_PKvRNS0_15__upcast_resultE+0x40>
   21574:	20800007 	ldb	r2,0(r4)
   21578:	10800aa0 	cmpeqi	r2,r2,42
   2157c:	1000021e 	bne	r2,zero,21588 <_ZNK10__cxxabiv117__class_type_info11__do_upcastEPKS0_PKvRNS0_15__upcast_resultE+0x38>
   21580:	00222dc0 	call	222dc <strcmp>
   21584:	10000226 	beq	r2,zero,21590 <_ZNK10__cxxabiv117__class_type_info11__do_upcastEPKS0_PKvRNS0_15__upcast_resultE+0x40>
   21588:	0005883a 	mov	r2,zero
   2158c:	00000606 	br	215a8 <_ZNK10__cxxabiv117__class_type_info11__do_upcastEPKS0_PKvRNS0_15__upcast_resultE+0x58>
   21590:	00800204 	movi	r2,8
   21594:	80800315 	stw	r2,12(r16)
   21598:	00800184 	movi	r2,6
   2159c:	80800115 	stw	r2,4(r16)
   215a0:	84400015 	stw	r17,0(r16)
   215a4:	00800044 	movi	r2,1
   215a8:	dfc00217 	ldw	ra,8(sp)
   215ac:	dc400117 	ldw	r17,4(sp)
   215b0:	dc000017 	ldw	r16,0(sp)
   215b4:	dec00304 	addi	sp,sp,12
   215b8:	f800283a 	ret

000215bc <_ZNK10__cxxabiv117__class_type_info10__do_catchEPKSt9type_infoPPvj>:
   215bc:	defffb04 	addi	sp,sp,-20
   215c0:	dc800215 	stw	r18,8(sp)
   215c4:	dc000015 	stw	r16,0(sp)
   215c8:	2025883a 	mov	r18,r4
   215cc:	2821883a 	mov	r16,r5
   215d0:	21000117 	ldw	r4,4(r4)
   215d4:	29400117 	ldw	r5,4(r5)
   215d8:	dfc00415 	stw	ra,16(sp)
   215dc:	dcc00315 	stw	r19,12(sp)
   215e0:	dc400115 	stw	r17,4(sp)
   215e4:	21401526 	beq	r4,r5,2163c <_ZNK10__cxxabiv117__class_type_info10__do_catchEPKSt9type_infoPPvj+0x80>
   215e8:	20800007 	ldb	r2,0(r4)
   215ec:	3027883a 	mov	r19,r6
   215f0:	3823883a 	mov	r17,r7
   215f4:	10800aa0 	cmpeqi	r2,r2,42
   215f8:	1000021e 	bne	r2,zero,21604 <_ZNK10__cxxabiv117__class_type_info10__do_catchEPKSt9type_infoPPvj+0x48>
   215fc:	00222dc0 	call	222dc <strcmp>
   21600:	10000e26 	beq	r2,zero,2163c <_ZNK10__cxxabiv117__class_type_info10__do_catchEPKSt9type_infoPPvj+0x80>
   21604:	89c00128 	cmpgeui	r7,r17,4
   21608:	3800141e 	bne	r7,zero,2165c <_ZNK10__cxxabiv117__class_type_info10__do_catchEPKSt9type_infoPPvj+0xa0>
   2160c:	80800017 	ldw	r2,0(r16)
   21610:	980d883a 	mov	r6,r19
   21614:	900b883a 	mov	r5,r18
   21618:	10800517 	ldw	r2,20(r2)
   2161c:	8009883a 	mov	r4,r16
   21620:	dfc00417 	ldw	ra,16(sp)
   21624:	dcc00317 	ldw	r19,12(sp)
   21628:	dc800217 	ldw	r18,8(sp)
   2162c:	dc400117 	ldw	r17,4(sp)
   21630:	dc000017 	ldw	r16,0(sp)
   21634:	dec00504 	addi	sp,sp,20
   21638:	1000683a 	jmp	r2
   2163c:	00800044 	movi	r2,1
   21640:	dfc00417 	ldw	ra,16(sp)
   21644:	dcc00317 	ldw	r19,12(sp)
   21648:	dc800217 	ldw	r18,8(sp)
   2164c:	dc400117 	ldw	r17,4(sp)
   21650:	dc000017 	ldw	r16,0(sp)
   21654:	dec00504 	addi	sp,sp,20
   21658:	f800283a 	ret
   2165c:	0005883a 	mov	r2,zero
   21660:	003ff706 	br	21640 <_ZNK10__cxxabiv117__class_type_info10__do_catchEPKSt9type_infoPPvj+0x84>

00021664 <_ZdlPvj>:
   21664:	00219901 	jmpi	21990 <_ZdlPv>

00021668 <_ZN10__cxxabiv120__si_class_type_infoD1Ev>:
   21668:	008000b4 	movhi	r2,2
   2166c:	1094a804 	addi	r2,r2,21152
   21670:	20800015 	stw	r2,0(r4)
   21674:	00214441 	jmpi	21444 <_ZN10__cxxabiv117__class_type_infoD1Ev>

00021678 <_ZN10__cxxabiv120__si_class_type_infoD0Ev>:
   21678:	defffe04 	addi	sp,sp,-8
   2167c:	008000b4 	movhi	r2,2
   21680:	dc000015 	stw	r16,0(sp)
   21684:	dfc00115 	stw	ra,4(sp)
   21688:	1094a804 	addi	r2,r2,21152
   2168c:	20800015 	stw	r2,0(r4)
   21690:	2021883a 	mov	r16,r4
   21694:	00214440 	call	21444 <_ZN10__cxxabiv117__class_type_infoD1Ev>
   21698:	01400304 	movi	r5,12
   2169c:	8009883a 	mov	r4,r16
   216a0:	dfc00117 	ldw	ra,4(sp)
   216a4:	dc000017 	ldw	r16,0(sp)
   216a8:	dec00204 	addi	sp,sp,8
   216ac:	00216641 	jmpi	21664 <_ZdlPvj>

000216b0 <_ZNK10__cxxabiv120__si_class_type_info20__do_find_public_srcEiPKvPKNS_17__class_type_infoES2_>:
   216b0:	defffa04 	addi	sp,sp,-24
   216b4:	dc800415 	stw	r18,16(sp)
   216b8:	dc800617 	ldw	r18,24(sp)
   216bc:	dc400315 	stw	r17,12(sp)
   216c0:	dc000215 	stw	r16,8(sp)
   216c4:	dfc00515 	stw	ra,20(sp)
   216c8:	2021883a 	mov	r16,r4
   216cc:	2823883a 	mov	r17,r5
   216d0:	91800b26 	beq	r18,r6,21700 <_ZNK10__cxxabiv120__si_class_type_info20__do_find_public_srcEiPKvPKNS_17__class_type_infoES2_+0x50>
   216d4:	81000217 	ldw	r4,8(r16)
   216d8:	880b883a 	mov	r5,r17
   216dc:	20800017 	ldw	r2,0(r4)
   216e0:	dc800615 	stw	r18,24(sp)
   216e4:	10800817 	ldw	r2,32(r2)
   216e8:	dfc00517 	ldw	ra,20(sp)
   216ec:	dc800417 	ldw	r18,16(sp)
   216f0:	dc400317 	ldw	r17,12(sp)
   216f4:	dc000217 	ldw	r16,8(sp)
   216f8:	dec00604 	addi	sp,sp,24
   216fc:	1000683a 	jmp	r2
   21700:	21000117 	ldw	r4,4(r4)
   21704:	39400117 	ldw	r5,4(r7)
   21708:	21400926 	beq	r4,r5,21730 <_ZNK10__cxxabiv120__si_class_type_info20__do_find_public_srcEiPKvPKNS_17__class_type_infoES2_+0x80>
   2170c:	20800007 	ldb	r2,0(r4)
   21710:	10800aa0 	cmpeqi	r2,r2,42
   21714:	103fef1e 	bne	r2,zero,216d4 <_ZNK10__cxxabiv120__si_class_type_info20__do_find_public_srcEiPKvPKNS_17__class_type_infoES2_+0x24>
   21718:	d9c00115 	stw	r7,4(sp)
   2171c:	d9800015 	stw	r6,0(sp)
   21720:	00222dc0 	call	222dc <strcmp>
   21724:	d9800017 	ldw	r6,0(sp)
   21728:	d9c00117 	ldw	r7,4(sp)
   2172c:	103fe91e 	bne	r2,zero,216d4 <_ZNK10__cxxabiv120__si_class_type_info20__do_find_public_srcEiPKvPKNS_17__class_type_infoES2_+0x24>
   21730:	00800184 	movi	r2,6
   21734:	dfc00517 	ldw	ra,20(sp)
   21738:	dc800417 	ldw	r18,16(sp)
   2173c:	dc400317 	ldw	r17,12(sp)
   21740:	dc000217 	ldw	r16,8(sp)
   21744:	dec00604 	addi	sp,sp,24
   21748:	f800283a 	ret

0002174c <_ZNK10__cxxabiv120__si_class_type_info12__do_dyncastEiNS_17__class_type_info10__sub_kindEPKS1_PKvS4_S6_RNS1_16__dyncast_resultE>:
   2174c:	defff504 	addi	sp,sp,-44
   21750:	dcc00415 	stw	r19,16(sp)
   21754:	38800117 	ldw	r2,4(r7)
   21758:	24c00117 	ldw	r19,4(r4)
   2175c:	df000915 	stw	fp,36(sp)
   21760:	ddc00815 	stw	r23,32(sp)
   21764:	dd800715 	stw	r22,28(sp)
   21768:	dd400615 	stw	r21,24(sp)
   2176c:	dc000115 	stw	r16,4(sp)
   21770:	dfc00a15 	stw	ra,40(sp)
   21774:	dd000515 	stw	r20,20(sp)
   21778:	dc800315 	stw	r18,12(sp)
   2177c:	dc400215 	stw	r17,8(sp)
   21780:	dd800b17 	ldw	r22,44(sp)
   21784:	df000c17 	ldw	fp,48(sp)
   21788:	ddc00d17 	ldw	r23,52(sp)
   2178c:	dd400e17 	ldw	r21,56(sp)
   21790:	2821883a 	mov	r16,r5
   21794:	98802126 	beq	r19,r2,2181c <_ZNK10__cxxabiv120__si_class_type_info12__do_dyncastEiNS_17__class_type_info10__sub_kindEPKS1_PKvS4_S6_RNS1_16__dyncast_resultE+0xd0>
   21798:	9d000007 	ldb	r20,0(r19)
   2179c:	2025883a 	mov	r18,r4
   217a0:	3823883a 	mov	r17,r7
   217a4:	a0c00aa0 	cmpeqi	r3,r20,42
   217a8:	1800061e 	bne	r3,zero,217c4 <_ZNK10__cxxabiv120__si_class_type_info12__do_dyncastEiNS_17__class_type_info10__sub_kindEPKS1_PKvS4_S6_RNS1_16__dyncast_resultE+0x78>
   217ac:	100b883a 	mov	r5,r2
   217b0:	9809883a 	mov	r4,r19
   217b4:	d9800015 	stw	r6,0(sp)
   217b8:	00222dc0 	call	222dc <strcmp>
   217bc:	d9800017 	ldw	r6,0(sp)
   217c0:	10001626 	beq	r2,zero,2181c <_ZNK10__cxxabiv120__si_class_type_info12__do_dyncastEiNS_17__class_type_info10__sub_kindEPKS1_PKvS4_S6_RNS1_16__dyncast_resultE+0xd0>
   217c4:	b5c02c26 	beq	r22,r23,21878 <_ZNK10__cxxabiv120__si_class_type_info12__do_dyncastEiNS_17__class_type_info10__sub_kindEPKS1_PKvS4_S6_RNS1_16__dyncast_resultE+0x12c>
   217c8:	91000217 	ldw	r4,8(r18)
   217cc:	880f883a 	mov	r7,r17
   217d0:	800b883a 	mov	r5,r16
   217d4:	20800017 	ldw	r2,0(r4)
   217d8:	dd400e15 	stw	r21,56(sp)
   217dc:	ddc00d15 	stw	r23,52(sp)
   217e0:	df000c15 	stw	fp,48(sp)
   217e4:	dd800b15 	stw	r22,44(sp)
   217e8:	10800717 	ldw	r2,28(r2)
   217ec:	dfc00a17 	ldw	ra,40(sp)
   217f0:	df000917 	ldw	fp,36(sp)
   217f4:	ddc00817 	ldw	r23,32(sp)
   217f8:	dd800717 	ldw	r22,28(sp)
   217fc:	dd400617 	ldw	r21,24(sp)
   21800:	dd000517 	ldw	r20,20(sp)
   21804:	dcc00417 	ldw	r19,16(sp)
   21808:	dc800317 	ldw	r18,12(sp)
   2180c:	dc400217 	ldw	r17,8(sp)
   21810:	dc000117 	ldw	r16,4(sp)
   21814:	dec00b04 	addi	sp,sp,44
   21818:	1000683a 	jmp	r2
   2181c:	ad800015 	stw	r22,0(r21)
   21820:	a9800115 	stw	r6,4(r21)
   21824:	80001116 	blt	r16,zero,2186c <_ZNK10__cxxabiv120__si_class_type_info12__do_dyncastEiNS_17__class_type_info10__sub_kindEPKS1_PKvS4_S6_RNS1_16__dyncast_resultE+0x120>
   21828:	b421883a 	add	r16,r22,r16
   2182c:	bc001d26 	beq	r23,r16,218a4 <_ZNK10__cxxabiv120__si_class_type_info12__do_dyncastEiNS_17__class_type_info10__sub_kindEPKS1_PKvS4_S6_RNS1_16__dyncast_resultE+0x158>
   21830:	00800044 	movi	r2,1
   21834:	a8800315 	stw	r2,12(r21)
   21838:	0005883a 	mov	r2,zero
   2183c:	dfc00a17 	ldw	ra,40(sp)
   21840:	df000917 	ldw	fp,36(sp)
   21844:	ddc00817 	ldw	r23,32(sp)
   21848:	dd800717 	ldw	r22,28(sp)
   2184c:	dd400617 	ldw	r21,24(sp)
   21850:	dd000517 	ldw	r20,20(sp)
   21854:	dcc00417 	ldw	r19,16(sp)
   21858:	dc800317 	ldw	r18,12(sp)
   2185c:	dc400217 	ldw	r17,8(sp)
   21860:	dc000117 	ldw	r16,4(sp)
   21864:	dec00b04 	addi	sp,sp,44
   21868:	f800283a 	ret
   2186c:	843fff98 	cmpnei	r16,r16,-2
   21870:	803ff11e 	bne	r16,zero,21838 <_ZNK10__cxxabiv120__si_class_type_info12__do_dyncastEiNS_17__class_type_info10__sub_kindEPKS1_PKvS4_S6_RNS1_16__dyncast_resultE+0xec>
   21874:	003fee06 	br	21830 <_ZNK10__cxxabiv120__si_class_type_info12__do_dyncastEiNS_17__class_type_info10__sub_kindEPKS1_PKvS4_S6_RNS1_16__dyncast_resultE+0xe4>
   21878:	e1400117 	ldw	r5,4(fp)
   2187c:	99400726 	beq	r19,r5,2189c <_ZNK10__cxxabiv120__si_class_type_info12__do_dyncastEiNS_17__class_type_info10__sub_kindEPKS1_PKvS4_S6_RNS1_16__dyncast_resultE+0x150>
   21880:	a5000aa0 	cmpeqi	r20,r20,42
   21884:	a03fd01e 	bne	r20,zero,217c8 <_ZNK10__cxxabiv120__si_class_type_info12__do_dyncastEiNS_17__class_type_info10__sub_kindEPKS1_PKvS4_S6_RNS1_16__dyncast_resultE+0x7c>
   21888:	9809883a 	mov	r4,r19
   2188c:	d9800015 	stw	r6,0(sp)
   21890:	00222dc0 	call	222dc <strcmp>
   21894:	d9800017 	ldw	r6,0(sp)
   21898:	103fcb1e 	bne	r2,zero,217c8 <_ZNK10__cxxabiv120__si_class_type_info12__do_dyncastEiNS_17__class_type_info10__sub_kindEPKS1_PKvS4_S6_RNS1_16__dyncast_resultE+0x7c>
   2189c:	a9800215 	stw	r6,8(r21)
   218a0:	003fe506 	br	21838 <_ZNK10__cxxabiv120__si_class_type_info12__do_dyncastEiNS_17__class_type_info10__sub_kindEPKS1_PKvS4_S6_RNS1_16__dyncast_resultE+0xec>
   218a4:	00800184 	movi	r2,6
   218a8:	003fe206 	br	21834 <_ZNK10__cxxabiv120__si_class_type_info12__do_dyncastEiNS_17__class_type_info10__sub_kindEPKS1_PKvS4_S6_RNS1_16__dyncast_resultE+0xe8>

000218ac <_ZNK10__cxxabiv120__si_class_type_info11__do_upcastEPKNS_17__class_type_infoEPKvRNS1_15__upcast_resultE>:
   218ac:	defffb04 	addi	sp,sp,-20
   218b0:	dcc00315 	stw	r19,12(sp)
   218b4:	dc800215 	stw	r18,8(sp)
   218b8:	dc400115 	stw	r17,4(sp)
   218bc:	dc000015 	stw	r16,0(sp)
   218c0:	dfc00415 	stw	ra,16(sp)
   218c4:	2025883a 	mov	r18,r4
   218c8:	2827883a 	mov	r19,r5
   218cc:	3021883a 	mov	r16,r6
   218d0:	3823883a 	mov	r17,r7
   218d4:	00215500 	call	21550 <_ZNK10__cxxabiv117__class_type_info11__do_upcastEPKS0_PKvRNS0_15__upcast_resultE>
   218d8:	10c03fcc 	andi	r3,r2,255
   218dc:	18000d1e 	bne	r3,zero,21914 <_ZNK10__cxxabiv120__si_class_type_info11__do_upcastEPKNS_17__class_type_infoEPKvRNS1_15__upcast_resultE+0x68>
   218e0:	91000217 	ldw	r4,8(r18)
   218e4:	880f883a 	mov	r7,r17
   218e8:	800d883a 	mov	r6,r16
   218ec:	20800017 	ldw	r2,0(r4)
   218f0:	980b883a 	mov	r5,r19
   218f4:	10800617 	ldw	r2,24(r2)
   218f8:	dfc00417 	ldw	ra,16(sp)
   218fc:	dcc00317 	ldw	r19,12(sp)
   21900:	dc800217 	ldw	r18,8(sp)
   21904:	dc400117 	ldw	r17,4(sp)
   21908:	dc000017 	ldw	r16,0(sp)
   2190c:	dec00504 	addi	sp,sp,20
   21910:	1000683a 	jmp	r2
   21914:	dfc00417 	ldw	ra,16(sp)
   21918:	dcc00317 	ldw	r19,12(sp)
   2191c:	dc800217 	ldw	r18,8(sp)
   21920:	dc400117 	ldw	r17,4(sp)
   21924:	dc000017 	ldw	r16,0(sp)
   21928:	dec00504 	addi	sp,sp,20
   2192c:	f800283a 	ret

00021930 <_ZNSt9type_infoD1Ev>:
   21930:	f800283a 	ret

00021934 <_ZNKSt9type_info14__is_pointer_pEv>:
   21934:	0005883a 	mov	r2,zero
   21938:	f800283a 	ret

0002193c <_ZNKSt9type_info11__do_upcastEPKN10__cxxabiv117__class_type_infoEPPv>:
   2193c:	0005883a 	mov	r2,zero
   21940:	f800283a 	ret

00021944 <_ZNSt9type_infoD0Ev>:
   21944:	01400204 	movi	r5,8
   21948:	00216641 	jmpi	21664 <_ZdlPvj>

0002194c <_ZNKSt9type_info10__do_catchEPKS_PPvj>:
   2194c:	21000117 	ldw	r4,4(r4)
   21950:	29400117 	ldw	r5,4(r5)
   21954:	21400c26 	beq	r4,r5,21988 <_ZNKSt9type_info10__do_catchEPKS_PPvj+0x3c>
   21958:	20800007 	ldb	r2,0(r4)
   2195c:	10800aa0 	cmpeqi	r2,r2,42
   21960:	1000071e 	bne	r2,zero,21980 <_ZNKSt9type_info10__do_catchEPKS_PPvj+0x34>
   21964:	deffff04 	addi	sp,sp,-4
   21968:	dfc00015 	stw	ra,0(sp)
   2196c:	00222dc0 	call	222dc <strcmp>
   21970:	1005003a 	cmpeq	r2,r2,zero
   21974:	dfc00017 	ldw	ra,0(sp)
   21978:	dec00104 	addi	sp,sp,4
   2197c:	f800283a 	ret
   21980:	0005883a 	mov	r2,zero
   21984:	f800283a 	ret
   21988:	00800044 	movi	r2,1
   2198c:	f800283a 	ret

00021990 <_ZdlPv>:
   21990:	00219a41 	jmpi	219a4 <free>

00021994 <malloc>:
   21994:	008000b4 	movhi	r2,2
   21998:	200b883a 	mov	r5,r4
   2199c:	111b6017 	ldw	r4,28032(r2)
   219a0:	00219b41 	jmpi	219b4 <_malloc_r>

000219a4 <free>:
   219a4:	008000b4 	movhi	r2,2
   219a8:	200b883a 	mov	r5,r4
   219ac:	111b6017 	ldw	r4,28032(r2)
   219b0:	00224b01 	jmpi	224b0 <_free_r>

000219b4 <_malloc_r>:
   219b4:	defff604 	addi	sp,sp,-40
   219b8:	dc400115 	stw	r17,4(sp)
   219bc:	2c4002c4 	addi	r17,r5,11
   219c0:	dc800215 	stw	r18,8(sp)
   219c4:	dfc00915 	stw	ra,36(sp)
   219c8:	df000815 	stw	fp,32(sp)
   219cc:	ddc00715 	stw	r23,28(sp)
   219d0:	dd800615 	stw	r22,24(sp)
   219d4:	dd400515 	stw	r21,20(sp)
   219d8:	dd000415 	stw	r20,16(sp)
   219dc:	dcc00315 	stw	r19,12(sp)
   219e0:	dc000015 	stw	r16,0(sp)
   219e4:	888005e8 	cmpgeui	r2,r17,23
   219e8:	2025883a 	mov	r18,r4
   219ec:	10001b1e 	bne	r2,zero,21a5c <_malloc_r+0xa8>
   219f0:	29400468 	cmpgeui	r5,r5,17
   219f4:	2800821e 	bne	r5,zero,21c00 <_malloc_r+0x24c>
   219f8:	00229140 	call	22914 <__malloc_lock>
   219fc:	04400404 	movi	r17,16
   21a00:	01c00084 	movi	r7,2
   21a04:	00800604 	movi	r2,24
   21a08:	04c000b4 	movhi	r19,2
   21a0c:	9cd4ca04 	addi	r19,r19,21288
   21a10:	9885883a 	add	r2,r19,r2
   21a14:	14000117 	ldw	r16,4(r2)
   21a18:	10fffe04 	addi	r3,r2,-8
   21a1c:	80c08b26 	beq	r16,r3,21c4c <_malloc_r+0x298>
   21a20:	80800117 	ldw	r2,4(r16)
   21a24:	81000317 	ldw	r4,12(r16)
   21a28:	00ffff04 	movi	r3,-4
   21a2c:	10c4703a 	and	r2,r2,r3
   21a30:	81400217 	ldw	r5,8(r16)
   21a34:	8085883a 	add	r2,r16,r2
   21a38:	10c00117 	ldw	r3,4(r2)
   21a3c:	29000315 	stw	r4,12(r5)
   21a40:	21400215 	stw	r5,8(r4)
   21a44:	18c00054 	ori	r3,r3,1
   21a48:	10c00115 	stw	r3,4(r2)
   21a4c:	9009883a 	mov	r4,r18
   21a50:	00229380 	call	22938 <__malloc_unlock>
   21a54:	80800204 	addi	r2,r16,8
   21a58:	00006c06 	br	21c0c <_malloc_r+0x258>
   21a5c:	00bffe04 	movi	r2,-8
   21a60:	88a2703a 	and	r17,r17,r2
   21a64:	88006616 	blt	r17,zero,21c00 <_malloc_r+0x24c>
   21a68:	89406536 	bltu	r17,r5,21c00 <_malloc_r+0x24c>
   21a6c:	00229140 	call	22914 <__malloc_lock>
   21a70:	88807e28 	cmpgeui	r2,r17,504
   21a74:	10012226 	beq	r2,zero,21f00 <_malloc_r+0x54c>
   21a78:	8804d27a 	srli	r2,r17,9
   21a7c:	10006f26 	beq	r2,zero,21c3c <_malloc_r+0x288>
   21a80:	10c00168 	cmpgeui	r3,r2,5
   21a84:	1800fe1e 	bne	r3,zero,21e80 <_malloc_r+0x4cc>
   21a88:	8804d1ba 	srli	r2,r17,6
   21a8c:	11c00e44 	addi	r7,r2,57
   21a90:	380890fa 	slli	r4,r7,3
   21a94:	12000e04 	addi	r8,r2,56
   21a98:	04c000b4 	movhi	r19,2
   21a9c:	9cd4ca04 	addi	r19,r19,21288
   21aa0:	9909883a 	add	r4,r19,r4
   21aa4:	24000117 	ldw	r16,4(r4)
   21aa8:	213ffe04 	addi	r4,r4,-8
   21aac:	24000b26 	beq	r4,r16,21adc <_malloc_r+0x128>
   21ab0:	01bfff04 	movi	r6,-4
   21ab4:	00000306 	br	21ac4 <_malloc_r+0x110>
   21ab8:	1800d60e 	bge	r3,zero,21e14 <_malloc_r+0x460>
   21abc:	84000317 	ldw	r16,12(r16)
   21ac0:	24000626 	beq	r4,r16,21adc <_malloc_r+0x128>
   21ac4:	80800117 	ldw	r2,4(r16)
   21ac8:	1184703a 	and	r2,r2,r6
   21acc:	1447c83a 	sub	r3,r2,r17
   21ad0:	19400408 	cmpgei	r5,r3,16
   21ad4:	283ff826 	beq	r5,zero,21ab8 <_malloc_r+0x104>
   21ad8:	400f883a 	mov	r7,r8
   21adc:	9c000417 	ldw	r16,16(r19)
   21ae0:	024000b4 	movhi	r9,2
   21ae4:	4a54cc04 	addi	r9,r9,21296
   21ae8:	82405f26 	beq	r16,r9,21c68 <_malloc_r+0x2b4>
   21aec:	80c00117 	ldw	r3,4(r16)
   21af0:	00bfff04 	movi	r2,-4
   21af4:	1884703a 	and	r2,r3,r2
   21af8:	1447c83a 	sub	r3,r2,r17
   21afc:	19000410 	cmplti	r4,r3,16
   21b00:	20010a26 	beq	r4,zero,21f2c <_malloc_r+0x578>
   21b04:	9a400515 	stw	r9,20(r19)
   21b08:	9a400415 	stw	r9,16(r19)
   21b0c:	1800ff0e 	bge	r3,zero,21f0c <_malloc_r+0x558>
   21b10:	10c08028 	cmpgeui	r3,r2,512
   21b14:	1800c11e 	bne	r3,zero,21e1c <_malloc_r+0x468>
   21b18:	1006d0fa 	srli	r3,r2,3
   21b1c:	1008d17a 	srli	r4,r2,5
   21b20:	00800044 	movi	r2,1
   21b24:	18c00044 	addi	r3,r3,1
   21b28:	180690fa 	slli	r3,r3,3
   21b2c:	99400117 	ldw	r5,4(r19)
   21b30:	1104983a 	sll	r2,r2,r4
   21b34:	98c7883a 	add	r3,r19,r3
   21b38:	19000017 	ldw	r4,0(r3)
   21b3c:	1144b03a 	or	r2,r2,r5
   21b40:	197ffe04 	addi	r5,r3,-8
   21b44:	81400315 	stw	r5,12(r16)
   21b48:	81000215 	stw	r4,8(r16)
   21b4c:	98800115 	stw	r2,4(r19)
   21b50:	1c000015 	stw	r16,0(r3)
   21b54:	24000315 	stw	r16,12(r4)
   21b58:	3807d0ba 	srai	r3,r7,2
   21b5c:	01000044 	movi	r4,1
   21b60:	20c8983a 	sll	r4,r4,r3
   21b64:	11004536 	bltu	r2,r4,21c7c <_malloc_r+0x2c8>
   21b68:	2086703a 	and	r3,r4,r2
   21b6c:	18000a1e 	bne	r3,zero,21b98 <_malloc_r+0x1e4>
   21b70:	00ffff04 	movi	r3,-4
   21b74:	2109883a 	add	r4,r4,r4
   21b78:	38ce703a 	and	r7,r7,r3
   21b7c:	2086703a 	and	r3,r4,r2
   21b80:	39c00104 	addi	r7,r7,4
   21b84:	1800041e 	bne	r3,zero,21b98 <_malloc_r+0x1e4>
   21b88:	2109883a 	add	r4,r4,r4
   21b8c:	2086703a 	and	r3,r4,r2
   21b90:	39c00104 	addi	r7,r7,4
   21b94:	183ffc26 	beq	r3,zero,21b88 <_malloc_r+0x1d4>
   21b98:	02bfff04 	movi	r10,-4
   21b9c:	381690fa 	slli	r11,r7,3
   21ba0:	3819883a 	mov	r12,r7
   21ba4:	9ad7883a 	add	r11,r19,r11
   21ba8:	5811883a 	mov	r8,r11
   21bac:	40800317 	ldw	r2,12(r8)
   21bb0:	4080bc26 	beq	r8,r2,21ea4 <_malloc_r+0x4f0>
   21bb4:	10c00117 	ldw	r3,4(r2)
   21bb8:	1021883a 	mov	r16,r2
   21bbc:	10800317 	ldw	r2,12(r2)
   21bc0:	1a86703a 	and	r3,r3,r10
   21bc4:	1c4bc83a 	sub	r5,r3,r17
   21bc8:	29800410 	cmplti	r6,r5,16
   21bcc:	3000ba26 	beq	r6,zero,21eb8 <_malloc_r+0x504>
   21bd0:	283ff716 	blt	r5,zero,21bb0 <_malloc_r+0x1fc>
   21bd4:	80c7883a 	add	r3,r16,r3
   21bd8:	19400117 	ldw	r5,4(r3)
   21bdc:	81800217 	ldw	r6,8(r16)
   21be0:	9009883a 	mov	r4,r18
   21be4:	29400054 	ori	r5,r5,1
   21be8:	19400115 	stw	r5,4(r3)
   21bec:	30800315 	stw	r2,12(r6)
   21bf0:	11800215 	stw	r6,8(r2)
   21bf4:	00229380 	call	22938 <__malloc_unlock>
   21bf8:	80800204 	addi	r2,r16,8
   21bfc:	00000306 	br	21c0c <_malloc_r+0x258>
   21c00:	00800304 	movi	r2,12
   21c04:	90800015 	stw	r2,0(r18)
   21c08:	0005883a 	mov	r2,zero
   21c0c:	dfc00917 	ldw	ra,36(sp)
   21c10:	df000817 	ldw	fp,32(sp)
   21c14:	ddc00717 	ldw	r23,28(sp)
   21c18:	dd800617 	ldw	r22,24(sp)
   21c1c:	dd400517 	ldw	r21,20(sp)
   21c20:	dd000417 	ldw	r20,16(sp)
   21c24:	dcc00317 	ldw	r19,12(sp)
   21c28:	dc800217 	ldw	r18,8(sp)
   21c2c:	dc400117 	ldw	r17,4(sp)
   21c30:	dc000017 	ldw	r16,0(sp)
   21c34:	dec00a04 	addi	sp,sp,40
   21c38:	f800283a 	ret
   21c3c:	01008004 	movi	r4,512
   21c40:	01c01004 	movi	r7,64
   21c44:	02000fc4 	movi	r8,63
   21c48:	003f9306 	br	21a98 <_malloc_r+0xe4>
   21c4c:	14000317 	ldw	r16,12(r2)
   21c50:	39c00084 	addi	r7,r7,2
   21c54:	143f721e 	bne	r2,r16,21a20 <_malloc_r+0x6c>
   21c58:	9c000417 	ldw	r16,16(r19)
   21c5c:	024000b4 	movhi	r9,2
   21c60:	4a54cc04 	addi	r9,r9,21296
   21c64:	827fa11e 	bne	r16,r9,21aec <_malloc_r+0x138>
   21c68:	3807d0ba 	srai	r3,r7,2
   21c6c:	01000044 	movi	r4,1
   21c70:	98800117 	ldw	r2,4(r19)
   21c74:	20c8983a 	sll	r4,r4,r3
   21c78:	113fbb2e 	bgeu	r2,r4,21b68 <_malloc_r+0x1b4>
   21c7c:	9c000217 	ldw	r16,8(r19)
   21c80:	00bfff04 	movi	r2,-4
   21c84:	85400117 	ldw	r21,4(r16)
   21c88:	a8ac703a 	and	r22,r21,r2
   21c8c:	b4400336 	bltu	r22,r17,21c9c <_malloc_r+0x2e8>
   21c90:	b445c83a 	sub	r2,r22,r17
   21c94:	10c00408 	cmpgei	r3,r2,16
   21c98:	1800541e 	bne	r3,zero,21dec <_malloc_r+0x438>
   21c9c:	008000b4 	movhi	r2,2
   21ca0:	109b5d17 	ldw	r2,28020(r2)
   21ca4:	00c000f4 	movhi	r3,3
   21ca8:	1d620e17 	ldw	r21,-30664(r3)
   21cac:	10bfffd8 	cmpnei	r2,r2,-1
   21cb0:	85b9883a 	add	fp,r16,r22
   21cb4:	8d6b883a 	add	r21,r17,r21
   21cb8:	1000d626 	beq	r2,zero,22014 <_malloc_r+0x660>
   21cbc:	ad4403c4 	addi	r21,r21,4111
   21cc0:	00bc0004 	movi	r2,-4096
   21cc4:	a8aa703a 	and	r21,r21,r2
   21cc8:	a80b883a 	mov	r5,r21
   21ccc:	9009883a 	mov	r4,r18
   21cd0:	00222840 	call	22284 <_sbrk_r>
   21cd4:	102f883a 	mov	r23,r2
   21cd8:	10bfffd8 	cmpnei	r2,r2,-1
   21cdc:	1000a826 	beq	r2,zero,21f80 <_malloc_r+0x5cc>
   21ce0:	bf00a636 	bltu	r23,fp,21f7c <_malloc_r+0x5c8>
   21ce4:	008000f4 	movhi	r2,3
   21ce8:	1522a717 	ldw	r20,-30052(r2)
   21cec:	ad29883a 	add	r20,r21,r20
   21cf0:	1522a715 	stw	r20,-30052(r2)
   21cf4:	a007883a 	mov	r3,r20
   21cf8:	e5c0ec26 	beq	fp,r23,220ac <_malloc_r+0x6f8>
   21cfc:	008000b4 	movhi	r2,2
   21d00:	109b5d17 	ldw	r2,28020(r2)
   21d04:	10bfffd8 	cmpnei	r2,r2,-1
   21d08:	1000ef26 	beq	r2,zero,220c8 <_malloc_r+0x714>
   21d0c:	bf39c83a 	sub	fp,r23,fp
   21d10:	e0c7883a 	add	r3,fp,r3
   21d14:	008000f4 	movhi	r2,3
   21d18:	10e2a715 	stw	r3,-30052(r2)
   21d1c:	bf0001cc 	andi	fp,r23,7
   21d20:	e000c526 	beq	fp,zero,22038 <_malloc_r+0x684>
   21d24:	bf2fc83a 	sub	r23,r23,fp
   21d28:	bdc00204 	addi	r23,r23,8
   21d2c:	05040204 	movi	r20,4104
   21d30:	a729c83a 	sub	r20,r20,fp
   21d34:	bd6b883a 	add	r21,r23,r21
   21d38:	a569c83a 	sub	r20,r20,r21
   21d3c:	a503ffcc 	andi	r20,r20,4095
   21d40:	a00b883a 	mov	r5,r20
   21d44:	9009883a 	mov	r4,r18
   21d48:	00222840 	call	22284 <_sbrk_r>
   21d4c:	10ffffe0 	cmpeqi	r3,r2,-1
   21d50:	1800f31e 	bne	r3,zero,22120 <_malloc_r+0x76c>
   21d54:	15c5c83a 	sub	r2,r2,r23
   21d58:	152b883a 	add	r21,r2,r20
   21d5c:	008000f4 	movhi	r2,3
   21d60:	1162a717 	ldw	r5,-30052(r2)
   21d64:	9dc00215 	stw	r23,8(r19)
   21d68:	ad400054 	ori	r21,r21,1
   21d6c:	a169883a 	add	r20,r20,r5
   21d70:	1522a715 	stw	r20,-30052(r2)
   21d74:	bd400115 	stw	r21,4(r23)
   21d78:	84c0d626 	beq	r16,r19,220d4 <_malloc_r+0x720>
   21d7c:	b0800428 	cmpgeui	r2,r22,16
   21d80:	1000d626 	beq	r2,zero,220dc <_malloc_r+0x728>
   21d84:	80c00117 	ldw	r3,4(r16)
   21d88:	013ffe04 	movi	r4,-8
   21d8c:	b0bffd04 	addi	r2,r22,-12
   21d90:	1104703a 	and	r2,r2,r4
   21d94:	18c0004c 	andi	r3,r3,1
   21d98:	1886b03a 	or	r3,r3,r2
   21d9c:	80c00115 	stw	r3,4(r16)
   21da0:	01000144 	movi	r4,5
   21da4:	8087883a 	add	r3,r16,r2
   21da8:	19000115 	stw	r4,4(r3)
   21dac:	19000215 	stw	r4,8(r3)
   21db0:	10800428 	cmpgeui	r2,r2,16
   21db4:	1000df1e 	bne	r2,zero,22134 <_malloc_r+0x780>
   21db8:	bd400117 	ldw	r21,4(r23)
   21dbc:	b821883a 	mov	r16,r23
   21dc0:	008000f4 	movhi	r2,3
   21dc4:	10a20d17 	ldw	r2,-30668(r2)
   21dc8:	1500022e 	bgeu	r2,r20,21dd4 <_malloc_r+0x420>
   21dcc:	008000f4 	movhi	r2,3
   21dd0:	15220d15 	stw	r20,-30668(r2)
   21dd4:	008000f4 	movhi	r2,3
   21dd8:	10a20c17 	ldw	r2,-30672(r2)
   21ddc:	15006a2e 	bgeu	r2,r20,21f88 <_malloc_r+0x5d4>
   21de0:	008000f4 	movhi	r2,3
   21de4:	15220c15 	stw	r20,-30672(r2)
   21de8:	00006706 	br	21f88 <_malloc_r+0x5d4>
   21dec:	88c00054 	ori	r3,r17,1
   21df0:	80c00115 	stw	r3,4(r16)
   21df4:	8463883a 	add	r17,r16,r17
   21df8:	10800054 	ori	r2,r2,1
   21dfc:	9c400215 	stw	r17,8(r19)
   21e00:	88800115 	stw	r2,4(r17)
   21e04:	9009883a 	mov	r4,r18
   21e08:	00229380 	call	22938 <__malloc_unlock>
   21e0c:	80800204 	addi	r2,r16,8
   21e10:	003f7e06 	br	21c0c <_malloc_r+0x258>
   21e14:	81000317 	ldw	r4,12(r16)
   21e18:	003f0506 	br	21a30 <_malloc_r+0x7c>
   21e1c:	1006d27a 	srli	r3,r2,9
   21e20:	19000168 	cmpgeui	r4,r3,5
   21e24:	20005026 	beq	r4,zero,21f68 <_malloc_r+0x5b4>
   21e28:	19000568 	cmpgeui	r4,r3,21
   21e2c:	20008c1e 	bne	r4,zero,22060 <_malloc_r+0x6ac>
   21e30:	19401704 	addi	r5,r3,92
   21e34:	280a90fa 	slli	r5,r5,3
   21e38:	190016c4 	addi	r4,r3,91
   21e3c:	994b883a 	add	r5,r19,r5
   21e40:	28c00017 	ldw	r3,0(r5)
   21e44:	297ffe04 	addi	r5,r5,-8
   21e48:	28c07426 	beq	r5,r3,2201c <_malloc_r+0x668>
   21e4c:	01bfff04 	movi	r6,-4
   21e50:	19000117 	ldw	r4,4(r3)
   21e54:	2188703a 	and	r4,r4,r6
   21e58:	1100022e 	bgeu	r2,r4,21e64 <_malloc_r+0x4b0>
   21e5c:	18c00217 	ldw	r3,8(r3)
   21e60:	28fffb1e 	bne	r5,r3,21e50 <_malloc_r+0x49c>
   21e64:	19400317 	ldw	r5,12(r3)
   21e68:	98800117 	ldw	r2,4(r19)
   21e6c:	81400315 	stw	r5,12(r16)
   21e70:	80c00215 	stw	r3,8(r16)
   21e74:	2c000215 	stw	r16,8(r5)
   21e78:	1c000315 	stw	r16,12(r3)
   21e7c:	003f3606 	br	21b58 <_malloc_r+0x1a4>
   21e80:	10c00568 	cmpgeui	r3,r2,21
   21e84:	18004a26 	beq	r3,zero,21fb0 <_malloc_r+0x5fc>
   21e88:	10c01568 	cmpgeui	r3,r2,85
   21e8c:	18007b1e 	bne	r3,zero,2207c <_malloc_r+0x6c8>
   21e90:	8804d33a 	srli	r2,r17,12
   21e94:	11c01bc4 	addi	r7,r2,111
   21e98:	380890fa 	slli	r4,r7,3
   21e9c:	12001b84 	addi	r8,r2,110
   21ea0:	003efd06 	br	21a98 <_malloc_r+0xe4>
   21ea4:	63000044 	addi	r12,r12,1
   21ea8:	608000cc 	andi	r2,r12,3
   21eac:	42000204 	addi	r8,r8,8
   21eb0:	103f3e1e 	bne	r2,zero,21bac <_malloc_r+0x1f8>
   21eb4:	00004506 	br	21fcc <_malloc_r+0x618>
   21eb8:	81000217 	ldw	r4,8(r16)
   21ebc:	89800054 	ori	r6,r17,1
   21ec0:	81800115 	stw	r6,4(r16)
   21ec4:	20800315 	stw	r2,12(r4)
   21ec8:	11000215 	stw	r4,8(r2)
   21ecc:	8463883a 	add	r17,r16,r17
   21ed0:	9c400515 	stw	r17,20(r19)
   21ed4:	9c400415 	stw	r17,16(r19)
   21ed8:	28800054 	ori	r2,r5,1
   21edc:	88800115 	stw	r2,4(r17)
   21ee0:	8a400315 	stw	r9,12(r17)
   21ee4:	8a400215 	stw	r9,8(r17)
   21ee8:	80c7883a 	add	r3,r16,r3
   21eec:	19400015 	stw	r5,0(r3)
   21ef0:	9009883a 	mov	r4,r18
   21ef4:	00229380 	call	22938 <__malloc_unlock>
   21ef8:	80800204 	addi	r2,r16,8
   21efc:	003f4306 	br	21c0c <_malloc_r+0x258>
   21f00:	880ed0fa 	srli	r7,r17,3
   21f04:	88800204 	addi	r2,r17,8
   21f08:	003ebf06 	br	21a08 <_malloc_r+0x54>
   21f0c:	8085883a 	add	r2,r16,r2
   21f10:	10c00117 	ldw	r3,4(r2)
   21f14:	9009883a 	mov	r4,r18
   21f18:	18c00054 	ori	r3,r3,1
   21f1c:	10c00115 	stw	r3,4(r2)
   21f20:	00229380 	call	22938 <__malloc_unlock>
   21f24:	80800204 	addi	r2,r16,8
   21f28:	003f3806 	br	21c0c <_malloc_r+0x258>
   21f2c:	89000054 	ori	r4,r17,1
   21f30:	81000115 	stw	r4,4(r16)
   21f34:	8463883a 	add	r17,r16,r17
   21f38:	9c400515 	stw	r17,20(r19)
   21f3c:	9c400415 	stw	r17,16(r19)
   21f40:	19000054 	ori	r4,r3,1
   21f44:	89000115 	stw	r4,4(r17)
   21f48:	8085883a 	add	r2,r16,r2
   21f4c:	8a400315 	stw	r9,12(r17)
   21f50:	8a400215 	stw	r9,8(r17)
   21f54:	10c00015 	stw	r3,0(r2)
   21f58:	9009883a 	mov	r4,r18
   21f5c:	00229380 	call	22938 <__malloc_unlock>
   21f60:	80800204 	addi	r2,r16,8
   21f64:	003f2906 	br	21c0c <_malloc_r+0x258>
   21f68:	1006d1ba 	srli	r3,r2,6
   21f6c:	19400e44 	addi	r5,r3,57
   21f70:	280a90fa 	slli	r5,r5,3
   21f74:	19000e04 	addi	r4,r3,56
   21f78:	003fb006 	br	21e3c <_malloc_r+0x488>
   21f7c:	84c04626 	beq	r16,r19,22098 <_malloc_r+0x6e4>
   21f80:	9c000217 	ldw	r16,8(r19)
   21f84:	85400117 	ldw	r21,4(r16)
   21f88:	00bfff04 	movi	r2,-4
   21f8c:	a8aa703a 	and	r21,r21,r2
   21f90:	ac45c83a 	sub	r2,r21,r17
   21f94:	ac400236 	bltu	r21,r17,21fa0 <_malloc_r+0x5ec>
   21f98:	10c00408 	cmpgei	r3,r2,16
   21f9c:	183f931e 	bne	r3,zero,21dec <_malloc_r+0x438>
   21fa0:	9009883a 	mov	r4,r18
   21fa4:	00229380 	call	22938 <__malloc_unlock>
   21fa8:	0005883a 	mov	r2,zero
   21fac:	003f1706 	br	21c0c <_malloc_r+0x258>
   21fb0:	11c01704 	addi	r7,r2,92
   21fb4:	380890fa 	slli	r4,r7,3
   21fb8:	120016c4 	addi	r8,r2,91
   21fbc:	003eb606 	br	21a98 <_malloc_r+0xe4>
   21fc0:	58800217 	ldw	r2,8(r11)
   21fc4:	39ffffc4 	addi	r7,r7,-1
   21fc8:	12c0701e 	bne	r2,r11,2218c <_malloc_r+0x7d8>
   21fcc:	388000cc 	andi	r2,r7,3
   21fd0:	5afffe04 	addi	r11,r11,-8
   21fd4:	103ffa1e 	bne	r2,zero,21fc0 <_malloc_r+0x60c>
   21fd8:	98c00117 	ldw	r3,4(r19)
   21fdc:	0104303a 	nor	r2,zero,r4
   21fe0:	10c4703a 	and	r2,r2,r3
   21fe4:	98800115 	stw	r2,4(r19)
   21fe8:	2109883a 	add	r4,r4,r4
   21fec:	113f2336 	bltu	r2,r4,21c7c <_malloc_r+0x2c8>
   21ff0:	203f2226 	beq	r4,zero,21c7c <_malloc_r+0x2c8>
   21ff4:	2086703a 	and	r3,r4,r2
   21ff8:	1800041e 	bne	r3,zero,2200c <_malloc_r+0x658>
   21ffc:	2109883a 	add	r4,r4,r4
   22000:	2086703a 	and	r3,r4,r2
   22004:	63000104 	addi	r12,r12,4
   22008:	183ffc26 	beq	r3,zero,21ffc <_malloc_r+0x648>
   2200c:	600f883a 	mov	r7,r12
   22010:	003ee206 	br	21b9c <_malloc_r+0x1e8>
   22014:	ad400404 	addi	r21,r21,16
   22018:	003f2b06 	br	21cc8 <_malloc_r+0x314>
   2201c:	2009d0ba 	srai	r4,r4,2
   22020:	00800044 	movi	r2,1
   22024:	99800117 	ldw	r6,4(r19)
   22028:	1104983a 	sll	r2,r2,r4
   2202c:	1184b03a 	or	r2,r2,r6
   22030:	98800115 	stw	r2,4(r19)
   22034:	003f8d06 	br	21e6c <_malloc_r+0x4b8>
   22038:	bd69883a 	add	r20,r23,r21
   2203c:	0529c83a 	sub	r20,zero,r20
   22040:	a503ffcc 	andi	r20,r20,4095
   22044:	a00b883a 	mov	r5,r20
   22048:	9009883a 	mov	r4,r18
   2204c:	00222840 	call	22284 <_sbrk_r>
   22050:	10ffffe0 	cmpeqi	r3,r2,-1
   22054:	183f3f26 	beq	r3,zero,21d54 <_malloc_r+0x3a0>
   22058:	0029883a 	mov	r20,zero
   2205c:	003f3f06 	br	21d5c <_malloc_r+0x3a8>
   22060:	19001568 	cmpgeui	r4,r3,85
   22064:	2000201e 	bne	r4,zero,220e8 <_malloc_r+0x734>
   22068:	1006d33a 	srli	r3,r2,12
   2206c:	19401bc4 	addi	r5,r3,111
   22070:	280a90fa 	slli	r5,r5,3
   22074:	19001b84 	addi	r4,r3,110
   22078:	003f7006 	br	21e3c <_malloc_r+0x488>
   2207c:	10c05568 	cmpgeui	r3,r2,341
   22080:	1800201e 	bne	r3,zero,22104 <_malloc_r+0x750>
   22084:	8804d3fa 	srli	r2,r17,15
   22088:	11c01e04 	addi	r7,r2,120
   2208c:	380890fa 	slli	r4,r7,3
   22090:	12001dc4 	addi	r8,r2,119
   22094:	003e8006 	br	21a98 <_malloc_r+0xe4>
   22098:	008000f4 	movhi	r2,3
   2209c:	10e2a717 	ldw	r3,-30052(r2)
   220a0:	a8c7883a 	add	r3,r21,r3
   220a4:	10e2a715 	stw	r3,-30052(r2)
   220a8:	003f1406 	br	21cfc <_malloc_r+0x348>
   220ac:	e083ffcc 	andi	r2,fp,4095
   220b0:	103f121e 	bne	r2,zero,21cfc <_malloc_r+0x348>
   220b4:	9c000217 	ldw	r16,8(r19)
   220b8:	b56b883a 	add	r21,r22,r21
   220bc:	ad400054 	ori	r21,r21,1
   220c0:	85400115 	stw	r21,4(r16)
   220c4:	003f3e06 	br	21dc0 <_malloc_r+0x40c>
   220c8:	008000b4 	movhi	r2,2
   220cc:	15db5d15 	stw	r23,28020(r2)
   220d0:	003f1206 	br	21d1c <_malloc_r+0x368>
   220d4:	b821883a 	mov	r16,r23
   220d8:	003f3906 	br	21dc0 <_malloc_r+0x40c>
   220dc:	00800044 	movi	r2,1
   220e0:	b8800115 	stw	r2,4(r23)
   220e4:	003fae06 	br	21fa0 <_malloc_r+0x5ec>
   220e8:	19005568 	cmpgeui	r4,r3,341
   220ec:	2000191e 	bne	r4,zero,22154 <_malloc_r+0x7a0>
   220f0:	1006d3fa 	srli	r3,r2,15
   220f4:	19401e04 	addi	r5,r3,120
   220f8:	280a90fa 	slli	r5,r5,3
   220fc:	19001dc4 	addi	r4,r3,119
   22100:	003f4e06 	br	21e3c <_malloc_r+0x488>
   22104:	10815568 	cmpgeui	r2,r2,1365
   22108:	1000191e 	bne	r2,zero,22170 <_malloc_r+0x7bc>
   2210c:	8804d4ba 	srli	r2,r17,18
   22110:	11c01f44 	addi	r7,r2,125
   22114:	380890fa 	slli	r4,r7,3
   22118:	12001f04 	addi	r8,r2,124
   2211c:	003e5e06 	br	21a98 <_malloc_r+0xe4>
   22120:	e73ffe04 	addi	fp,fp,-8
   22124:	af2b883a 	add	r21,r21,fp
   22128:	adebc83a 	sub	r21,r21,r23
   2212c:	0029883a 	mov	r20,zero
   22130:	003f0a06 	br	21d5c <_malloc_r+0x3a8>
   22134:	81400204 	addi	r5,r16,8
   22138:	9009883a 	mov	r4,r18
   2213c:	00224b00 	call	224b0 <_free_r>
   22140:	9c000217 	ldw	r16,8(r19)
   22144:	008000f4 	movhi	r2,3
   22148:	1522a717 	ldw	r20,-30052(r2)
   2214c:	85400117 	ldw	r21,4(r16)
   22150:	003f1b06 	br	21dc0 <_malloc_r+0x40c>
   22154:	18c15568 	cmpgeui	r3,r3,1365
   22158:	1800091e 	bne	r3,zero,22180 <_malloc_r+0x7cc>
   2215c:	1006d4ba 	srli	r3,r2,18
   22160:	19401f44 	addi	r5,r3,125
   22164:	280a90fa 	slli	r5,r5,3
   22168:	19001f04 	addi	r4,r3,124
   2216c:	003f3306 	br	21e3c <_malloc_r+0x488>
   22170:	0100fe04 	movi	r4,1016
   22174:	01c01fc4 	movi	r7,127
   22178:	02001f84 	movi	r8,126
   2217c:	003e4606 	br	21a98 <_malloc_r+0xe4>
   22180:	0140fe04 	movi	r5,1016
   22184:	01001f84 	movi	r4,126
   22188:	003f2c06 	br	21e3c <_malloc_r+0x488>
   2218c:	98800117 	ldw	r2,4(r19)
   22190:	003f9506 	br	21fe8 <_malloc_r+0x634>

00022194 <memset>:
   22194:	20c000cc 	andi	r3,r4,3
   22198:	2005883a 	mov	r2,r4
   2219c:	18003626 	beq	r3,zero,22278 <memset+0xe4>
   221a0:	31ffffc4 	addi	r7,r6,-1
   221a4:	30003326 	beq	r6,zero,22274 <memset+0xe0>
   221a8:	2811883a 	mov	r8,r5
   221ac:	2007883a 	mov	r3,r4
   221b0:	00000306 	br	221c0 <memset+0x2c>
   221b4:	39ffffc4 	addi	r7,r7,-1
   221b8:	39bfffe0 	cmpeqi	r6,r7,-1
   221bc:	30002d1e 	bne	r6,zero,22274 <memset+0xe0>
   221c0:	18c00044 	addi	r3,r3,1
   221c4:	198000cc 	andi	r6,r3,3
   221c8:	1a3fffc5 	stb	r8,-1(r3)
   221cc:	303ff91e 	bne	r6,zero,221b4 <memset+0x20>
   221d0:	39000130 	cmpltui	r4,r7,4
   221d4:	2000221e 	bne	r4,zero,22260 <memset+0xcc>
   221d8:	29003fcc 	andi	r4,r5,255
   221dc:	200c923a 	slli	r6,r4,8
   221e0:	3a000430 	cmpltui	r8,r7,16
   221e4:	3108b03a 	or	r4,r6,r4
   221e8:	200c943a 	slli	r6,r4,16
   221ec:	310cb03a 	or	r6,r6,r4
   221f0:	40000e1e 	bne	r8,zero,2222c <memset+0x98>
   221f4:	393ffc04 	addi	r4,r7,-16
   221f8:	2008d13a 	srli	r4,r4,4
   221fc:	21000044 	addi	r4,r4,1
   22200:	2008913a 	slli	r4,r4,4
   22204:	1909883a 	add	r4,r3,r4
   22208:	19800015 	stw	r6,0(r3)
   2220c:	19800115 	stw	r6,4(r3)
   22210:	19800215 	stw	r6,8(r3)
   22214:	19800315 	stw	r6,12(r3)
   22218:	18c00404 	addi	r3,r3,16
   2221c:	20fffa1e 	bne	r4,r3,22208 <memset+0x74>
   22220:	3900030c 	andi	r4,r7,12
   22224:	39c003cc 	andi	r7,r7,15
   22228:	20000d26 	beq	r4,zero,22260 <memset+0xcc>
   2222c:	1811883a 	mov	r8,r3
   22230:	42000104 	addi	r8,r8,4
   22234:	3a09c83a 	sub	r4,r7,r8
   22238:	1909883a 	add	r4,r3,r4
   2223c:	21000128 	cmpgeui	r4,r4,4
   22240:	41bfff15 	stw	r6,-4(r8)
   22244:	203ffa1e 	bne	r4,zero,22230 <memset+0x9c>
   22248:	393fff04 	addi	r4,r7,-4
   2224c:	2008d0ba 	srli	r4,r4,2
   22250:	39c000cc 	andi	r7,r7,3
   22254:	21000044 	addi	r4,r4,1
   22258:	200890ba 	slli	r4,r4,2
   2225c:	1907883a 	add	r3,r3,r4
   22260:	38000426 	beq	r7,zero,22274 <memset+0xe0>
   22264:	19cf883a 	add	r7,r3,r7
   22268:	18c00044 	addi	r3,r3,1
   2226c:	197fffc5 	stb	r5,-1(r3)
   22270:	38fffd1e 	bne	r7,r3,22268 <memset+0xd4>
   22274:	f800283a 	ret
   22278:	2007883a 	mov	r3,r4
   2227c:	300f883a 	mov	r7,r6
   22280:	003fd306 	br	221d0 <memset+0x3c>

00022284 <_sbrk_r>:
   22284:	defffe04 	addi	sp,sp,-8
   22288:	dc000015 	stw	r16,0(sp)
   2228c:	008000f4 	movhi	r2,3
   22290:	2021883a 	mov	r16,r4
   22294:	2809883a 	mov	r4,r5
   22298:	dfc00115 	stw	ra,4(sp)
   2229c:	10220f15 	stw	zero,-30660(r2)
   222a0:	002295c0 	call	2295c <sbrk>
   222a4:	10ffffd8 	cmpnei	r3,r2,-1
   222a8:	18000426 	beq	r3,zero,222bc <_sbrk_r+0x38>
   222ac:	dfc00117 	ldw	ra,4(sp)
   222b0:	dc000017 	ldw	r16,0(sp)
   222b4:	dec00204 	addi	sp,sp,8
   222b8:	f800283a 	ret
   222bc:	00c000f4 	movhi	r3,3
   222c0:	18e20f17 	ldw	r3,-30660(r3)
   222c4:	183ff926 	beq	r3,zero,222ac <_sbrk_r+0x28>
   222c8:	80c00015 	stw	r3,0(r16)
   222cc:	dfc00117 	ldw	ra,4(sp)
   222d0:	dc000017 	ldw	r16,0(sp)
   222d4:	dec00204 	addi	sp,sp,8
   222d8:	f800283a 	ret

000222dc <strcmp>:
   222dc:	2144b03a 	or	r2,r4,r5
   222e0:	108000cc 	andi	r2,r2,3
   222e4:	1000141e 	bne	r2,zero,22338 <strcmp+0x5c>
   222e8:	20800017 	ldw	r2,0(r4)
   222ec:	28c00017 	ldw	r3,0(r5)
   222f0:	10c0111e 	bne	r2,r3,22338 <strcmp+0x5c>
   222f4:	01ffbff4 	movhi	r7,65279
   222f8:	01a02074 	movhi	r6,32897
   222fc:	39ffbfc4 	addi	r7,r7,-257
   22300:	31a02004 	addi	r6,r6,-32640
   22304:	00000306 	br	22314 <strcmp+0x38>
   22308:	20800017 	ldw	r2,0(r4)
   2230c:	28c00017 	ldw	r3,0(r5)
   22310:	10c0091e 	bne	r2,r3,22338 <strcmp+0x5c>
   22314:	11c7883a 	add	r3,r2,r7
   22318:	0084303a 	nor	r2,zero,r2
   2231c:	1884703a 	and	r2,r3,r2
   22320:	1184703a 	and	r2,r2,r6
   22324:	21000104 	addi	r4,r4,4
   22328:	29400104 	addi	r5,r5,4
   2232c:	103ff626 	beq	r2,zero,22308 <strcmp+0x2c>
   22330:	0005883a 	mov	r2,zero
   22334:	f800283a 	ret
   22338:	20c00003 	ldbu	r3,0(r4)
   2233c:	18803fcc 	andi	r2,r3,255
   22340:	1080201c 	xori	r2,r2,128
   22344:	10bfe004 	addi	r2,r2,-128
   22348:	1000071e 	bne	r2,zero,22368 <strcmp+0x8c>
   2234c:	00000a06 	br	22378 <strcmp+0x9c>
   22350:	20c00003 	ldbu	r3,0(r4)
   22354:	29400044 	addi	r5,r5,1
   22358:	18803fcc 	andi	r2,r3,255
   2235c:	1080201c 	xori	r2,r2,128
   22360:	10bfe004 	addi	r2,r2,-128
   22364:	10000726 	beq	r2,zero,22384 <strcmp+0xa8>
   22368:	29800007 	ldb	r6,0(r5)
   2236c:	21000044 	addi	r4,r4,1
   22370:	30bff726 	beq	r6,r2,22350 <strcmp+0x74>
   22374:	18803fcc 	andi	r2,r3,255
   22378:	28c00003 	ldbu	r3,0(r5)
   2237c:	10c5c83a 	sub	r2,r2,r3
   22380:	f800283a 	ret
   22384:	28c00003 	ldbu	r3,0(r5)
   22388:	0005883a 	mov	r2,zero
   2238c:	10c5c83a 	sub	r2,r2,r3
   22390:	f800283a 	ret

00022394 <_malloc_trim_r>:
   22394:	defffb04 	addi	sp,sp,-20
   22398:	dcc00315 	stw	r19,12(sp)
   2239c:	04c000b4 	movhi	r19,2
   223a0:	dc800215 	stw	r18,8(sp)
   223a4:	dc400115 	stw	r17,4(sp)
   223a8:	dc000015 	stw	r16,0(sp)
   223ac:	dfc00415 	stw	ra,16(sp)
   223b0:	2821883a 	mov	r16,r5
   223b4:	9cd4ca04 	addi	r19,r19,21288
   223b8:	2025883a 	mov	r18,r4
   223bc:	00229140 	call	22914 <__malloc_lock>
   223c0:	98800217 	ldw	r2,8(r19)
   223c4:	14400117 	ldw	r17,4(r2)
   223c8:	00bfff04 	movi	r2,-4
   223cc:	88a2703a 	and	r17,r17,r2
   223d0:	8c21c83a 	sub	r16,r17,r16
   223d4:	8403fbc4 	addi	r16,r16,4079
   223d8:	8020d33a 	srli	r16,r16,12
   223dc:	843fffc4 	addi	r16,r16,-1
   223e0:	8020933a 	slli	r16,r16,12
   223e4:	80840008 	cmpgei	r2,r16,4096
   223e8:	10000626 	beq	r2,zero,22404 <_malloc_trim_r+0x70>
   223ec:	000b883a 	mov	r5,zero
   223f0:	9009883a 	mov	r4,r18
   223f4:	00222840 	call	22284 <_sbrk_r>
   223f8:	98c00217 	ldw	r3,8(r19)
   223fc:	1c47883a 	add	r3,r3,r17
   22400:	10c00a26 	beq	r2,r3,2242c <_malloc_trim_r+0x98>
   22404:	9009883a 	mov	r4,r18
   22408:	00229380 	call	22938 <__malloc_unlock>
   2240c:	0005883a 	mov	r2,zero
   22410:	dfc00417 	ldw	ra,16(sp)
   22414:	dcc00317 	ldw	r19,12(sp)
   22418:	dc800217 	ldw	r18,8(sp)
   2241c:	dc400117 	ldw	r17,4(sp)
   22420:	dc000017 	ldw	r16,0(sp)
   22424:	dec00504 	addi	sp,sp,20
   22428:	f800283a 	ret
   2242c:	040bc83a 	sub	r5,zero,r16
   22430:	9009883a 	mov	r4,r18
   22434:	00222840 	call	22284 <_sbrk_r>
   22438:	10bfffd8 	cmpnei	r2,r2,-1
   2243c:	10000d26 	beq	r2,zero,22474 <_malloc_trim_r+0xe0>
   22440:	008000f4 	movhi	r2,3
   22444:	10a2a717 	ldw	r2,-30052(r2)
   22448:	98c00217 	ldw	r3,8(r19)
   2244c:	8c23c83a 	sub	r17,r17,r16
   22450:	8c400054 	ori	r17,r17,1
   22454:	1421c83a 	sub	r16,r2,r16
   22458:	1c400115 	stw	r17,4(r3)
   2245c:	008000f4 	movhi	r2,3
   22460:	9009883a 	mov	r4,r18
   22464:	1422a715 	stw	r16,-30052(r2)
   22468:	00229380 	call	22938 <__malloc_unlock>
   2246c:	00800044 	movi	r2,1
   22470:	003fe706 	br	22410 <_malloc_trim_r+0x7c>
   22474:	000b883a 	mov	r5,zero
   22478:	9009883a 	mov	r4,r18
   2247c:	00222840 	call	22284 <_sbrk_r>
   22480:	99000217 	ldw	r4,8(r19)
   22484:	1107c83a 	sub	r3,r2,r4
   22488:	19400410 	cmplti	r5,r3,16
   2248c:	283fdd1e 	bne	r5,zero,22404 <_malloc_trim_r+0x70>
   22490:	014000b4 	movhi	r5,2
   22494:	295b5d17 	ldw	r5,28020(r5)
   22498:	18c00054 	ori	r3,r3,1
   2249c:	20c00115 	stw	r3,4(r4)
   224a0:	1145c83a 	sub	r2,r2,r5
   224a4:	014000f4 	movhi	r5,3
   224a8:	28a2a715 	stw	r2,-30052(r5)
   224ac:	003fd506 	br	22404 <_malloc_trim_r+0x70>

000224b0 <_free_r>:
   224b0:	28004f26 	beq	r5,zero,225f0 <_free_r+0x140>
   224b4:	defffd04 	addi	sp,sp,-12
   224b8:	dc400115 	stw	r17,4(sp)
   224bc:	dc000015 	stw	r16,0(sp)
   224c0:	2023883a 	mov	r17,r4
   224c4:	2821883a 	mov	r16,r5
   224c8:	dfc00215 	stw	ra,8(sp)
   224cc:	00229140 	call	22914 <__malloc_lock>
   224d0:	81ffff17 	ldw	r7,-4(r16)
   224d4:	00bfff84 	movi	r2,-2
   224d8:	80fffe04 	addi	r3,r16,-8
   224dc:	3884703a 	and	r2,r7,r2
   224e0:	010000b4 	movhi	r4,2
   224e4:	188d883a 	add	r6,r3,r2
   224e8:	2114ca04 	addi	r4,r4,21288
   224ec:	31400117 	ldw	r5,4(r6)
   224f0:	22000217 	ldw	r8,8(r4)
   224f4:	027fff04 	movi	r9,-4
   224f8:	2a4a703a 	and	r5,r5,r9
   224fc:	41806426 	beq	r8,r6,22690 <_free_r+0x1e0>
   22500:	31400115 	stw	r5,4(r6)
   22504:	39c0004c 	andi	r7,r7,1
   22508:	3151883a 	add	r8,r6,r5
   2250c:	3800281e 	bne	r7,zero,225b0 <_free_r+0x100>
   22510:	82bffe17 	ldw	r10,-8(r16)
   22514:	42000117 	ldw	r8,4(r8)
   22518:	01c000b4 	movhi	r7,2
   2251c:	1a87c83a 	sub	r3,r3,r10
   22520:	1a400217 	ldw	r9,8(r3)
   22524:	39d4cc04 	addi	r7,r7,21296
   22528:	1285883a 	add	r2,r2,r10
   2252c:	4200004c 	andi	r8,r8,1
   22530:	49c04c26 	beq	r9,r7,22664 <_free_r+0x1b4>
   22534:	1a800317 	ldw	r10,12(r3)
   22538:	4a800315 	stw	r10,12(r9)
   2253c:	52400215 	stw	r9,8(r10)
   22540:	40007126 	beq	r8,zero,22708 <_free_r+0x258>
   22544:	11400054 	ori	r5,r2,1
   22548:	19400115 	stw	r5,4(r3)
   2254c:	30800015 	stw	r2,0(r6)
   22550:	11408028 	cmpgeui	r5,r2,512
   22554:	28002c1e 	bne	r5,zero,22608 <_free_r+0x158>
   22558:	100ad0fa 	srli	r5,r2,3
   2255c:	100cd17a 	srli	r6,r2,5
   22560:	00800044 	movi	r2,1
   22564:	29400044 	addi	r5,r5,1
   22568:	280a90fa 	slli	r5,r5,3
   2256c:	21c00117 	ldw	r7,4(r4)
   22570:	1184983a 	sll	r2,r2,r6
   22574:	214b883a 	add	r5,r4,r5
   22578:	29800017 	ldw	r6,0(r5)
   2257c:	11c4b03a 	or	r2,r2,r7
   22580:	29fffe04 	addi	r7,r5,-8
   22584:	19c00315 	stw	r7,12(r3)
   22588:	19800215 	stw	r6,8(r3)
   2258c:	20800115 	stw	r2,4(r4)
   22590:	28c00015 	stw	r3,0(r5)
   22594:	30c00315 	stw	r3,12(r6)
   22598:	8809883a 	mov	r4,r17
   2259c:	dfc00217 	ldw	ra,8(sp)
   225a0:	dc400117 	ldw	r17,4(sp)
   225a4:	dc000017 	ldw	r16,0(sp)
   225a8:	dec00304 	addi	sp,sp,12
   225ac:	00229381 	jmpi	22938 <__malloc_unlock>
   225b0:	41c00117 	ldw	r7,4(r8)
   225b4:	39c0004c 	andi	r7,r7,1
   225b8:	38000e1e 	bne	r7,zero,225f4 <_free_r+0x144>
   225bc:	01c000b4 	movhi	r7,2
   225c0:	1145883a 	add	r2,r2,r5
   225c4:	39d4cc04 	addi	r7,r7,21296
   225c8:	31400217 	ldw	r5,8(r6)
   225cc:	12400054 	ori	r9,r2,1
   225d0:	1891883a 	add	r8,r3,r2
   225d4:	29c05226 	beq	r5,r7,22720 <_free_r+0x270>
   225d8:	31800317 	ldw	r6,12(r6)
   225dc:	29800315 	stw	r6,12(r5)
   225e0:	31400215 	stw	r5,8(r6)
   225e4:	1a400115 	stw	r9,4(r3)
   225e8:	40800015 	stw	r2,0(r8)
   225ec:	003fd806 	br	22550 <_free_r+0xa0>
   225f0:	f800283a 	ret
   225f4:	11400054 	ori	r5,r2,1
   225f8:	817fff15 	stw	r5,-4(r16)
   225fc:	30800015 	stw	r2,0(r6)
   22600:	11408028 	cmpgeui	r5,r2,512
   22604:	283fd426 	beq	r5,zero,22558 <_free_r+0xa8>
   22608:	100ad27a 	srli	r5,r2,9
   2260c:	29800168 	cmpgeui	r6,r5,5
   22610:	3000341e 	bne	r6,zero,226e4 <_free_r+0x234>
   22614:	100ad1ba 	srli	r5,r2,6
   22618:	29800e44 	addi	r6,r5,57
   2261c:	300c90fa 	slli	r6,r6,3
   22620:	29c00e04 	addi	r7,r5,56
   22624:	218d883a 	add	r6,r4,r6
   22628:	31400017 	ldw	r5,0(r6)
   2262c:	31bffe04 	addi	r6,r6,-8
   22630:	31404226 	beq	r6,r5,2273c <_free_r+0x28c>
   22634:	01ffff04 	movi	r7,-4
   22638:	29000117 	ldw	r4,4(r5)
   2263c:	21c8703a 	and	r4,r4,r7
   22640:	1100022e 	bgeu	r2,r4,2264c <_free_r+0x19c>
   22644:	29400217 	ldw	r5,8(r5)
   22648:	317ffb1e 	bne	r6,r5,22638 <_free_r+0x188>
   2264c:	29800317 	ldw	r6,12(r5)
   22650:	19800315 	stw	r6,12(r3)
   22654:	19400215 	stw	r5,8(r3)
   22658:	30c00215 	stw	r3,8(r6)
   2265c:	28c00315 	stw	r3,12(r5)
   22660:	003fcd06 	br	22598 <_free_r+0xe8>
   22664:	40004d1e 	bne	r8,zero,2279c <_free_r+0x2ec>
   22668:	31000317 	ldw	r4,12(r6)
   2266c:	31800217 	ldw	r6,8(r6)
   22670:	2885883a 	add	r2,r5,r2
   22674:	11400054 	ori	r5,r2,1
   22678:	31000315 	stw	r4,12(r6)
   2267c:	21800215 	stw	r6,8(r4)
   22680:	19400115 	stw	r5,4(r3)
   22684:	1887883a 	add	r3,r3,r2
   22688:	18800015 	stw	r2,0(r3)
   2268c:	003fc206 	br	22598 <_free_r+0xe8>
   22690:	39c0004c 	andi	r7,r7,1
   22694:	1145883a 	add	r2,r2,r5
   22698:	3800071e 	bne	r7,zero,226b8 <_free_r+0x208>
   2269c:	81fffe17 	ldw	r7,-8(r16)
   226a0:	19c7c83a 	sub	r3,r3,r7
   226a4:	19400317 	ldw	r5,12(r3)
   226a8:	19800217 	ldw	r6,8(r3)
   226ac:	11c5883a 	add	r2,r2,r7
   226b0:	31400315 	stw	r5,12(r6)
   226b4:	29800215 	stw	r6,8(r5)
   226b8:	014000b4 	movhi	r5,2
   226bc:	11800054 	ori	r6,r2,1
   226c0:	295b5e17 	ldw	r5,28024(r5)
   226c4:	19800115 	stw	r6,4(r3)
   226c8:	20c00215 	stw	r3,8(r4)
   226cc:	117fb236 	bltu	r2,r5,22598 <_free_r+0xe8>
   226d0:	008000f4 	movhi	r2,3
   226d4:	11620e17 	ldw	r5,-30664(r2)
   226d8:	8809883a 	mov	r4,r17
   226dc:	00223940 	call	22394 <_malloc_trim_r>
   226e0:	003fad06 	br	22598 <_free_r+0xe8>
   226e4:	29800568 	cmpgeui	r6,r5,21
   226e8:	30000926 	beq	r6,zero,22710 <_free_r+0x260>
   226ec:	29801568 	cmpgeui	r6,r5,85
   226f0:	3000191e 	bne	r6,zero,22758 <_free_r+0x2a8>
   226f4:	100ad33a 	srli	r5,r2,12
   226f8:	29801bc4 	addi	r6,r5,111
   226fc:	300c90fa 	slli	r6,r6,3
   22700:	29c01b84 	addi	r7,r5,110
   22704:	003fc706 	br	22624 <_free_r+0x174>
   22708:	1145883a 	add	r2,r2,r5
   2270c:	003fae06 	br	225c8 <_free_r+0x118>
   22710:	29801704 	addi	r6,r5,92
   22714:	300c90fa 	slli	r6,r6,3
   22718:	29c016c4 	addi	r7,r5,91
   2271c:	003fc106 	br	22624 <_free_r+0x174>
   22720:	20c00515 	stw	r3,20(r4)
   22724:	20c00415 	stw	r3,16(r4)
   22728:	19c00315 	stw	r7,12(r3)
   2272c:	19c00215 	stw	r7,8(r3)
   22730:	1a400115 	stw	r9,4(r3)
   22734:	40800015 	stw	r2,0(r8)
   22738:	003f9706 	br	22598 <_free_r+0xe8>
   2273c:	380fd0ba 	srai	r7,r7,2
   22740:	00800044 	movi	r2,1
   22744:	22000117 	ldw	r8,4(r4)
   22748:	11ce983a 	sll	r7,r2,r7
   2274c:	3a0eb03a 	or	r7,r7,r8
   22750:	21c00115 	stw	r7,4(r4)
   22754:	003fbe06 	br	22650 <_free_r+0x1a0>
   22758:	29805568 	cmpgeui	r6,r5,341
   2275c:	3000051e 	bne	r6,zero,22774 <_free_r+0x2c4>
   22760:	100ad3fa 	srli	r5,r2,15
   22764:	29801e04 	addi	r6,r5,120
   22768:	300c90fa 	slli	r6,r6,3
   2276c:	29c01dc4 	addi	r7,r5,119
   22770:	003fac06 	br	22624 <_free_r+0x174>
   22774:	29415568 	cmpgeui	r5,r5,1365
   22778:	2800051e 	bne	r5,zero,22790 <_free_r+0x2e0>
   2277c:	100ad4ba 	srli	r5,r2,18
   22780:	29801f44 	addi	r6,r5,125
   22784:	300c90fa 	slli	r6,r6,3
   22788:	29c01f04 	addi	r7,r5,124
   2278c:	003fa506 	br	22624 <_free_r+0x174>
   22790:	0180fe04 	movi	r6,1016
   22794:	01c01f84 	movi	r7,126
   22798:	003fa206 	br	22624 <_free_r+0x174>
   2279c:	11000054 	ori	r4,r2,1
   227a0:	19000115 	stw	r4,4(r3)
   227a4:	30800015 	stw	r2,0(r6)
   227a8:	003f7b06 	br	22598 <_free_r+0xe8>

000227ac <alt_load_section>:
   227ac:	defffc04 	addi	sp,sp,-16
   227b0:	df000315 	stw	fp,12(sp)
   227b4:	df000304 	addi	fp,sp,12
   227b8:	e13fff15 	stw	r4,-4(fp)
   227bc:	e17ffe15 	stw	r5,-8(fp)
   227c0:	e1bffd15 	stw	r6,-12(fp)
   227c4:	e0fffe17 	ldw	r3,-8(fp)
   227c8:	e0bfff17 	ldw	r2,-4(fp)
   227cc:	18800c26 	beq	r3,r2,22800 <alt_load_section+0x54>
   227d0:	00000806 	br	227f4 <alt_load_section+0x48>
   227d4:	e0ffff17 	ldw	r3,-4(fp)
   227d8:	18800104 	addi	r2,r3,4
   227dc:	e0bfff15 	stw	r2,-4(fp)
   227e0:	e0bffe17 	ldw	r2,-8(fp)
   227e4:	11000104 	addi	r4,r2,4
   227e8:	e13ffe15 	stw	r4,-8(fp)
   227ec:	18c00017 	ldw	r3,0(r3)
   227f0:	10c00015 	stw	r3,0(r2)
   227f4:	e0fffe17 	ldw	r3,-8(fp)
   227f8:	e0bffd17 	ldw	r2,-12(fp)
   227fc:	18bff51e 	bne	r3,r2,227d4 <alt_load_section+0x28>
   22800:	0001883a 	nop
   22804:	e037883a 	mov	sp,fp
   22808:	df000017 	ldw	fp,0(sp)
   2280c:	dec00104 	addi	sp,sp,4
   22810:	f800283a 	ret

00022814 <alt_load>:
   22814:	defffe04 	addi	sp,sp,-8
   22818:	dfc00115 	stw	ra,4(sp)
   2281c:	df000015 	stw	fp,0(sp)
   22820:	d839883a 	mov	fp,sp
   22824:	018000b4 	movhi	r6,2
   22828:	319b6b04 	addi	r6,r6,28076
   2282c:	014000b4 	movhi	r5,2
   22830:	2954ca04 	addi	r5,r5,21288
   22834:	010000b4 	movhi	r4,2
   22838:	211b6b04 	addi	r4,r4,28076
   2283c:	00227ac0 	call	227ac <alt_load_section>
   22840:	018000b4 	movhi	r6,2
   22844:	31808904 	addi	r6,r6,548
   22848:	014000b4 	movhi	r5,2
   2284c:	29400804 	addi	r5,r5,32
   22850:	010000b4 	movhi	r4,2
   22854:	21000804 	addi	r4,r4,32
   22858:	00227ac0 	call	227ac <alt_load_section>
   2285c:	018000b4 	movhi	r6,2
   22860:	3194ca04 	addi	r6,r6,21288
   22864:	014000b4 	movhi	r5,2
   22868:	2953fe04 	addi	r5,r5,20472
   2286c:	010000b4 	movhi	r4,2
   22870:	2113fe04 	addi	r4,r4,20472
   22874:	00227ac0 	call	227ac <alt_load_section>
   22878:	0023c2c0 	call	23c2c <alt_dcache_flush_all>
   2287c:	0023e240 	call	23e24 <alt_icache_flush_all>
   22880:	0001883a 	nop
   22884:	e037883a 	mov	sp,fp
   22888:	dfc00117 	ldw	ra,4(sp)
   2288c:	df000017 	ldw	fp,0(sp)
   22890:	dec00204 	addi	sp,sp,8
   22894:	f800283a 	ret

00022898 <alt_main>:
   22898:	defffd04 	addi	sp,sp,-12
   2289c:	dfc00215 	stw	ra,8(sp)
   228a0:	df000115 	stw	fp,4(sp)
   228a4:	df000104 	addi	fp,sp,4
   228a8:	0009883a 	mov	r4,zero
   228ac:	0022a780 	call	22a78 <alt_irq_init>
   228b0:	0001883a 	nop
   228b4:	0022ab40 	call	22ab4 <alt_sys_init>
   228b8:	018000b4 	movhi	r6,2
   228bc:	3194bd04 	addi	r6,r6,21236
   228c0:	014000b4 	movhi	r5,2
   228c4:	2954bd04 	addi	r5,r5,21236
   228c8:	010000b4 	movhi	r4,2
   228cc:	2114bd04 	addi	r4,r4,21236
   228d0:	00241b00 	call	241b0 <alt_io_redirect>
   228d4:	0023d5c0 	call	23d5c <_do_ctors>
   228d8:	010000b4 	movhi	r4,2
   228dc:	210f7004 	addi	r4,r4,15808
   228e0:	00249cc0 	call	249cc <atexit>
   228e4:	d0a6b917 	ldw	r2,-25884(gp)
   228e8:	d0e6ba17 	ldw	r3,-25880(gp)
   228ec:	d126bb17 	ldw	r4,-25876(gp)
   228f0:	200d883a 	mov	r6,r4
   228f4:	180b883a 	mov	r5,r3
   228f8:	1009883a 	mov	r4,r2
   228fc:	00202600 	call	20260 <main>
   22900:	e0bfff15 	stw	r2,-4(fp)
   22904:	01000044 	movi	r4,1
   22908:	0023b500 	call	23b50 <close>
   2290c:	e13fff17 	ldw	r4,-4(fp)
   22910:	00249e00 	call	249e0 <exit>

00022914 <__malloc_lock>:
   22914:	defffe04 	addi	sp,sp,-8
   22918:	df000115 	stw	fp,4(sp)
   2291c:	df000104 	addi	fp,sp,4
   22920:	e13fff15 	stw	r4,-4(fp)
   22924:	0001883a 	nop
   22928:	e037883a 	mov	sp,fp
   2292c:	df000017 	ldw	fp,0(sp)
   22930:	dec00104 	addi	sp,sp,4
   22934:	f800283a 	ret

00022938 <__malloc_unlock>:
   22938:	defffe04 	addi	sp,sp,-8
   2293c:	df000115 	stw	fp,4(sp)
   22940:	df000104 	addi	fp,sp,4
   22944:	e13fff15 	stw	r4,-4(fp)
   22948:	0001883a 	nop
   2294c:	e037883a 	mov	sp,fp
   22950:	df000017 	ldw	fp,0(sp)
   22954:	dec00104 	addi	sp,sp,4
   22958:	f800283a 	ret

0002295c <sbrk>:
   2295c:	defff904 	addi	sp,sp,-28
   22960:	df000615 	stw	fp,24(sp)
   22964:	df000604 	addi	fp,sp,24
   22968:	e13ffa15 	stw	r4,-24(fp)
   2296c:	0005303a 	rdctl	r2,status
   22970:	e0bffd15 	stw	r2,-12(fp)
   22974:	e0fffd17 	ldw	r3,-12(fp)
   22978:	00bfff84 	movi	r2,-2
   2297c:	1884703a 	and	r2,r3,r2
   22980:	1001703a 	wrctl	status,r2
   22984:	e0bffd17 	ldw	r2,-12(fp)
   22988:	e0bfff15 	stw	r2,-4(fp)
   2298c:	d0a00a17 	ldw	r2,-32728(gp)
   22990:	10c000c4 	addi	r3,r2,3
   22994:	00bfff04 	movi	r2,-4
   22998:	1884703a 	and	r2,r3,r2
   2299c:	d0a00a15 	stw	r2,-32728(gp)
   229a0:	d0e00a17 	ldw	r3,-32728(gp)
   229a4:	e0bffa17 	ldw	r2,-24(fp)
   229a8:	1887883a 	add	r3,r3,r2
   229ac:	00800134 	movhi	r2,4
   229b0:	10800004 	addi	r2,r2,0
   229b4:	10c0072e 	bgeu	r2,r3,229d4 <sbrk+0x78>
   229b8:	e0bfff17 	ldw	r2,-4(fp)
   229bc:	e0bffc15 	stw	r2,-16(fp)
   229c0:	e0bffc17 	ldw	r2,-16(fp)
   229c4:	1001703a 	wrctl	status,r2
   229c8:	0001883a 	nop
   229cc:	00bfffc4 	movi	r2,-1
   229d0:	00000c06 	br	22a04 <sbrk+0xa8>
   229d4:	d0a00a17 	ldw	r2,-32728(gp)
   229d8:	e0bffe15 	stw	r2,-8(fp)
   229dc:	d0e00a17 	ldw	r3,-32728(gp)
   229e0:	e0bffa17 	ldw	r2,-24(fp)
   229e4:	1885883a 	add	r2,r3,r2
   229e8:	d0a00a15 	stw	r2,-32728(gp)
   229ec:	e0bfff17 	ldw	r2,-4(fp)
   229f0:	e0bffb15 	stw	r2,-20(fp)
   229f4:	e0bffb17 	ldw	r2,-20(fp)
   229f8:	1001703a 	wrctl	status,r2
   229fc:	0001883a 	nop
   22a00:	e0bffe17 	ldw	r2,-8(fp)
   22a04:	e037883a 	mov	sp,fp
   22a08:	df000017 	ldw	fp,0(sp)
   22a0c:	dec00104 	addi	sp,sp,4
   22a10:	f800283a 	ret

00022a14 <usleep>:
   22a14:	defffd04 	addi	sp,sp,-12
   22a18:	dfc00215 	stw	ra,8(sp)
   22a1c:	df000115 	stw	fp,4(sp)
   22a20:	df000104 	addi	fp,sp,4
   22a24:	e13fff15 	stw	r4,-4(fp)
   22a28:	e13fff17 	ldw	r4,-4(fp)
   22a2c:	00239bc0 	call	239bc <alt_busy_sleep>
   22a30:	e037883a 	mov	sp,fp
   22a34:	dfc00117 	ldw	ra,4(sp)
   22a38:	df000017 	ldw	fp,0(sp)
   22a3c:	dec00204 	addi	sp,sp,8
   22a40:	f800283a 	ret

00022a44 <alt_dev_reg>:
   22a44:	defffd04 	addi	sp,sp,-12
   22a48:	dfc00215 	stw	ra,8(sp)
   22a4c:	df000115 	stw	fp,4(sp)
   22a50:	df000104 	addi	fp,sp,4
   22a54:	e13fff15 	stw	r4,-4(fp)
   22a58:	d1600d04 	addi	r5,gp,-32716
   22a5c:	e13fff17 	ldw	r4,-4(fp)
   22a60:	0023cb40 	call	23cb4 <alt_dev_llist_insert>
   22a64:	e037883a 	mov	sp,fp
   22a68:	dfc00117 	ldw	ra,4(sp)
   22a6c:	df000017 	ldw	fp,0(sp)
   22a70:	dec00204 	addi	sp,sp,8
   22a74:	f800283a 	ret

00022a78 <alt_irq_init>:
   22a78:	defffd04 	addi	sp,sp,-12
   22a7c:	dfc00215 	stw	ra,8(sp)
   22a80:	df000115 	stw	fp,4(sp)
   22a84:	df000104 	addi	fp,sp,4
   22a88:	e13fff15 	stw	r4,-4(fp)
   22a8c:	00246c00 	call	246c0 <altera_nios2_gen2_irq_init>
   22a90:	00800044 	movi	r2,1
   22a94:	1001703a 	wrctl	status,r2
   22a98:	0001883a 	nop
   22a9c:	0001883a 	nop
   22aa0:	e037883a 	mov	sp,fp
   22aa4:	dfc00117 	ldw	ra,4(sp)
   22aa8:	df000017 	ldw	fp,0(sp)
   22aac:	dec00204 	addi	sp,sp,8
   22ab0:	f800283a 	ret

00022ab4 <alt_sys_init>:
   22ab4:	defffe04 	addi	sp,sp,-8
   22ab8:	dfc00115 	stw	ra,4(sp)
   22abc:	df000015 	stw	fp,0(sp)
   22ac0:	d839883a 	mov	fp,sp
   22ac4:	01c0fa04 	movi	r7,1000
   22ac8:	01800084 	movi	r6,2
   22acc:	000b883a 	mov	r5,zero
   22ad0:	01000134 	movhi	r4,4
   22ad4:	21040004 	addi	r4,r4,4096
   22ad8:	00238040 	call	23804 <alt_avalon_timer_sc_init>
   22adc:	000d883a 	mov	r6,zero
   22ae0:	000b883a 	mov	r5,zero
   22ae4:	010000b4 	movhi	r4,2
   22ae8:	2116df04 	addi	r4,r4,23420
   22aec:	0022c7c0 	call	22c7c <altera_avalon_jtag_uart_init>
   22af0:	010000b4 	movhi	r4,2
   22af4:	2116d504 	addi	r4,r4,23380
   22af8:	0022a440 	call	22a44 <alt_dev_reg>
   22afc:	0001883a 	nop
   22b00:	0001883a 	nop
   22b04:	e037883a 	mov	sp,fp
   22b08:	dfc00117 	ldw	ra,4(sp)
   22b0c:	df000017 	ldw	fp,0(sp)
   22b10:	dec00204 	addi	sp,sp,8
   22b14:	f800283a 	ret

00022b18 <altera_avalon_jtag_uart_read_fd>:
   22b18:	defffa04 	addi	sp,sp,-24
   22b1c:	dfc00515 	stw	ra,20(sp)
   22b20:	df000415 	stw	fp,16(sp)
   22b24:	df000404 	addi	fp,sp,16
   22b28:	e13ffe15 	stw	r4,-8(fp)
   22b2c:	e17ffd15 	stw	r5,-12(fp)
   22b30:	e1bffc15 	stw	r6,-16(fp)
   22b34:	e0bffe17 	ldw	r2,-8(fp)
   22b38:	10800017 	ldw	r2,0(r2)
   22b3c:	e0bfff15 	stw	r2,-4(fp)
   22b40:	e0bfff17 	ldw	r2,-4(fp)
   22b44:	10c00a04 	addi	r3,r2,40
   22b48:	e0bffe17 	ldw	r2,-8(fp)
   22b4c:	10800217 	ldw	r2,8(r2)
   22b50:	100f883a 	mov	r7,r2
   22b54:	e1bffc17 	ldw	r6,-16(fp)
   22b58:	e17ffd17 	ldw	r5,-12(fp)
   22b5c:	1809883a 	mov	r4,r3
   22b60:	00231440 	call	23144 <altera_avalon_jtag_uart_read>
   22b64:	e037883a 	mov	sp,fp
   22b68:	dfc00117 	ldw	ra,4(sp)
   22b6c:	df000017 	ldw	fp,0(sp)
   22b70:	dec00204 	addi	sp,sp,8
   22b74:	f800283a 	ret

00022b78 <altera_avalon_jtag_uart_write_fd>:
   22b78:	defffa04 	addi	sp,sp,-24
   22b7c:	dfc00515 	stw	ra,20(sp)
   22b80:	df000415 	stw	fp,16(sp)
   22b84:	df000404 	addi	fp,sp,16
   22b88:	e13ffe15 	stw	r4,-8(fp)
   22b8c:	e17ffd15 	stw	r5,-12(fp)
   22b90:	e1bffc15 	stw	r6,-16(fp)
   22b94:	e0bffe17 	ldw	r2,-8(fp)
   22b98:	10800017 	ldw	r2,0(r2)
   22b9c:	e0bfff15 	stw	r2,-4(fp)
   22ba0:	e0bfff17 	ldw	r2,-4(fp)
   22ba4:	10c00a04 	addi	r3,r2,40
   22ba8:	e0bffe17 	ldw	r2,-8(fp)
   22bac:	10800217 	ldw	r2,8(r2)
   22bb0:	100f883a 	mov	r7,r2
   22bb4:	e1bffc17 	ldw	r6,-16(fp)
   22bb8:	e17ffd17 	ldw	r5,-12(fp)
   22bbc:	1809883a 	mov	r4,r3
   22bc0:	00233640 	call	23364 <altera_avalon_jtag_uart_write>
   22bc4:	e037883a 	mov	sp,fp
   22bc8:	dfc00117 	ldw	ra,4(sp)
   22bcc:	df000017 	ldw	fp,0(sp)
   22bd0:	dec00204 	addi	sp,sp,8
   22bd4:	f800283a 	ret

00022bd8 <altera_avalon_jtag_uart_close_fd>:
   22bd8:	defffc04 	addi	sp,sp,-16
   22bdc:	dfc00315 	stw	ra,12(sp)
   22be0:	df000215 	stw	fp,8(sp)
   22be4:	df000204 	addi	fp,sp,8
   22be8:	e13ffe15 	stw	r4,-8(fp)
   22bec:	e0bffe17 	ldw	r2,-8(fp)
   22bf0:	10800017 	ldw	r2,0(r2)
   22bf4:	e0bfff15 	stw	r2,-4(fp)
   22bf8:	e0bfff17 	ldw	r2,-4(fp)
   22bfc:	10c00a04 	addi	r3,r2,40
   22c00:	e0bffe17 	ldw	r2,-8(fp)
   22c04:	10800217 	ldw	r2,8(r2)
   22c08:	100b883a 	mov	r5,r2
   22c0c:	1809883a 	mov	r4,r3
   22c10:	0022fe80 	call	22fe8 <altera_avalon_jtag_uart_close>
   22c14:	e037883a 	mov	sp,fp
   22c18:	dfc00117 	ldw	ra,4(sp)
   22c1c:	df000017 	ldw	fp,0(sp)
   22c20:	dec00204 	addi	sp,sp,8
   22c24:	f800283a 	ret

00022c28 <altera_avalon_jtag_uart_ioctl_fd>:
   22c28:	defffa04 	addi	sp,sp,-24
   22c2c:	dfc00515 	stw	ra,20(sp)
   22c30:	df000415 	stw	fp,16(sp)
   22c34:	df000404 	addi	fp,sp,16
   22c38:	e13ffe15 	stw	r4,-8(fp)
   22c3c:	e17ffd15 	stw	r5,-12(fp)
   22c40:	e1bffc15 	stw	r6,-16(fp)
   22c44:	e0bffe17 	ldw	r2,-8(fp)
   22c48:	10800017 	ldw	r2,0(r2)
   22c4c:	e0bfff15 	stw	r2,-4(fp)
   22c50:	e0bfff17 	ldw	r2,-4(fp)
   22c54:	10800a04 	addi	r2,r2,40
   22c58:	e1bffc17 	ldw	r6,-16(fp)
   22c5c:	e17ffd17 	ldw	r5,-12(fp)
   22c60:	1009883a 	mov	r4,r2
   22c64:	00230500 	call	23050 <altera_avalon_jtag_uart_ioctl>
   22c68:	e037883a 	mov	sp,fp
   22c6c:	dfc00117 	ldw	ra,4(sp)
   22c70:	df000017 	ldw	fp,0(sp)
   22c74:	dec00204 	addi	sp,sp,8
   22c78:	f800283a 	ret

00022c7c <altera_avalon_jtag_uart_init>:
   22c7c:	defffa04 	addi	sp,sp,-24
   22c80:	dfc00515 	stw	ra,20(sp)
   22c84:	df000415 	stw	fp,16(sp)
   22c88:	df000404 	addi	fp,sp,16
   22c8c:	e13fff15 	stw	r4,-4(fp)
   22c90:	e17ffe15 	stw	r5,-8(fp)
   22c94:	e1bffd15 	stw	r6,-12(fp)
   22c98:	e0bfff17 	ldw	r2,-4(fp)
   22c9c:	00c00044 	movi	r3,1
   22ca0:	10c00815 	stw	r3,32(r2)
   22ca4:	e0bfff17 	ldw	r2,-4(fp)
   22ca8:	10800017 	ldw	r2,0(r2)
   22cac:	10800104 	addi	r2,r2,4
   22cb0:	1007883a 	mov	r3,r2
   22cb4:	e0bfff17 	ldw	r2,-4(fp)
   22cb8:	10800817 	ldw	r2,32(r2)
   22cbc:	18800035 	stwio	r2,0(r3)
   22cc0:	e0bffe17 	ldw	r2,-8(fp)
   22cc4:	e0fffd17 	ldw	r3,-12(fp)
   22cc8:	d8000015 	stw	zero,0(sp)
   22ccc:	e1ffff17 	ldw	r7,-4(fp)
   22cd0:	018000b4 	movhi	r6,2
   22cd4:	318b4f04 	addi	r6,r6,11580
   22cd8:	180b883a 	mov	r5,r3
   22cdc:	1009883a 	mov	r4,r2
   22ce0:	0023e440 	call	23e44 <alt_ic_isr_register>
   22ce4:	e0bfff17 	ldw	r2,-4(fp)
   22ce8:	10000915 	stw	zero,36(r2)
   22cec:	e0bfff17 	ldw	r2,-4(fp)
   22cf0:	10800204 	addi	r2,r2,8
   22cf4:	d0e6bd17 	ldw	r3,-25868(gp)
   22cf8:	e1ffff17 	ldw	r7,-4(fp)
   22cfc:	018000b4 	movhi	r6,2
   22d00:	318bd204 	addi	r6,r6,12104
   22d04:	180b883a 	mov	r5,r3
   22d08:	1009883a 	mov	r4,r2
   22d0c:	00238880 	call	23888 <alt_alarm_start>
   22d10:	1000040e 	bge	r2,zero,22d24 <altera_avalon_jtag_uart_init+0xa8>
   22d14:	e0ffff17 	ldw	r3,-4(fp)
   22d18:	00a00034 	movhi	r2,32768
   22d1c:	10bfffc4 	addi	r2,r2,-1
   22d20:	18800115 	stw	r2,4(r3)
   22d24:	0001883a 	nop
   22d28:	e037883a 	mov	sp,fp
   22d2c:	dfc00117 	ldw	ra,4(sp)
   22d30:	df000017 	ldw	fp,0(sp)
   22d34:	dec00204 	addi	sp,sp,8
   22d38:	f800283a 	ret

00022d3c <altera_avalon_jtag_uart_irq>:
   22d3c:	defff804 	addi	sp,sp,-32
   22d40:	df000715 	stw	fp,28(sp)
   22d44:	df000704 	addi	fp,sp,28
   22d48:	e13ff915 	stw	r4,-28(fp)
   22d4c:	e0bff917 	ldw	r2,-28(fp)
   22d50:	e0bffd15 	stw	r2,-12(fp)
   22d54:	e0bffd17 	ldw	r2,-12(fp)
   22d58:	10800017 	ldw	r2,0(r2)
   22d5c:	e0bffc15 	stw	r2,-16(fp)
   22d60:	e0bffc17 	ldw	r2,-16(fp)
   22d64:	10800104 	addi	r2,r2,4
   22d68:	10800037 	ldwio	r2,0(r2)
   22d6c:	e0bffb15 	stw	r2,-20(fp)
   22d70:	e0bffb17 	ldw	r2,-20(fp)
   22d74:	1080c00c 	andi	r2,r2,768
   22d78:	10006d26 	beq	r2,zero,22f30 <altera_avalon_jtag_uart_irq+0x1f4>
   22d7c:	e0bffb17 	ldw	r2,-20(fp)
   22d80:	1080400c 	andi	r2,r2,256
   22d84:	10003526 	beq	r2,zero,22e5c <altera_avalon_jtag_uart_irq+0x120>
   22d88:	00800074 	movhi	r2,1
   22d8c:	e0bfff15 	stw	r2,-4(fp)
   22d90:	e0bffd17 	ldw	r2,-12(fp)
   22d94:	10800a17 	ldw	r2,40(r2)
   22d98:	10800044 	addi	r2,r2,1
   22d9c:	1081ffcc 	andi	r2,r2,2047
   22da0:	e0bffa15 	stw	r2,-24(fp)
   22da4:	e0bffd17 	ldw	r2,-12(fp)
   22da8:	10800b17 	ldw	r2,44(r2)
   22dac:	e0fffa17 	ldw	r3,-24(fp)
   22db0:	18801526 	beq	r3,r2,22e08 <altera_avalon_jtag_uart_irq+0xcc>
   22db4:	e0bffc17 	ldw	r2,-16(fp)
   22db8:	10800037 	ldwio	r2,0(r2)
   22dbc:	e0bfff15 	stw	r2,-4(fp)
   22dc0:	e0bfff17 	ldw	r2,-4(fp)
   22dc4:	10a0000c 	andi	r2,r2,32768
   22dc8:	10001126 	beq	r2,zero,22e10 <altera_avalon_jtag_uart_irq+0xd4>
   22dcc:	e0bffd17 	ldw	r2,-12(fp)
   22dd0:	10800a17 	ldw	r2,40(r2)
   22dd4:	e0ffff17 	ldw	r3,-4(fp)
   22dd8:	1809883a 	mov	r4,r3
   22ddc:	e0fffd17 	ldw	r3,-12(fp)
   22de0:	1885883a 	add	r2,r3,r2
   22de4:	11000e05 	stb	r4,56(r2)
   22de8:	e0bffd17 	ldw	r2,-12(fp)
   22dec:	10800a17 	ldw	r2,40(r2)
   22df0:	10800044 	addi	r2,r2,1
   22df4:	10c1ffcc 	andi	r3,r2,2047
   22df8:	e0bffd17 	ldw	r2,-12(fp)
   22dfc:	10c00a15 	stw	r3,40(r2)
   22e00:	0001883a 	nop
   22e04:	003fe206 	br	22d90 <altera_avalon_jtag_uart_irq+0x54>
   22e08:	0001883a 	nop
   22e0c:	00000106 	br	22e14 <altera_avalon_jtag_uart_irq+0xd8>
   22e10:	0001883a 	nop
   22e14:	e0bfff17 	ldw	r2,-4(fp)
   22e18:	10bfffec 	andhi	r2,r2,65535
   22e1c:	10000f26 	beq	r2,zero,22e5c <altera_avalon_jtag_uart_irq+0x120>
   22e20:	e0bffd17 	ldw	r2,-12(fp)
   22e24:	10c00817 	ldw	r3,32(r2)
   22e28:	00bfff84 	movi	r2,-2
   22e2c:	1886703a 	and	r3,r3,r2
   22e30:	e0bffd17 	ldw	r2,-12(fp)
   22e34:	10c00815 	stw	r3,32(r2)
   22e38:	e0bffc17 	ldw	r2,-16(fp)
   22e3c:	10800104 	addi	r2,r2,4
   22e40:	1007883a 	mov	r3,r2
   22e44:	e0bffd17 	ldw	r2,-12(fp)
   22e48:	10800817 	ldw	r2,32(r2)
   22e4c:	18800035 	stwio	r2,0(r3)
   22e50:	e0bffc17 	ldw	r2,-16(fp)
   22e54:	10800104 	addi	r2,r2,4
   22e58:	10800037 	ldwio	r2,0(r2)
   22e5c:	e0bffb17 	ldw	r2,-20(fp)
   22e60:	1080800c 	andi	r2,r2,512
   22e64:	103fbe26 	beq	r2,zero,22d60 <altera_avalon_jtag_uart_irq+0x24>
   22e68:	e0bffb17 	ldw	r2,-20(fp)
   22e6c:	1004d43a 	srli	r2,r2,16
   22e70:	e0bffe15 	stw	r2,-8(fp)
   22e74:	00001406 	br	22ec8 <altera_avalon_jtag_uart_irq+0x18c>
   22e78:	e0bffc17 	ldw	r2,-16(fp)
   22e7c:	e0fffd17 	ldw	r3,-12(fp)
   22e80:	18c00d17 	ldw	r3,52(r3)
   22e84:	e13ffd17 	ldw	r4,-12(fp)
   22e88:	20c7883a 	add	r3,r4,r3
   22e8c:	18c20e03 	ldbu	r3,2104(r3)
   22e90:	18c03fcc 	andi	r3,r3,255
   22e94:	18c0201c 	xori	r3,r3,128
   22e98:	18ffe004 	addi	r3,r3,-128
   22e9c:	10c00035 	stwio	r3,0(r2)
   22ea0:	e0bffd17 	ldw	r2,-12(fp)
   22ea4:	10800d17 	ldw	r2,52(r2)
   22ea8:	10800044 	addi	r2,r2,1
   22eac:	10c1ffcc 	andi	r3,r2,2047
   22eb0:	e0bffd17 	ldw	r2,-12(fp)
   22eb4:	10c00d15 	stw	r3,52(r2)
   22eb8:	0001883a 	nop
   22ebc:	e0bffe17 	ldw	r2,-8(fp)
   22ec0:	10bfffc4 	addi	r2,r2,-1
   22ec4:	e0bffe15 	stw	r2,-8(fp)
   22ec8:	e0bffe17 	ldw	r2,-8(fp)
   22ecc:	10000526 	beq	r2,zero,22ee4 <altera_avalon_jtag_uart_irq+0x1a8>
   22ed0:	e0bffd17 	ldw	r2,-12(fp)
   22ed4:	10c00d17 	ldw	r3,52(r2)
   22ed8:	e0bffd17 	ldw	r2,-12(fp)
   22edc:	10800c17 	ldw	r2,48(r2)
   22ee0:	18bfe51e 	bne	r3,r2,22e78 <altera_avalon_jtag_uart_irq+0x13c>
   22ee4:	e0bffe17 	ldw	r2,-8(fp)
   22ee8:	103f9d26 	beq	r2,zero,22d60 <altera_avalon_jtag_uart_irq+0x24>
   22eec:	e0bffd17 	ldw	r2,-12(fp)
   22ef0:	10c00817 	ldw	r3,32(r2)
   22ef4:	00bfff44 	movi	r2,-3
   22ef8:	1886703a 	and	r3,r3,r2
   22efc:	e0bffd17 	ldw	r2,-12(fp)
   22f00:	10c00815 	stw	r3,32(r2)
   22f04:	e0bffd17 	ldw	r2,-12(fp)
   22f08:	10800017 	ldw	r2,0(r2)
   22f0c:	10800104 	addi	r2,r2,4
   22f10:	1007883a 	mov	r3,r2
   22f14:	e0bffd17 	ldw	r2,-12(fp)
   22f18:	10800817 	ldw	r2,32(r2)
   22f1c:	18800035 	stwio	r2,0(r3)
   22f20:	e0bffc17 	ldw	r2,-16(fp)
   22f24:	10800104 	addi	r2,r2,4
   22f28:	10800037 	ldwio	r2,0(r2)
   22f2c:	003f8c06 	br	22d60 <altera_avalon_jtag_uart_irq+0x24>
   22f30:	0001883a 	nop
   22f34:	0001883a 	nop
   22f38:	e037883a 	mov	sp,fp
   22f3c:	df000017 	ldw	fp,0(sp)
   22f40:	dec00104 	addi	sp,sp,4
   22f44:	f800283a 	ret

00022f48 <altera_avalon_jtag_uart_timeout>:
   22f48:	defffc04 	addi	sp,sp,-16
   22f4c:	df000315 	stw	fp,12(sp)
   22f50:	df000304 	addi	fp,sp,12
   22f54:	e13ffd15 	stw	r4,-12(fp)
   22f58:	e0bffd17 	ldw	r2,-12(fp)
   22f5c:	e0bfff15 	stw	r2,-4(fp)
   22f60:	e0bfff17 	ldw	r2,-4(fp)
   22f64:	10800017 	ldw	r2,0(r2)
   22f68:	10800104 	addi	r2,r2,4
   22f6c:	10800037 	ldwio	r2,0(r2)
   22f70:	e0bffe15 	stw	r2,-8(fp)
   22f74:	e0bffe17 	ldw	r2,-8(fp)
   22f78:	1081000c 	andi	r2,r2,1024
   22f7c:	10000b26 	beq	r2,zero,22fac <altera_avalon_jtag_uart_timeout+0x64>
   22f80:	e0bfff17 	ldw	r2,-4(fp)
   22f84:	10800017 	ldw	r2,0(r2)
   22f88:	10800104 	addi	r2,r2,4
   22f8c:	1007883a 	mov	r3,r2
   22f90:	e0bfff17 	ldw	r2,-4(fp)
   22f94:	10800817 	ldw	r2,32(r2)
   22f98:	10810014 	ori	r2,r2,1024
   22f9c:	18800035 	stwio	r2,0(r3)
   22fa0:	e0bfff17 	ldw	r2,-4(fp)
   22fa4:	10000915 	stw	zero,36(r2)
   22fa8:	00000a06 	br	22fd4 <altera_avalon_jtag_uart_timeout+0x8c>
   22fac:	e0bfff17 	ldw	r2,-4(fp)
   22fb0:	10c00917 	ldw	r3,36(r2)
   22fb4:	00a00034 	movhi	r2,32768
   22fb8:	10bfff04 	addi	r2,r2,-4
   22fbc:	10c00536 	bltu	r2,r3,22fd4 <altera_avalon_jtag_uart_timeout+0x8c>
   22fc0:	e0bfff17 	ldw	r2,-4(fp)
   22fc4:	10800917 	ldw	r2,36(r2)
   22fc8:	10c00044 	addi	r3,r2,1
   22fcc:	e0bfff17 	ldw	r2,-4(fp)
   22fd0:	10c00915 	stw	r3,36(r2)
   22fd4:	d0a6bd17 	ldw	r2,-25868(gp)
   22fd8:	e037883a 	mov	sp,fp
   22fdc:	df000017 	ldw	fp,0(sp)
   22fe0:	dec00104 	addi	sp,sp,4
   22fe4:	f800283a 	ret

00022fe8 <altera_avalon_jtag_uart_close>:
   22fe8:	defffd04 	addi	sp,sp,-12
   22fec:	df000215 	stw	fp,8(sp)
   22ff0:	df000204 	addi	fp,sp,8
   22ff4:	e13fff15 	stw	r4,-4(fp)
   22ff8:	e17ffe15 	stw	r5,-8(fp)
   22ffc:	00000506 	br	23014 <altera_avalon_jtag_uart_close+0x2c>
   23000:	e0bffe17 	ldw	r2,-8(fp)
   23004:	1090000c 	andi	r2,r2,16384
   23008:	10000226 	beq	r2,zero,23014 <altera_avalon_jtag_uart_close+0x2c>
   2300c:	00bffd44 	movi	r2,-11
   23010:	00000b06 	br	23040 <altera_avalon_jtag_uart_close+0x58>
   23014:	e0bfff17 	ldw	r2,-4(fp)
   23018:	10c00d17 	ldw	r3,52(r2)
   2301c:	e0bfff17 	ldw	r2,-4(fp)
   23020:	10800c17 	ldw	r2,48(r2)
   23024:	18800526 	beq	r3,r2,2303c <altera_avalon_jtag_uart_close+0x54>
   23028:	e0bfff17 	ldw	r2,-4(fp)
   2302c:	10c00917 	ldw	r3,36(r2)
   23030:	e0bfff17 	ldw	r2,-4(fp)
   23034:	10800117 	ldw	r2,4(r2)
   23038:	18bff136 	bltu	r3,r2,23000 <altera_avalon_jtag_uart_close+0x18>
   2303c:	0005883a 	mov	r2,zero
   23040:	e037883a 	mov	sp,fp
   23044:	df000017 	ldw	fp,0(sp)
   23048:	dec00104 	addi	sp,sp,4
   2304c:	f800283a 	ret

00023050 <altera_avalon_jtag_uart_ioctl>:
   23050:	defffa04 	addi	sp,sp,-24
   23054:	df000515 	stw	fp,20(sp)
   23058:	df000504 	addi	fp,sp,20
   2305c:	e13ffd15 	stw	r4,-12(fp)
   23060:	e17ffc15 	stw	r5,-16(fp)
   23064:	e1bffb15 	stw	r6,-20(fp)
   23068:	00bff9c4 	movi	r2,-25
   2306c:	e0bfff15 	stw	r2,-4(fp)
   23070:	e0bffc17 	ldw	r2,-16(fp)
   23074:	109a8060 	cmpeqi	r2,r2,27137
   23078:	1000041e 	bne	r2,zero,2308c <altera_avalon_jtag_uart_ioctl+0x3c>
   2307c:	e0bffc17 	ldw	r2,-16(fp)
   23080:	109a80a0 	cmpeqi	r2,r2,27138
   23084:	1000181e 	bne	r2,zero,230e8 <altera_avalon_jtag_uart_ioctl+0x98>
   23088:	00002906 	br	23130 <altera_avalon_jtag_uart_ioctl+0xe0>
   2308c:	e0bffd17 	ldw	r2,-12(fp)
   23090:	10c00117 	ldw	r3,4(r2)
   23094:	00a00034 	movhi	r2,32768
   23098:	10bfffc4 	addi	r2,r2,-1
   2309c:	18802126 	beq	r3,r2,23124 <altera_avalon_jtag_uart_ioctl+0xd4>
   230a0:	e0bffb17 	ldw	r2,-20(fp)
   230a4:	10800017 	ldw	r2,0(r2)
   230a8:	e0bffe15 	stw	r2,-8(fp)
   230ac:	e0bffe17 	ldw	r2,-8(fp)
   230b0:	10800090 	cmplti	r2,r2,2
   230b4:	1000061e 	bne	r2,zero,230d0 <altera_avalon_jtag_uart_ioctl+0x80>
   230b8:	e0fffe17 	ldw	r3,-8(fp)
   230bc:	00a00034 	movhi	r2,32768
   230c0:	10bfffc4 	addi	r2,r2,-1
   230c4:	18800226 	beq	r3,r2,230d0 <altera_avalon_jtag_uart_ioctl+0x80>
   230c8:	e0bffe17 	ldw	r2,-8(fp)
   230cc:	00000206 	br	230d8 <altera_avalon_jtag_uart_ioctl+0x88>
   230d0:	00a00034 	movhi	r2,32768
   230d4:	10bfff84 	addi	r2,r2,-2
   230d8:	e0fffd17 	ldw	r3,-12(fp)
   230dc:	18800115 	stw	r2,4(r3)
   230e0:	e03fff15 	stw	zero,-4(fp)
   230e4:	00000f06 	br	23124 <altera_avalon_jtag_uart_ioctl+0xd4>
   230e8:	e0bffd17 	ldw	r2,-12(fp)
   230ec:	10c00117 	ldw	r3,4(r2)
   230f0:	00a00034 	movhi	r2,32768
   230f4:	10bfffc4 	addi	r2,r2,-1
   230f8:	18800c26 	beq	r3,r2,2312c <altera_avalon_jtag_uart_ioctl+0xdc>
   230fc:	e0bffd17 	ldw	r2,-12(fp)
   23100:	10c00917 	ldw	r3,36(r2)
   23104:	e0bffd17 	ldw	r2,-12(fp)
   23108:	10800117 	ldw	r2,4(r2)
   2310c:	1885803a 	cmpltu	r2,r3,r2
   23110:	10c03fcc 	andi	r3,r2,255
   23114:	e0bffb17 	ldw	r2,-20(fp)
   23118:	10c00015 	stw	r3,0(r2)
   2311c:	e03fff15 	stw	zero,-4(fp)
   23120:	00000206 	br	2312c <altera_avalon_jtag_uart_ioctl+0xdc>
   23124:	0001883a 	nop
   23128:	00000106 	br	23130 <altera_avalon_jtag_uart_ioctl+0xe0>
   2312c:	0001883a 	nop
   23130:	e0bfff17 	ldw	r2,-4(fp)
   23134:	e037883a 	mov	sp,fp
   23138:	df000017 	ldw	fp,0(sp)
   2313c:	dec00104 	addi	sp,sp,4
   23140:	f800283a 	ret

00023144 <altera_avalon_jtag_uart_read>:
   23144:	defff304 	addi	sp,sp,-52
   23148:	dfc00c15 	stw	ra,48(sp)
   2314c:	df000b15 	stw	fp,44(sp)
   23150:	df000b04 	addi	fp,sp,44
   23154:	e13ff815 	stw	r4,-32(fp)
   23158:	e17ff715 	stw	r5,-36(fp)
   2315c:	e1bff615 	stw	r6,-40(fp)
   23160:	e1fff515 	stw	r7,-44(fp)
   23164:	e0bff717 	ldw	r2,-36(fp)
   23168:	e0bfff15 	stw	r2,-4(fp)
   2316c:	00004706 	br	2328c <altera_avalon_jtag_uart_read+0x148>
   23170:	e0bff817 	ldw	r2,-32(fp)
   23174:	10800a17 	ldw	r2,40(r2)
   23178:	e0bffd15 	stw	r2,-12(fp)
   2317c:	e0bff817 	ldw	r2,-32(fp)
   23180:	10800b17 	ldw	r2,44(r2)
   23184:	e0bffc15 	stw	r2,-16(fp)
   23188:	e0fffd17 	ldw	r3,-12(fp)
   2318c:	e0bffc17 	ldw	r2,-16(fp)
   23190:	18800536 	bltu	r3,r2,231a8 <altera_avalon_jtag_uart_read+0x64>
   23194:	e0fffd17 	ldw	r3,-12(fp)
   23198:	e0bffc17 	ldw	r2,-16(fp)
   2319c:	1885c83a 	sub	r2,r3,r2
   231a0:	e0bffe15 	stw	r2,-8(fp)
   231a4:	00000406 	br	231b8 <altera_avalon_jtag_uart_read+0x74>
   231a8:	00c20004 	movi	r3,2048
   231ac:	e0bffc17 	ldw	r2,-16(fp)
   231b0:	1885c83a 	sub	r2,r3,r2
   231b4:	e0bffe15 	stw	r2,-8(fp)
   231b8:	e0bffe17 	ldw	r2,-8(fp)
   231bc:	10001e26 	beq	r2,zero,23238 <altera_avalon_jtag_uart_read+0xf4>
   231c0:	e0fff617 	ldw	r3,-40(fp)
   231c4:	e0bffe17 	ldw	r2,-8(fp)
   231c8:	1880022e 	bgeu	r3,r2,231d4 <altera_avalon_jtag_uart_read+0x90>
   231cc:	e0bff617 	ldw	r2,-40(fp)
   231d0:	e0bffe15 	stw	r2,-8(fp)
   231d4:	e0bff817 	ldw	r2,-32(fp)
   231d8:	10c00e04 	addi	r3,r2,56
   231dc:	e0bffc17 	ldw	r2,-16(fp)
   231e0:	1885883a 	add	r2,r3,r2
   231e4:	e1bffe17 	ldw	r6,-8(fp)
   231e8:	100b883a 	mov	r5,r2
   231ec:	e13fff17 	ldw	r4,-4(fp)
   231f0:	0024a8c0 	call	24a8c <memcpy>
   231f4:	e0ffff17 	ldw	r3,-4(fp)
   231f8:	e0bffe17 	ldw	r2,-8(fp)
   231fc:	1885883a 	add	r2,r3,r2
   23200:	e0bfff15 	stw	r2,-4(fp)
   23204:	e0fff617 	ldw	r3,-40(fp)
   23208:	e0bffe17 	ldw	r2,-8(fp)
   2320c:	1885c83a 	sub	r2,r3,r2
   23210:	e0bff615 	stw	r2,-40(fp)
   23214:	e0fffc17 	ldw	r3,-16(fp)
   23218:	e0bffe17 	ldw	r2,-8(fp)
   2321c:	1885883a 	add	r2,r3,r2
   23220:	10c1ffcc 	andi	r3,r2,2047
   23224:	e0bff817 	ldw	r2,-32(fp)
   23228:	10c00b15 	stw	r3,44(r2)
   2322c:	e0bff617 	ldw	r2,-40(fp)
   23230:	00bfcf16 	blt	zero,r2,23170 <altera_avalon_jtag_uart_read+0x2c>
   23234:	00000106 	br	2323c <altera_avalon_jtag_uart_read+0xf8>
   23238:	0001883a 	nop
   2323c:	e0ffff17 	ldw	r3,-4(fp)
   23240:	e0bff717 	ldw	r2,-36(fp)
   23244:	1880141e 	bne	r3,r2,23298 <altera_avalon_jtag_uart_read+0x154>
   23248:	e0bff517 	ldw	r2,-44(fp)
   2324c:	1090000c 	andi	r2,r2,16384
   23250:	1000131e 	bne	r2,zero,232a0 <altera_avalon_jtag_uart_read+0x15c>
   23254:	0001883a 	nop
   23258:	e0bff817 	ldw	r2,-32(fp)
   2325c:	10800a17 	ldw	r2,40(r2)
   23260:	e0fffd17 	ldw	r3,-12(fp)
   23264:	1880051e 	bne	r3,r2,2327c <altera_avalon_jtag_uart_read+0x138>
   23268:	e0bff817 	ldw	r2,-32(fp)
   2326c:	10c00917 	ldw	r3,36(r2)
   23270:	e0bff817 	ldw	r2,-32(fp)
   23274:	10800117 	ldw	r2,4(r2)
   23278:	18bff736 	bltu	r3,r2,23258 <altera_avalon_jtag_uart_read+0x114>
   2327c:	e0bff817 	ldw	r2,-32(fp)
   23280:	10800a17 	ldw	r2,40(r2)
   23284:	e0fffd17 	ldw	r3,-12(fp)
   23288:	18800726 	beq	r3,r2,232a8 <altera_avalon_jtag_uart_read+0x164>
   2328c:	e0bff617 	ldw	r2,-40(fp)
   23290:	00bfb716 	blt	zero,r2,23170 <altera_avalon_jtag_uart_read+0x2c>
   23294:	00000506 	br	232ac <altera_avalon_jtag_uart_read+0x168>
   23298:	0001883a 	nop
   2329c:	00000306 	br	232ac <altera_avalon_jtag_uart_read+0x168>
   232a0:	0001883a 	nop
   232a4:	00000106 	br	232ac <altera_avalon_jtag_uart_read+0x168>
   232a8:	0001883a 	nop
   232ac:	e0ffff17 	ldw	r3,-4(fp)
   232b0:	e0bff717 	ldw	r2,-36(fp)
   232b4:	18801926 	beq	r3,r2,2331c <altera_avalon_jtag_uart_read+0x1d8>
   232b8:	0005303a 	rdctl	r2,status
   232bc:	e0bff915 	stw	r2,-28(fp)
   232c0:	e0fff917 	ldw	r3,-28(fp)
   232c4:	00bfff84 	movi	r2,-2
   232c8:	1884703a 	and	r2,r3,r2
   232cc:	1001703a 	wrctl	status,r2
   232d0:	e0bff917 	ldw	r2,-28(fp)
   232d4:	e0bffb15 	stw	r2,-20(fp)
   232d8:	e0bff817 	ldw	r2,-32(fp)
   232dc:	10800817 	ldw	r2,32(r2)
   232e0:	10c00054 	ori	r3,r2,1
   232e4:	e0bff817 	ldw	r2,-32(fp)
   232e8:	10c00815 	stw	r3,32(r2)
   232ec:	e0bff817 	ldw	r2,-32(fp)
   232f0:	10800017 	ldw	r2,0(r2)
   232f4:	10800104 	addi	r2,r2,4
   232f8:	1007883a 	mov	r3,r2
   232fc:	e0bff817 	ldw	r2,-32(fp)
   23300:	10800817 	ldw	r2,32(r2)
   23304:	18800035 	stwio	r2,0(r3)
   23308:	e0bffb17 	ldw	r2,-20(fp)
   2330c:	e0bffa15 	stw	r2,-24(fp)
   23310:	e0bffa17 	ldw	r2,-24(fp)
   23314:	1001703a 	wrctl	status,r2
   23318:	0001883a 	nop
   2331c:	e0ffff17 	ldw	r3,-4(fp)
   23320:	e0bff717 	ldw	r2,-36(fp)
   23324:	18800426 	beq	r3,r2,23338 <altera_avalon_jtag_uart_read+0x1f4>
   23328:	e0ffff17 	ldw	r3,-4(fp)
   2332c:	e0bff717 	ldw	r2,-36(fp)
   23330:	1885c83a 	sub	r2,r3,r2
   23334:	00000606 	br	23350 <altera_avalon_jtag_uart_read+0x20c>
   23338:	e0bff517 	ldw	r2,-44(fp)
   2333c:	1090000c 	andi	r2,r2,16384
   23340:	10000226 	beq	r2,zero,2334c <altera_avalon_jtag_uart_read+0x208>
   23344:	00bffd44 	movi	r2,-11
   23348:	00000106 	br	23350 <altera_avalon_jtag_uart_read+0x20c>
   2334c:	00bffec4 	movi	r2,-5
   23350:	e037883a 	mov	sp,fp
   23354:	dfc00117 	ldw	ra,4(sp)
   23358:	df000017 	ldw	fp,0(sp)
   2335c:	dec00204 	addi	sp,sp,8
   23360:	f800283a 	ret

00023364 <altera_avalon_jtag_uart_write>:
   23364:	defff304 	addi	sp,sp,-52
   23368:	dfc00c15 	stw	ra,48(sp)
   2336c:	df000b15 	stw	fp,44(sp)
   23370:	df000b04 	addi	fp,sp,44
   23374:	e13ff815 	stw	r4,-32(fp)
   23378:	e17ff715 	stw	r5,-36(fp)
   2337c:	e1bff615 	stw	r6,-40(fp)
   23380:	e1fff515 	stw	r7,-44(fp)
   23384:	e03fff15 	stw	zero,-4(fp)
   23388:	e0bff717 	ldw	r2,-36(fp)
   2338c:	e0bffd15 	stw	r2,-12(fp)
   23390:	00003706 	br	23470 <altera_avalon_jtag_uart_write+0x10c>
   23394:	e0bff817 	ldw	r2,-32(fp)
   23398:	10800c17 	ldw	r2,48(r2)
   2339c:	e0bffc15 	stw	r2,-16(fp)
   233a0:	e0bff817 	ldw	r2,-32(fp)
   233a4:	10800d17 	ldw	r2,52(r2)
   233a8:	e0bfff15 	stw	r2,-4(fp)
   233ac:	e0fffc17 	ldw	r3,-16(fp)
   233b0:	e0bfff17 	ldw	r2,-4(fp)
   233b4:	1880062e 	bgeu	r3,r2,233d0 <altera_avalon_jtag_uart_write+0x6c>
   233b8:	e0ffff17 	ldw	r3,-4(fp)
   233bc:	e0bffc17 	ldw	r2,-16(fp)
   233c0:	1885c83a 	sub	r2,r3,r2
   233c4:	10bfffc4 	addi	r2,r2,-1
   233c8:	e0bffe15 	stw	r2,-8(fp)
   233cc:	00000b06 	br	233fc <altera_avalon_jtag_uart_write+0x98>
   233d0:	e0bfff17 	ldw	r2,-4(fp)
   233d4:	10000526 	beq	r2,zero,233ec <altera_avalon_jtag_uart_write+0x88>
   233d8:	00c20004 	movi	r3,2048
   233dc:	e0bffc17 	ldw	r2,-16(fp)
   233e0:	1885c83a 	sub	r2,r3,r2
   233e4:	e0bffe15 	stw	r2,-8(fp)
   233e8:	00000406 	br	233fc <altera_avalon_jtag_uart_write+0x98>
   233ec:	00c1ffc4 	movi	r3,2047
   233f0:	e0bffc17 	ldw	r2,-16(fp)
   233f4:	1885c83a 	sub	r2,r3,r2
   233f8:	e0bffe15 	stw	r2,-8(fp)
   233fc:	e0bffe17 	ldw	r2,-8(fp)
   23400:	10001e26 	beq	r2,zero,2347c <altera_avalon_jtag_uart_write+0x118>
   23404:	e0fff617 	ldw	r3,-40(fp)
   23408:	e0bffe17 	ldw	r2,-8(fp)
   2340c:	1880022e 	bgeu	r3,r2,23418 <altera_avalon_jtag_uart_write+0xb4>
   23410:	e0bff617 	ldw	r2,-40(fp)
   23414:	e0bffe15 	stw	r2,-8(fp)
   23418:	e0bff817 	ldw	r2,-32(fp)
   2341c:	10c20e04 	addi	r3,r2,2104
   23420:	e0bffc17 	ldw	r2,-16(fp)
   23424:	1885883a 	add	r2,r3,r2
   23428:	e1bffe17 	ldw	r6,-8(fp)
   2342c:	e17ff717 	ldw	r5,-36(fp)
   23430:	1009883a 	mov	r4,r2
   23434:	0024a8c0 	call	24a8c <memcpy>
   23438:	e0fff717 	ldw	r3,-36(fp)
   2343c:	e0bffe17 	ldw	r2,-8(fp)
   23440:	1885883a 	add	r2,r3,r2
   23444:	e0bff715 	stw	r2,-36(fp)
   23448:	e0fff617 	ldw	r3,-40(fp)
   2344c:	e0bffe17 	ldw	r2,-8(fp)
   23450:	1885c83a 	sub	r2,r3,r2
   23454:	e0bff615 	stw	r2,-40(fp)
   23458:	e0fffc17 	ldw	r3,-16(fp)
   2345c:	e0bffe17 	ldw	r2,-8(fp)
   23460:	1885883a 	add	r2,r3,r2
   23464:	10c1ffcc 	andi	r3,r2,2047
   23468:	e0bff817 	ldw	r2,-32(fp)
   2346c:	10c00c15 	stw	r3,48(r2)
   23470:	e0bff617 	ldw	r2,-40(fp)
   23474:	00bfc716 	blt	zero,r2,23394 <altera_avalon_jtag_uart_write+0x30>
   23478:	00000106 	br	23480 <altera_avalon_jtag_uart_write+0x11c>
   2347c:	0001883a 	nop
   23480:	0005303a 	rdctl	r2,status
   23484:	e0bff915 	stw	r2,-28(fp)
   23488:	e0fff917 	ldw	r3,-28(fp)
   2348c:	00bfff84 	movi	r2,-2
   23490:	1884703a 	and	r2,r3,r2
   23494:	1001703a 	wrctl	status,r2
   23498:	e0bff917 	ldw	r2,-28(fp)
   2349c:	e0bffb15 	stw	r2,-20(fp)
   234a0:	e0bff817 	ldw	r2,-32(fp)
   234a4:	10800817 	ldw	r2,32(r2)
   234a8:	10c00094 	ori	r3,r2,2
   234ac:	e0bff817 	ldw	r2,-32(fp)
   234b0:	10c00815 	stw	r3,32(r2)
   234b4:	e0bff817 	ldw	r2,-32(fp)
   234b8:	10800017 	ldw	r2,0(r2)
   234bc:	10800104 	addi	r2,r2,4
   234c0:	1007883a 	mov	r3,r2
   234c4:	e0bff817 	ldw	r2,-32(fp)
   234c8:	10800817 	ldw	r2,32(r2)
   234cc:	18800035 	stwio	r2,0(r3)
   234d0:	e0bffb17 	ldw	r2,-20(fp)
   234d4:	e0bffa15 	stw	r2,-24(fp)
   234d8:	e0bffa17 	ldw	r2,-24(fp)
   234dc:	1001703a 	wrctl	status,r2
   234e0:	0001883a 	nop
   234e4:	e0bff617 	ldw	r2,-40(fp)
   234e8:	0080100e 	bge	zero,r2,2352c <altera_avalon_jtag_uart_write+0x1c8>
   234ec:	e0bff517 	ldw	r2,-44(fp)
   234f0:	1090000c 	andi	r2,r2,16384
   234f4:	1000101e 	bne	r2,zero,23538 <altera_avalon_jtag_uart_write+0x1d4>
   234f8:	0001883a 	nop
   234fc:	e0bff817 	ldw	r2,-32(fp)
   23500:	10800d17 	ldw	r2,52(r2)
   23504:	e0ffff17 	ldw	r3,-4(fp)
   23508:	1880051e 	bne	r3,r2,23520 <altera_avalon_jtag_uart_write+0x1bc>
   2350c:	e0bff817 	ldw	r2,-32(fp)
   23510:	10c00917 	ldw	r3,36(r2)
   23514:	e0bff817 	ldw	r2,-32(fp)
   23518:	10800117 	ldw	r2,4(r2)
   2351c:	18bff736 	bltu	r3,r2,234fc <altera_avalon_jtag_uart_write+0x198>
   23520:	e0bff817 	ldw	r2,-32(fp)
   23524:	10800917 	ldw	r2,36(r2)
   23528:	1000051e 	bne	r2,zero,23540 <altera_avalon_jtag_uart_write+0x1dc>
   2352c:	e0bff617 	ldw	r2,-40(fp)
   23530:	00bfcf16 	blt	zero,r2,23470 <altera_avalon_jtag_uart_write+0x10c>
   23534:	00000306 	br	23544 <altera_avalon_jtag_uart_write+0x1e0>
   23538:	0001883a 	nop
   2353c:	00000106 	br	23544 <altera_avalon_jtag_uart_write+0x1e0>
   23540:	0001883a 	nop
   23544:	e0fff717 	ldw	r3,-36(fp)
   23548:	e0bffd17 	ldw	r2,-12(fp)
   2354c:	18800426 	beq	r3,r2,23560 <altera_avalon_jtag_uart_write+0x1fc>
   23550:	e0fff717 	ldw	r3,-36(fp)
   23554:	e0bffd17 	ldw	r2,-12(fp)
   23558:	1885c83a 	sub	r2,r3,r2
   2355c:	00000606 	br	23578 <altera_avalon_jtag_uart_write+0x214>
   23560:	e0bff517 	ldw	r2,-44(fp)
   23564:	1090000c 	andi	r2,r2,16384
   23568:	10000226 	beq	r2,zero,23574 <altera_avalon_jtag_uart_write+0x210>
   2356c:	00bffd44 	movi	r2,-11
   23570:	00000106 	br	23578 <altera_avalon_jtag_uart_write+0x214>
   23574:	00bffec4 	movi	r2,-5
   23578:	e037883a 	mov	sp,fp
   2357c:	dfc00117 	ldw	ra,4(sp)
   23580:	df000017 	ldw	fp,0(sp)
   23584:	dec00204 	addi	sp,sp,8
   23588:	f800283a 	ret

0002358c <alt_avalon_spi_command>:
   2358c:	defff404 	addi	sp,sp,-48
   23590:	df000b15 	stw	fp,44(sp)
   23594:	df000b04 	addi	fp,sp,44
   23598:	e13ff815 	stw	r4,-32(fp)
   2359c:	e17ff715 	stw	r5,-36(fp)
   235a0:	e1bff615 	stw	r6,-40(fp)
   235a4:	e1fff515 	stw	r7,-44(fp)
   235a8:	e0fff517 	ldw	r3,-44(fp)
   235ac:	e0bff617 	ldw	r2,-40(fp)
   235b0:	1885883a 	add	r2,r3,r2
   235b4:	e0bffc15 	stw	r2,-16(fp)
   235b8:	e0c00217 	ldw	r3,8(fp)
   235bc:	e0800117 	ldw	r2,4(fp)
   235c0:	1885883a 	add	r2,r3,r2
   235c4:	e0bffb15 	stw	r2,-20(fp)
   235c8:	e0800117 	ldw	r2,4(fp)
   235cc:	e0bfff15 	stw	r2,-4(fp)
   235d0:	e0bff617 	ldw	r2,-40(fp)
   235d4:	e0bffe15 	stw	r2,-8(fp)
   235d8:	00800044 	movi	r2,1
   235dc:	e0bffd15 	stw	r2,-12(fp)
   235e0:	e0bff817 	ldw	r2,-32(fp)
   235e4:	10800504 	addi	r2,r2,20
   235e8:	1009883a 	mov	r4,r2
   235ec:	00c00044 	movi	r3,1
   235f0:	e0bff717 	ldw	r2,-36(fp)
   235f4:	1884983a 	sll	r2,r3,r2
   235f8:	20800035 	stwio	r2,0(r4)
   235fc:	e0800317 	ldw	r2,12(fp)
   23600:	1080008c 	andi	r2,r2,2
   23604:	1000051e 	bne	r2,zero,2361c <alt_avalon_spi_command+0x90>
   23608:	e0bff817 	ldw	r2,-32(fp)
   2360c:	10800304 	addi	r2,r2,12
   23610:	1007883a 	mov	r3,r2
   23614:	00810004 	movi	r2,1024
   23618:	18800035 	stwio	r2,0(r3)
   2361c:	e0bff817 	ldw	r2,-32(fp)
   23620:	10800037 	ldwio	r2,0(r2)
   23624:	e0bff817 	ldw	r2,-32(fp)
   23628:	10800204 	addi	r2,r2,8
   2362c:	10800037 	ldwio	r2,0(r2)
   23630:	e0bffa15 	stw	r2,-24(fp)
   23634:	e0bffa17 	ldw	r2,-24(fp)
   23638:	1080100c 	andi	r2,r2,64
   2363c:	10000226 	beq	r2,zero,23648 <alt_avalon_spi_command+0xbc>
   23640:	e0bffd17 	ldw	r2,-12(fp)
   23644:	1000031e 	bne	r2,zero,23654 <alt_avalon_spi_command+0xc8>
   23648:	e0bffa17 	ldw	r2,-24(fp)
   2364c:	1080200c 	andi	r2,r2,128
   23650:	103ff426 	beq	r2,zero,23624 <alt_avalon_spi_command+0x98>
   23654:	e0bffa17 	ldw	r2,-24(fp)
   23658:	1080100c 	andi	r2,r2,64
   2365c:	10001e26 	beq	r2,zero,236d8 <alt_avalon_spi_command+0x14c>
   23660:	e0bffd17 	ldw	r2,-12(fp)
   23664:	00801c0e 	bge	zero,r2,236d8 <alt_avalon_spi_command+0x14c>
   23668:	e0bffd17 	ldw	r2,-12(fp)
   2366c:	10bfffc4 	addi	r2,r2,-1
   23670:	e0bffd15 	stw	r2,-12(fp)
   23674:	e0fff517 	ldw	r3,-44(fp)
   23678:	e0bffc17 	ldw	r2,-16(fp)
   2367c:	18800a2e 	bgeu	r3,r2,236a8 <alt_avalon_spi_command+0x11c>
   23680:	e0bff817 	ldw	r2,-32(fp)
   23684:	10800104 	addi	r2,r2,4
   23688:	1009883a 	mov	r4,r2
   2368c:	e0bff517 	ldw	r2,-44(fp)
   23690:	10c00044 	addi	r3,r2,1
   23694:	e0fff515 	stw	r3,-44(fp)
   23698:	10800003 	ldbu	r2,0(r2)
   2369c:	10803fcc 	andi	r2,r2,255
   236a0:	20800035 	stwio	r2,0(r4)
   236a4:	00000c06 	br	236d8 <alt_avalon_spi_command+0x14c>
   236a8:	e0bfff17 	ldw	r2,-4(fp)
   236ac:	10000826 	beq	r2,zero,236d0 <alt_avalon_spi_command+0x144>
   236b0:	e0bfff17 	ldw	r2,-4(fp)
   236b4:	10bfffc4 	addi	r2,r2,-1
   236b8:	e0bfff15 	stw	r2,-4(fp)
   236bc:	e0bff817 	ldw	r2,-32(fp)
   236c0:	10800104 	addi	r2,r2,4
   236c4:	0007883a 	mov	r3,zero
   236c8:	10c00035 	stwio	r3,0(r2)
   236cc:	00000206 	br	236d8 <alt_avalon_spi_command+0x14c>
   236d0:	00bf0004 	movi	r2,-1024
   236d4:	e0bffd15 	stw	r2,-12(fp)
   236d8:	e0bffa17 	ldw	r2,-24(fp)
   236dc:	1080200c 	andi	r2,r2,128
   236e0:	103fd026 	beq	r2,zero,23624 <alt_avalon_spi_command+0x98>
   236e4:	e0bff817 	ldw	r2,-32(fp)
   236e8:	10800037 	ldwio	r2,0(r2)
   236ec:	e0bff915 	stw	r2,-28(fp)
   236f0:	e0bffe17 	ldw	r2,-8(fp)
   236f4:	10000426 	beq	r2,zero,23708 <alt_avalon_spi_command+0x17c>
   236f8:	e0bffe17 	ldw	r2,-8(fp)
   236fc:	10bfffc4 	addi	r2,r2,-1
   23700:	e0bffe15 	stw	r2,-8(fp)
   23704:	00000506 	br	2371c <alt_avalon_spi_command+0x190>
   23708:	e0800217 	ldw	r2,8(fp)
   2370c:	10c00044 	addi	r3,r2,1
   23710:	e0c00215 	stw	r3,8(fp)
   23714:	e0fff917 	ldw	r3,-28(fp)
   23718:	10c00005 	stb	r3,0(r2)
   2371c:	e0bffd17 	ldw	r2,-12(fp)
   23720:	10800044 	addi	r2,r2,1
   23724:	e0bffd15 	stw	r2,-12(fp)
   23728:	e0bffe17 	ldw	r2,-8(fp)
   2372c:	103fbd1e 	bne	r2,zero,23624 <alt_avalon_spi_command+0x98>
   23730:	e0c00217 	ldw	r3,8(fp)
   23734:	e0bffb17 	ldw	r2,-20(fp)
   23738:	18bfba1e 	bne	r3,r2,23624 <alt_avalon_spi_command+0x98>
   2373c:	e0bff817 	ldw	r2,-32(fp)
   23740:	10800204 	addi	r2,r2,8
   23744:	10800037 	ldwio	r2,0(r2)
   23748:	e0bffa15 	stw	r2,-24(fp)
   2374c:	e0bffa17 	ldw	r2,-24(fp)
   23750:	1080080c 	andi	r2,r2,32
   23754:	103ff926 	beq	r2,zero,2373c <alt_avalon_spi_command+0x1b0>
   23758:	e0800317 	ldw	r2,12(fp)
   2375c:	1080004c 	andi	r2,r2,1
   23760:	1000041e 	bne	r2,zero,23774 <alt_avalon_spi_command+0x1e8>
   23764:	e0bff817 	ldw	r2,-32(fp)
   23768:	10800304 	addi	r2,r2,12
   2376c:	0007883a 	mov	r3,zero
   23770:	10c00035 	stwio	r3,0(r2)
   23774:	e0800117 	ldw	r2,4(fp)
   23778:	e037883a 	mov	sp,fp
   2377c:	df000017 	ldw	fp,0(sp)
   23780:	dec00104 	addi	sp,sp,4
   23784:	f800283a 	ret

00023788 <alt_avalon_timer_sc_irq>:
   23788:	defffa04 	addi	sp,sp,-24
   2378c:	dfc00515 	stw	ra,20(sp)
   23790:	df000415 	stw	fp,16(sp)
   23794:	df000404 	addi	fp,sp,16
   23798:	e13ffc15 	stw	r4,-16(fp)
   2379c:	0007883a 	mov	r3,zero
   237a0:	e0bffc17 	ldw	r2,-16(fp)
   237a4:	10c00035 	stwio	r3,0(r2)
   237a8:	e0bffc17 	ldw	r2,-16(fp)
   237ac:	10800104 	addi	r2,r2,4
   237b0:	10800037 	ldwio	r2,0(r2)
   237b4:	0005303a 	rdctl	r2,status
   237b8:	e0bffd15 	stw	r2,-12(fp)
   237bc:	e0fffd17 	ldw	r3,-12(fp)
   237c0:	00bfff84 	movi	r2,-2
   237c4:	1884703a 	and	r2,r3,r2
   237c8:	1001703a 	wrctl	status,r2
   237cc:	e0bffd17 	ldw	r2,-12(fp)
   237d0:	e0bfff15 	stw	r2,-4(fp)
   237d4:	00245b80 	call	245b8 <alt_tick>
   237d8:	e0bfff17 	ldw	r2,-4(fp)
   237dc:	e0bffe15 	stw	r2,-8(fp)
   237e0:	e0bffe17 	ldw	r2,-8(fp)
   237e4:	1001703a 	wrctl	status,r2
   237e8:	0001883a 	nop
   237ec:	0001883a 	nop
   237f0:	e037883a 	mov	sp,fp
   237f4:	dfc00117 	ldw	ra,4(sp)
   237f8:	df000017 	ldw	fp,0(sp)
   237fc:	dec00204 	addi	sp,sp,8
   23800:	f800283a 	ret

00023804 <alt_avalon_timer_sc_init>:
   23804:	defff804 	addi	sp,sp,-32
   23808:	dfc00715 	stw	ra,28(sp)
   2380c:	df000615 	stw	fp,24(sp)
   23810:	df000604 	addi	fp,sp,24
   23814:	e13ffe15 	stw	r4,-8(fp)
   23818:	e17ffd15 	stw	r5,-12(fp)
   2381c:	e1bffc15 	stw	r6,-16(fp)
   23820:	e1fffb15 	stw	r7,-20(fp)
   23824:	e0bffb17 	ldw	r2,-20(fp)
   23828:	e0bfff15 	stw	r2,-4(fp)
   2382c:	d0a6bd17 	ldw	r2,-25868(gp)
   23830:	1000031e 	bne	r2,zero,23840 <alt_avalon_timer_sc_init+0x3c>
   23834:	e0bfff17 	ldw	r2,-4(fp)
   23838:	d0a6bd15 	stw	r2,-25868(gp)
   2383c:	00000106 	br	23844 <alt_avalon_timer_sc_init+0x40>
   23840:	0001883a 	nop
   23844:	e0bffe17 	ldw	r2,-8(fp)
   23848:	10800104 	addi	r2,r2,4
   2384c:	00c001c4 	movi	r3,7
   23850:	10c00035 	stwio	r3,0(r2)
   23854:	d8000015 	stw	zero,0(sp)
   23858:	e1fffe17 	ldw	r7,-8(fp)
   2385c:	018000b4 	movhi	r6,2
   23860:	318de204 	addi	r6,r6,14216
   23864:	e17ffc17 	ldw	r5,-16(fp)
   23868:	e13ffd17 	ldw	r4,-12(fp)
   2386c:	0023e440 	call	23e44 <alt_ic_isr_register>
   23870:	0001883a 	nop
   23874:	e037883a 	mov	sp,fp
   23878:	dfc00117 	ldw	ra,4(sp)
   2387c:	df000017 	ldw	fp,0(sp)
   23880:	dec00204 	addi	sp,sp,8
   23884:	f800283a 	ret

00023888 <alt_alarm_start>:
   23888:	defff504 	addi	sp,sp,-44
   2388c:	df000a15 	stw	fp,40(sp)
   23890:	df000a04 	addi	fp,sp,40
   23894:	e13ff915 	stw	r4,-28(fp)
   23898:	e17ff815 	stw	r5,-32(fp)
   2389c:	e1bff715 	stw	r6,-36(fp)
   238a0:	e1fff615 	stw	r7,-40(fp)
   238a4:	e03fff15 	stw	zero,-4(fp)
   238a8:	d0a6bd17 	ldw	r2,-25868(gp)
   238ac:	10003e26 	beq	r2,zero,239a8 <alt_alarm_start+0x120>
   238b0:	e0bff917 	ldw	r2,-28(fp)
   238b4:	10003a26 	beq	r2,zero,239a0 <alt_alarm_start+0x118>
   238b8:	e0bff917 	ldw	r2,-28(fp)
   238bc:	e0fff717 	ldw	r3,-36(fp)
   238c0:	10c00315 	stw	r3,12(r2)
   238c4:	e0bff917 	ldw	r2,-28(fp)
   238c8:	e0fff617 	ldw	r3,-40(fp)
   238cc:	10c00515 	stw	r3,20(r2)
   238d0:	0005303a 	rdctl	r2,status
   238d4:	e0bffd15 	stw	r2,-12(fp)
   238d8:	e0fffd17 	ldw	r3,-12(fp)
   238dc:	00bfff84 	movi	r2,-2
   238e0:	1884703a 	and	r2,r3,r2
   238e4:	1001703a 	wrctl	status,r2
   238e8:	e0bffd17 	ldw	r2,-12(fp)
   238ec:	e0bffe15 	stw	r2,-8(fp)
   238f0:	d0a6be17 	ldw	r2,-25864(gp)
   238f4:	e0bfff15 	stw	r2,-4(fp)
   238f8:	e0fff817 	ldw	r3,-32(fp)
   238fc:	e0bfff17 	ldw	r2,-4(fp)
   23900:	1885883a 	add	r2,r3,r2
   23904:	10c00044 	addi	r3,r2,1
   23908:	e0bff917 	ldw	r2,-28(fp)
   2390c:	10c00215 	stw	r3,8(r2)
   23910:	e0bff917 	ldw	r2,-28(fp)
   23914:	10c00217 	ldw	r3,8(r2)
   23918:	e0bfff17 	ldw	r2,-4(fp)
   2391c:	1880042e 	bgeu	r3,r2,23930 <alt_alarm_start+0xa8>
   23920:	e0bff917 	ldw	r2,-28(fp)
   23924:	00c00044 	movi	r3,1
   23928:	10c00405 	stb	r3,16(r2)
   2392c:	00000206 	br	23938 <alt_alarm_start+0xb0>
   23930:	e0bff917 	ldw	r2,-28(fp)
   23934:	10000405 	stb	zero,16(r2)
   23938:	e0bff917 	ldw	r2,-28(fp)
   2393c:	d0e01204 	addi	r3,gp,-32696
   23940:	e0fffb15 	stw	r3,-20(fp)
   23944:	e0bffa15 	stw	r2,-24(fp)
   23948:	e0bffa17 	ldw	r2,-24(fp)
   2394c:	e0fffb17 	ldw	r3,-20(fp)
   23950:	10c00115 	stw	r3,4(r2)
   23954:	e0bffb17 	ldw	r2,-20(fp)
   23958:	10c00017 	ldw	r3,0(r2)
   2395c:	e0bffa17 	ldw	r2,-24(fp)
   23960:	10c00015 	stw	r3,0(r2)
   23964:	e0bffb17 	ldw	r2,-20(fp)
   23968:	10800017 	ldw	r2,0(r2)
   2396c:	e0fffa17 	ldw	r3,-24(fp)
   23970:	10c00115 	stw	r3,4(r2)
   23974:	e0bffb17 	ldw	r2,-20(fp)
   23978:	e0fffa17 	ldw	r3,-24(fp)
   2397c:	10c00015 	stw	r3,0(r2)
   23980:	0001883a 	nop
   23984:	e0bffe17 	ldw	r2,-8(fp)
   23988:	e0bffc15 	stw	r2,-16(fp)
   2398c:	e0bffc17 	ldw	r2,-16(fp)
   23990:	1001703a 	wrctl	status,r2
   23994:	0001883a 	nop
   23998:	0005883a 	mov	r2,zero
   2399c:	00000306 	br	239ac <alt_alarm_start+0x124>
   239a0:	00bffa84 	movi	r2,-22
   239a4:	00000106 	br	239ac <alt_alarm_start+0x124>
   239a8:	00bfde84 	movi	r2,-134
   239ac:	e037883a 	mov	sp,fp
   239b0:	df000017 	ldw	fp,0(sp)
   239b4:	dec00104 	addi	sp,sp,4
   239b8:	f800283a 	ret

000239bc <alt_busy_sleep>:
   239bc:	defffa04 	addi	sp,sp,-24
   239c0:	dfc00515 	stw	ra,20(sp)
   239c4:	df000415 	stw	fp,16(sp)
   239c8:	df000404 	addi	fp,sp,16
   239cc:	e13ffc15 	stw	r4,-16(fp)
   239d0:	00800244 	movi	r2,9
   239d4:	e0bffe15 	stw	r2,-8(fp)
   239d8:	014003f4 	movhi	r5,15
   239dc:	29509004 	addi	r5,r5,16960
   239e0:	e13ffe17 	ldw	r4,-8(fp)
   239e4:	0024f880 	call	24f88 <__mulsi3>
   239e8:	100b883a 	mov	r5,r2
   239ec:	0100bef4 	movhi	r4,763
   239f0:	213c2004 	addi	r4,r4,-3968
   239f4:	0024ec80 	call	24ec8 <__udivsi3>
   239f8:	100b883a 	mov	r5,r2
   239fc:	01200034 	movhi	r4,32768
   23a00:	213fffc4 	addi	r4,r4,-1
   23a04:	0024ec80 	call	24ec8 <__udivsi3>
   23a08:	100b883a 	mov	r5,r2
   23a0c:	e13ffc17 	ldw	r4,-16(fp)
   23a10:	0024ec80 	call	24ec8 <__udivsi3>
   23a14:	e0bffd15 	stw	r2,-12(fp)
   23a18:	e0bffd17 	ldw	r2,-12(fp)
   23a1c:	10002a26 	beq	r2,zero,23ac8 <alt_busy_sleep+0x10c>
   23a20:	e03fff15 	stw	zero,-4(fp)
   23a24:	00001706 	br	23a84 <alt_busy_sleep+0xc8>
   23a28:	00a00034 	movhi	r2,32768
   23a2c:	10bfffc4 	addi	r2,r2,-1
   23a30:	10bfffc4 	addi	r2,r2,-1
   23a34:	103ffe1e 	bne	r2,zero,23a30 <alt_busy_sleep+0x74>
   23a38:	014003f4 	movhi	r5,15
   23a3c:	29509004 	addi	r5,r5,16960
   23a40:	e13ffe17 	ldw	r4,-8(fp)
   23a44:	0024f880 	call	24f88 <__mulsi3>
   23a48:	100b883a 	mov	r5,r2
   23a4c:	0100bef4 	movhi	r4,763
   23a50:	213c2004 	addi	r4,r4,-3968
   23a54:	0024ec80 	call	24ec8 <__udivsi3>
   23a58:	100b883a 	mov	r5,r2
   23a5c:	01200034 	movhi	r4,32768
   23a60:	213fffc4 	addi	r4,r4,-1
   23a64:	0024ec80 	call	24ec8 <__udivsi3>
   23a68:	1007883a 	mov	r3,r2
   23a6c:	e0bffc17 	ldw	r2,-16(fp)
   23a70:	10c5c83a 	sub	r2,r2,r3
   23a74:	e0bffc15 	stw	r2,-16(fp)
   23a78:	e0bfff17 	ldw	r2,-4(fp)
   23a7c:	10800044 	addi	r2,r2,1
   23a80:	e0bfff15 	stw	r2,-4(fp)
   23a84:	e0ffff17 	ldw	r3,-4(fp)
   23a88:	e0bffd17 	ldw	r2,-12(fp)
   23a8c:	18bfe616 	blt	r3,r2,23a28 <alt_busy_sleep+0x6c>
   23a90:	014003f4 	movhi	r5,15
   23a94:	29509004 	addi	r5,r5,16960
   23a98:	e13ffe17 	ldw	r4,-8(fp)
   23a9c:	0024f880 	call	24f88 <__mulsi3>
   23aa0:	100b883a 	mov	r5,r2
   23aa4:	0100bef4 	movhi	r4,763
   23aa8:	213c2004 	addi	r4,r4,-3968
   23aac:	0024ec80 	call	24ec8 <__udivsi3>
   23ab0:	e17ffc17 	ldw	r5,-16(fp)
   23ab4:	1009883a 	mov	r4,r2
   23ab8:	0024f880 	call	24f88 <__mulsi3>
   23abc:	10bfffc4 	addi	r2,r2,-1
   23ac0:	103ffe1e 	bne	r2,zero,23abc <alt_busy_sleep+0x100>
   23ac4:	00000d06 	br	23afc <alt_busy_sleep+0x140>
   23ac8:	014003f4 	movhi	r5,15
   23acc:	29509004 	addi	r5,r5,16960
   23ad0:	e13ffe17 	ldw	r4,-8(fp)
   23ad4:	0024f880 	call	24f88 <__mulsi3>
   23ad8:	100b883a 	mov	r5,r2
   23adc:	0100bef4 	movhi	r4,763
   23ae0:	213c2004 	addi	r4,r4,-3968
   23ae4:	0024ec80 	call	24ec8 <__udivsi3>
   23ae8:	e17ffc17 	ldw	r5,-16(fp)
   23aec:	1009883a 	mov	r4,r2
   23af0:	0024f880 	call	24f88 <__mulsi3>
   23af4:	10bfffc4 	addi	r2,r2,-1
   23af8:	00bffe16 	blt	zero,r2,23af4 <alt_busy_sleep+0x138>
   23afc:	0005883a 	mov	r2,zero
   23b00:	e037883a 	mov	sp,fp
   23b04:	dfc00117 	ldw	ra,4(sp)
   23b08:	df000017 	ldw	fp,0(sp)
   23b0c:	dec00204 	addi	sp,sp,8
   23b10:	f800283a 	ret

00023b14 <alt_get_errno>:
   23b14:	defffe04 	addi	sp,sp,-8
   23b18:	dfc00115 	stw	ra,4(sp)
   23b1c:	df000015 	stw	fp,0(sp)
   23b20:	d839883a 	mov	fp,sp
   23b24:	d0a01017 	ldw	r2,-32704(gp)
   23b28:	10000326 	beq	r2,zero,23b38 <alt_get_errno+0x24>
   23b2c:	d0a01017 	ldw	r2,-32704(gp)
   23b30:	103ee83a 	callr	r2
   23b34:	00000106 	br	23b3c <alt_get_errno+0x28>
   23b38:	d0a6b804 	addi	r2,gp,-25888
   23b3c:	e037883a 	mov	sp,fp
   23b40:	dfc00117 	ldw	ra,4(sp)
   23b44:	df000017 	ldw	fp,0(sp)
   23b48:	dec00204 	addi	sp,sp,8
   23b4c:	f800283a 	ret

00023b50 <close>:
   23b50:	defffb04 	addi	sp,sp,-20
   23b54:	dfc00415 	stw	ra,16(sp)
   23b58:	df000315 	stw	fp,12(sp)
   23b5c:	df000304 	addi	fp,sp,12
   23b60:	e13ffd15 	stw	r4,-12(fp)
   23b64:	e0bffd17 	ldw	r2,-12(fp)
   23b68:	10000916 	blt	r2,zero,23b90 <close+0x40>
   23b6c:	e0fffd17 	ldw	r3,-12(fp)
   23b70:	1805883a 	mov	r2,r3
   23b74:	1085883a 	add	r2,r2,r2
   23b78:	10c5883a 	add	r2,r2,r3
   23b7c:	100490ba 	slli	r2,r2,2
   23b80:	00c000b4 	movhi	r3,2
   23b84:	18daf704 	addi	r3,r3,27612
   23b88:	10c5883a 	add	r2,r2,r3
   23b8c:	00000106 	br	23b94 <close+0x44>
   23b90:	0005883a 	mov	r2,zero
   23b94:	e0bfff15 	stw	r2,-4(fp)
   23b98:	e0bfff17 	ldw	r2,-4(fp)
   23b9c:	10001926 	beq	r2,zero,23c04 <close+0xb4>
   23ba0:	e0bfff17 	ldw	r2,-4(fp)
   23ba4:	10800017 	ldw	r2,0(r2)
   23ba8:	10800417 	ldw	r2,16(r2)
   23bac:	10000626 	beq	r2,zero,23bc8 <close+0x78>
   23bb0:	e0bfff17 	ldw	r2,-4(fp)
   23bb4:	10800017 	ldw	r2,0(r2)
   23bb8:	10800417 	ldw	r2,16(r2)
   23bbc:	e13fff17 	ldw	r4,-4(fp)
   23bc0:	103ee83a 	callr	r2
   23bc4:	00000106 	br	23bcc <close+0x7c>
   23bc8:	0005883a 	mov	r2,zero
   23bcc:	e0bffe15 	stw	r2,-8(fp)
   23bd0:	e13ffd17 	ldw	r4,-12(fp)
   23bd4:	00244a40 	call	244a4 <alt_release_fd>
   23bd8:	e0bffe17 	ldw	r2,-8(fp)
   23bdc:	1000070e 	bge	r2,zero,23bfc <close+0xac>
   23be0:	0023b140 	call	23b14 <alt_get_errno>
   23be4:	1007883a 	mov	r3,r2
   23be8:	e0bffe17 	ldw	r2,-8(fp)
   23bec:	0085c83a 	sub	r2,zero,r2
   23bf0:	18800015 	stw	r2,0(r3)
   23bf4:	00bfffc4 	movi	r2,-1
   23bf8:	00000706 	br	23c18 <close+0xc8>
   23bfc:	0005883a 	mov	r2,zero
   23c00:	00000506 	br	23c18 <close+0xc8>
   23c04:	0023b140 	call	23b14 <alt_get_errno>
   23c08:	1007883a 	mov	r3,r2
   23c0c:	00801444 	movi	r2,81
   23c10:	18800015 	stw	r2,0(r3)
   23c14:	00bfffc4 	movi	r2,-1
   23c18:	e037883a 	mov	sp,fp
   23c1c:	dfc00117 	ldw	ra,4(sp)
   23c20:	df000017 	ldw	fp,0(sp)
   23c24:	dec00204 	addi	sp,sp,8
   23c28:	f800283a 	ret

00023c2c <alt_dcache_flush_all>:
   23c2c:	deffff04 	addi	sp,sp,-4
   23c30:	df000015 	stw	fp,0(sp)
   23c34:	d839883a 	mov	fp,sp
   23c38:	0001883a 	nop
   23c3c:	e037883a 	mov	sp,fp
   23c40:	df000017 	ldw	fp,0(sp)
   23c44:	dec00104 	addi	sp,sp,4
   23c48:	f800283a 	ret

00023c4c <alt_dev_null_write>:
   23c4c:	defffc04 	addi	sp,sp,-16
   23c50:	df000315 	stw	fp,12(sp)
   23c54:	df000304 	addi	fp,sp,12
   23c58:	e13fff15 	stw	r4,-4(fp)
   23c5c:	e17ffe15 	stw	r5,-8(fp)
   23c60:	e1bffd15 	stw	r6,-12(fp)
   23c64:	e0bffd17 	ldw	r2,-12(fp)
   23c68:	e037883a 	mov	sp,fp
   23c6c:	df000017 	ldw	fp,0(sp)
   23c70:	dec00104 	addi	sp,sp,4
   23c74:	f800283a 	ret

00023c78 <alt_get_errno>:
   23c78:	defffe04 	addi	sp,sp,-8
   23c7c:	dfc00115 	stw	ra,4(sp)
   23c80:	df000015 	stw	fp,0(sp)
   23c84:	d839883a 	mov	fp,sp
   23c88:	d0a01017 	ldw	r2,-32704(gp)
   23c8c:	10000326 	beq	r2,zero,23c9c <alt_get_errno+0x24>
   23c90:	d0a01017 	ldw	r2,-32704(gp)
   23c94:	103ee83a 	callr	r2
   23c98:	00000106 	br	23ca0 <alt_get_errno+0x28>
   23c9c:	d0a6b804 	addi	r2,gp,-25888
   23ca0:	e037883a 	mov	sp,fp
   23ca4:	dfc00117 	ldw	ra,4(sp)
   23ca8:	df000017 	ldw	fp,0(sp)
   23cac:	dec00204 	addi	sp,sp,8
   23cb0:	f800283a 	ret

00023cb4 <alt_dev_llist_insert>:
   23cb4:	defffa04 	addi	sp,sp,-24
   23cb8:	dfc00515 	stw	ra,20(sp)
   23cbc:	df000415 	stw	fp,16(sp)
   23cc0:	df000404 	addi	fp,sp,16
   23cc4:	e13ffd15 	stw	r4,-12(fp)
   23cc8:	e17ffc15 	stw	r5,-16(fp)
   23ccc:	e0bffd17 	ldw	r2,-12(fp)
   23cd0:	10000326 	beq	r2,zero,23ce0 <alt_dev_llist_insert+0x2c>
   23cd4:	e0bffd17 	ldw	r2,-12(fp)
   23cd8:	10800217 	ldw	r2,8(r2)
   23cdc:	1000061e 	bne	r2,zero,23cf8 <alt_dev_llist_insert+0x44>
   23ce0:	0023c780 	call	23c78 <alt_get_errno>
   23ce4:	1007883a 	mov	r3,r2
   23ce8:	00800584 	movi	r2,22
   23cec:	18800015 	stw	r2,0(r3)
   23cf0:	00bffa84 	movi	r2,-22
   23cf4:	00001406 	br	23d48 <alt_dev_llist_insert+0x94>
   23cf8:	e0bffd17 	ldw	r2,-12(fp)
   23cfc:	e0fffc17 	ldw	r3,-16(fp)
   23d00:	e0ffff15 	stw	r3,-4(fp)
   23d04:	e0bffe15 	stw	r2,-8(fp)
   23d08:	e0bffe17 	ldw	r2,-8(fp)
   23d0c:	e0ffff17 	ldw	r3,-4(fp)
   23d10:	10c00115 	stw	r3,4(r2)
   23d14:	e0bfff17 	ldw	r2,-4(fp)
   23d18:	10c00017 	ldw	r3,0(r2)
   23d1c:	e0bffe17 	ldw	r2,-8(fp)
   23d20:	10c00015 	stw	r3,0(r2)
   23d24:	e0bfff17 	ldw	r2,-4(fp)
   23d28:	10800017 	ldw	r2,0(r2)
   23d2c:	e0fffe17 	ldw	r3,-8(fp)
   23d30:	10c00115 	stw	r3,4(r2)
   23d34:	e0bfff17 	ldw	r2,-4(fp)
   23d38:	e0fffe17 	ldw	r3,-8(fp)
   23d3c:	10c00015 	stw	r3,0(r2)
   23d40:	0001883a 	nop
   23d44:	0005883a 	mov	r2,zero
   23d48:	e037883a 	mov	sp,fp
   23d4c:	dfc00117 	ldw	ra,4(sp)
   23d50:	df000017 	ldw	fp,0(sp)
   23d54:	dec00204 	addi	sp,sp,8
   23d58:	f800283a 	ret

00023d5c <_do_ctors>:
   23d5c:	defffd04 	addi	sp,sp,-12
   23d60:	dfc00215 	stw	ra,8(sp)
   23d64:	df000115 	stw	fp,4(sp)
   23d68:	df000104 	addi	fp,sp,4
   23d6c:	008000b4 	movhi	r2,2
   23d70:	1093fb04 	addi	r2,r2,20460
   23d74:	e0bfff15 	stw	r2,-4(fp)
   23d78:	00000606 	br	23d94 <_do_ctors+0x38>
   23d7c:	e0bfff17 	ldw	r2,-4(fp)
   23d80:	10800017 	ldw	r2,0(r2)
   23d84:	103ee83a 	callr	r2
   23d88:	e0bfff17 	ldw	r2,-4(fp)
   23d8c:	10bfff04 	addi	r2,r2,-4
   23d90:	e0bfff15 	stw	r2,-4(fp)
   23d94:	e0ffff17 	ldw	r3,-4(fp)
   23d98:	008000b4 	movhi	r2,2
   23d9c:	1093fa04 	addi	r2,r2,20456
   23da0:	18bff62e 	bgeu	r3,r2,23d7c <_do_ctors+0x20>
   23da4:	0001883a 	nop
   23da8:	0001883a 	nop
   23dac:	e037883a 	mov	sp,fp
   23db0:	dfc00117 	ldw	ra,4(sp)
   23db4:	df000017 	ldw	fp,0(sp)
   23db8:	dec00204 	addi	sp,sp,8
   23dbc:	f800283a 	ret

00023dc0 <_do_dtors>:
   23dc0:	defffd04 	addi	sp,sp,-12
   23dc4:	dfc00215 	stw	ra,8(sp)
   23dc8:	df000115 	stw	fp,4(sp)
   23dcc:	df000104 	addi	fp,sp,4
   23dd0:	008000b4 	movhi	r2,2
   23dd4:	1093fd04 	addi	r2,r2,20468
   23dd8:	e0bfff15 	stw	r2,-4(fp)
   23ddc:	00000606 	br	23df8 <_do_dtors+0x38>
   23de0:	e0bfff17 	ldw	r2,-4(fp)
   23de4:	10800017 	ldw	r2,0(r2)
   23de8:	103ee83a 	callr	r2
   23dec:	e0bfff17 	ldw	r2,-4(fp)
   23df0:	10bfff04 	addi	r2,r2,-4
   23df4:	e0bfff15 	stw	r2,-4(fp)
   23df8:	e0ffff17 	ldw	r3,-4(fp)
   23dfc:	008000b4 	movhi	r2,2
   23e00:	1093fc04 	addi	r2,r2,20464
   23e04:	18bff62e 	bgeu	r3,r2,23de0 <_do_dtors+0x20>
   23e08:	0001883a 	nop
   23e0c:	0001883a 	nop
   23e10:	e037883a 	mov	sp,fp
   23e14:	dfc00117 	ldw	ra,4(sp)
   23e18:	df000017 	ldw	fp,0(sp)
   23e1c:	dec00204 	addi	sp,sp,8
   23e20:	f800283a 	ret

00023e24 <alt_icache_flush_all>:
   23e24:	deffff04 	addi	sp,sp,-4
   23e28:	df000015 	stw	fp,0(sp)
   23e2c:	d839883a 	mov	fp,sp
   23e30:	0001883a 	nop
   23e34:	e037883a 	mov	sp,fp
   23e38:	df000017 	ldw	fp,0(sp)
   23e3c:	dec00104 	addi	sp,sp,4
   23e40:	f800283a 	ret

00023e44 <alt_ic_isr_register>:
   23e44:	defff904 	addi	sp,sp,-28
   23e48:	dfc00615 	stw	ra,24(sp)
   23e4c:	df000515 	stw	fp,20(sp)
   23e50:	df000504 	addi	fp,sp,20
   23e54:	e13fff15 	stw	r4,-4(fp)
   23e58:	e17ffe15 	stw	r5,-8(fp)
   23e5c:	e1bffd15 	stw	r6,-12(fp)
   23e60:	e1fffc15 	stw	r7,-16(fp)
   23e64:	e0800217 	ldw	r2,8(fp)
   23e68:	d8800015 	stw	r2,0(sp)
   23e6c:	e1fffc17 	ldw	r7,-16(fp)
   23e70:	e1bffd17 	ldw	r6,-12(fp)
   23e74:	e17ffe17 	ldw	r5,-8(fp)
   23e78:	e13fff17 	ldw	r4,-4(fp)
   23e7c:	0023ff40 	call	23ff4 <alt_iic_isr_register>
   23e80:	e037883a 	mov	sp,fp
   23e84:	dfc00117 	ldw	ra,4(sp)
   23e88:	df000017 	ldw	fp,0(sp)
   23e8c:	dec00204 	addi	sp,sp,8
   23e90:	f800283a 	ret

00023e94 <alt_ic_irq_enable>:
   23e94:	defff904 	addi	sp,sp,-28
   23e98:	df000615 	stw	fp,24(sp)
   23e9c:	df000604 	addi	fp,sp,24
   23ea0:	e13ffb15 	stw	r4,-20(fp)
   23ea4:	e17ffa15 	stw	r5,-24(fp)
   23ea8:	e0bffa17 	ldw	r2,-24(fp)
   23eac:	e0bfff15 	stw	r2,-4(fp)
   23eb0:	0005303a 	rdctl	r2,status
   23eb4:	e0bffe15 	stw	r2,-8(fp)
   23eb8:	e0fffe17 	ldw	r3,-8(fp)
   23ebc:	00bfff84 	movi	r2,-2
   23ec0:	1884703a 	and	r2,r3,r2
   23ec4:	1001703a 	wrctl	status,r2
   23ec8:	e0bffe17 	ldw	r2,-8(fp)
   23ecc:	e0bffd15 	stw	r2,-12(fp)
   23ed0:	00c00044 	movi	r3,1
   23ed4:	e0bfff17 	ldw	r2,-4(fp)
   23ed8:	1884983a 	sll	r2,r3,r2
   23edc:	1007883a 	mov	r3,r2
   23ee0:	d0a6bc17 	ldw	r2,-25872(gp)
   23ee4:	1884b03a 	or	r2,r3,r2
   23ee8:	d0a6bc15 	stw	r2,-25872(gp)
   23eec:	d0a6bc17 	ldw	r2,-25872(gp)
   23ef0:	100170fa 	wrctl	ienable,r2
   23ef4:	e0bffd17 	ldw	r2,-12(fp)
   23ef8:	e0bffc15 	stw	r2,-16(fp)
   23efc:	e0bffc17 	ldw	r2,-16(fp)
   23f00:	1001703a 	wrctl	status,r2
   23f04:	0001883a 	nop
   23f08:	0005883a 	mov	r2,zero
   23f0c:	e037883a 	mov	sp,fp
   23f10:	df000017 	ldw	fp,0(sp)
   23f14:	dec00104 	addi	sp,sp,4
   23f18:	f800283a 	ret

00023f1c <alt_ic_irq_disable>:
   23f1c:	defff904 	addi	sp,sp,-28
   23f20:	df000615 	stw	fp,24(sp)
   23f24:	df000604 	addi	fp,sp,24
   23f28:	e13ffb15 	stw	r4,-20(fp)
   23f2c:	e17ffa15 	stw	r5,-24(fp)
   23f30:	e0bffa17 	ldw	r2,-24(fp)
   23f34:	e0bfff15 	stw	r2,-4(fp)
   23f38:	0005303a 	rdctl	r2,status
   23f3c:	e0bffe15 	stw	r2,-8(fp)
   23f40:	e0fffe17 	ldw	r3,-8(fp)
   23f44:	00bfff84 	movi	r2,-2
   23f48:	1884703a 	and	r2,r3,r2
   23f4c:	1001703a 	wrctl	status,r2
   23f50:	e0bffe17 	ldw	r2,-8(fp)
   23f54:	e0bffd15 	stw	r2,-12(fp)
   23f58:	00c00044 	movi	r3,1
   23f5c:	e0bfff17 	ldw	r2,-4(fp)
   23f60:	1884983a 	sll	r2,r3,r2
   23f64:	0084303a 	nor	r2,zero,r2
   23f68:	1007883a 	mov	r3,r2
   23f6c:	d0a6bc17 	ldw	r2,-25872(gp)
   23f70:	1884703a 	and	r2,r3,r2
   23f74:	d0a6bc15 	stw	r2,-25872(gp)
   23f78:	d0a6bc17 	ldw	r2,-25872(gp)
   23f7c:	100170fa 	wrctl	ienable,r2
   23f80:	e0bffd17 	ldw	r2,-12(fp)
   23f84:	e0bffc15 	stw	r2,-16(fp)
   23f88:	e0bffc17 	ldw	r2,-16(fp)
   23f8c:	1001703a 	wrctl	status,r2
   23f90:	0001883a 	nop
   23f94:	0005883a 	mov	r2,zero
   23f98:	e037883a 	mov	sp,fp
   23f9c:	df000017 	ldw	fp,0(sp)
   23fa0:	dec00104 	addi	sp,sp,4
   23fa4:	f800283a 	ret

00023fa8 <alt_ic_irq_enabled>:
   23fa8:	defffc04 	addi	sp,sp,-16
   23fac:	df000315 	stw	fp,12(sp)
   23fb0:	df000304 	addi	fp,sp,12
   23fb4:	e13ffe15 	stw	r4,-8(fp)
   23fb8:	e17ffd15 	stw	r5,-12(fp)
   23fbc:	000530fa 	rdctl	r2,ienable
   23fc0:	e0bfff15 	stw	r2,-4(fp)
   23fc4:	00c00044 	movi	r3,1
   23fc8:	e0bffd17 	ldw	r2,-12(fp)
   23fcc:	1884983a 	sll	r2,r3,r2
   23fd0:	1007883a 	mov	r3,r2
   23fd4:	e0bfff17 	ldw	r2,-4(fp)
   23fd8:	1884703a 	and	r2,r3,r2
   23fdc:	1004c03a 	cmpne	r2,r2,zero
   23fe0:	10803fcc 	andi	r2,r2,255
   23fe4:	e037883a 	mov	sp,fp
   23fe8:	df000017 	ldw	fp,0(sp)
   23fec:	dec00104 	addi	sp,sp,4
   23ff0:	f800283a 	ret

00023ff4 <alt_iic_isr_register>:
   23ff4:	defff504 	addi	sp,sp,-44
   23ff8:	dfc00a15 	stw	ra,40(sp)
   23ffc:	df000915 	stw	fp,36(sp)
   24000:	df000904 	addi	fp,sp,36
   24004:	e13ffa15 	stw	r4,-24(fp)
   24008:	e17ff915 	stw	r5,-28(fp)
   2400c:	e1bff815 	stw	r6,-32(fp)
   24010:	e1fff715 	stw	r7,-36(fp)
   24014:	00bffa84 	movi	r2,-22
   24018:	e0bfff15 	stw	r2,-4(fp)
   2401c:	e0bff917 	ldw	r2,-28(fp)
   24020:	e0bffe15 	stw	r2,-8(fp)
   24024:	e0bffe17 	ldw	r2,-8(fp)
   24028:	10800808 	cmpgei	r2,r2,32
   2402c:	1000251e 	bne	r2,zero,240c4 <alt_iic_isr_register+0xd0>
   24030:	0005303a 	rdctl	r2,status
   24034:	e0bffc15 	stw	r2,-16(fp)
   24038:	e0fffc17 	ldw	r3,-16(fp)
   2403c:	00bfff84 	movi	r2,-2
   24040:	1884703a 	and	r2,r3,r2
   24044:	1001703a 	wrctl	status,r2
   24048:	e0bffc17 	ldw	r2,-16(fp)
   2404c:	e0bffd15 	stw	r2,-12(fp)
   24050:	e0bffe17 	ldw	r2,-8(fp)
   24054:	100890fa 	slli	r4,r2,3
   24058:	e0fff817 	ldw	r3,-32(fp)
   2405c:	008000f4 	movhi	r2,3
   24060:	2085883a 	add	r2,r4,r2
   24064:	10e2b115 	stw	r3,-30012(r2)
   24068:	e0bffe17 	ldw	r2,-8(fp)
   2406c:	100890fa 	slli	r4,r2,3
   24070:	e0fff717 	ldw	r3,-36(fp)
   24074:	008000f4 	movhi	r2,3
   24078:	2085883a 	add	r2,r4,r2
   2407c:	10e2b215 	stw	r3,-30008(r2)
   24080:	e0bff817 	ldw	r2,-32(fp)
   24084:	10000526 	beq	r2,zero,2409c <alt_iic_isr_register+0xa8>
   24088:	e0bffe17 	ldw	r2,-8(fp)
   2408c:	100b883a 	mov	r5,r2
   24090:	e13ffa17 	ldw	r4,-24(fp)
   24094:	0023e940 	call	23e94 <alt_ic_irq_enable>
   24098:	00000406 	br	240ac <alt_iic_isr_register+0xb8>
   2409c:	e0bffe17 	ldw	r2,-8(fp)
   240a0:	100b883a 	mov	r5,r2
   240a4:	e13ffa17 	ldw	r4,-24(fp)
   240a8:	0023f1c0 	call	23f1c <alt_ic_irq_disable>
   240ac:	e0bfff15 	stw	r2,-4(fp)
   240b0:	e0bffd17 	ldw	r2,-12(fp)
   240b4:	e0bffb15 	stw	r2,-20(fp)
   240b8:	e0bffb17 	ldw	r2,-20(fp)
   240bc:	1001703a 	wrctl	status,r2
   240c0:	0001883a 	nop
   240c4:	e0bfff17 	ldw	r2,-4(fp)
   240c8:	e037883a 	mov	sp,fp
   240cc:	dfc00117 	ldw	ra,4(sp)
   240d0:	df000017 	ldw	fp,0(sp)
   240d4:	dec00204 	addi	sp,sp,8
   240d8:	f800283a 	ret

000240dc <alt_open_fd>:
   240dc:	defff904 	addi	sp,sp,-28
   240e0:	dfc00615 	stw	ra,24(sp)
   240e4:	df000515 	stw	fp,20(sp)
   240e8:	df000504 	addi	fp,sp,20
   240ec:	e13ffe15 	stw	r4,-8(fp)
   240f0:	e17ffd15 	stw	r5,-12(fp)
   240f4:	e1bffc15 	stw	r6,-16(fp)
   240f8:	e1fffb15 	stw	r7,-20(fp)
   240fc:	e1bffb17 	ldw	r6,-20(fp)
   24100:	e17ffc17 	ldw	r5,-16(fp)
   24104:	e13ffd17 	ldw	r4,-12(fp)
   24108:	00243440 	call	24344 <open>
   2410c:	e0bfff15 	stw	r2,-4(fp)
   24110:	e0bfff17 	ldw	r2,-4(fp)
   24114:	10002016 	blt	r2,zero,24198 <alt_open_fd+0xbc>
   24118:	e0ffff17 	ldw	r3,-4(fp)
   2411c:	1805883a 	mov	r2,r3
   24120:	1085883a 	add	r2,r2,r2
   24124:	10c5883a 	add	r2,r2,r3
   24128:	100490ba 	slli	r2,r2,2
   2412c:	00c000b4 	movhi	r3,2
   24130:	10c7883a 	add	r3,r2,r3
   24134:	18daf717 	ldw	r3,27612(r3)
   24138:	e0bffe17 	ldw	r2,-8(fp)
   2413c:	10c00015 	stw	r3,0(r2)
   24140:	e0ffff17 	ldw	r3,-4(fp)
   24144:	1805883a 	mov	r2,r3
   24148:	1085883a 	add	r2,r2,r2
   2414c:	10c5883a 	add	r2,r2,r3
   24150:	100490ba 	slli	r2,r2,2
   24154:	00c000b4 	movhi	r3,2
   24158:	10c7883a 	add	r3,r2,r3
   2415c:	18daf817 	ldw	r3,27616(r3)
   24160:	e0bffe17 	ldw	r2,-8(fp)
   24164:	10c00115 	stw	r3,4(r2)
   24168:	e0ffff17 	ldw	r3,-4(fp)
   2416c:	1805883a 	mov	r2,r3
   24170:	1085883a 	add	r2,r2,r2
   24174:	10c5883a 	add	r2,r2,r3
   24178:	100490ba 	slli	r2,r2,2
   2417c:	00c000b4 	movhi	r3,2
   24180:	10c7883a 	add	r3,r2,r3
   24184:	18daf917 	ldw	r3,27620(r3)
   24188:	e0bffe17 	ldw	r2,-8(fp)
   2418c:	10c00215 	stw	r3,8(r2)
   24190:	e13fff17 	ldw	r4,-4(fp)
   24194:	00244a40 	call	244a4 <alt_release_fd>
   24198:	0001883a 	nop
   2419c:	e037883a 	mov	sp,fp
   241a0:	dfc00117 	ldw	ra,4(sp)
   241a4:	df000017 	ldw	fp,0(sp)
   241a8:	dec00204 	addi	sp,sp,8
   241ac:	f800283a 	ret

000241b0 <alt_io_redirect>:
   241b0:	defffb04 	addi	sp,sp,-20
   241b4:	dfc00415 	stw	ra,16(sp)
   241b8:	df000315 	stw	fp,12(sp)
   241bc:	df000304 	addi	fp,sp,12
   241c0:	e13fff15 	stw	r4,-4(fp)
   241c4:	e17ffe15 	stw	r5,-8(fp)
   241c8:	e1bffd15 	stw	r6,-12(fp)
   241cc:	01c07fc4 	movi	r7,511
   241d0:	01800044 	movi	r6,1
   241d4:	e17fff17 	ldw	r5,-4(fp)
   241d8:	010000b4 	movhi	r4,2
   241dc:	211afa04 	addi	r4,r4,27624
   241e0:	00240dc0 	call	240dc <alt_open_fd>
   241e4:	01c07fc4 	movi	r7,511
   241e8:	000d883a 	mov	r6,zero
   241ec:	e17ffe17 	ldw	r5,-8(fp)
   241f0:	010000b4 	movhi	r4,2
   241f4:	211af704 	addi	r4,r4,27612
   241f8:	00240dc0 	call	240dc <alt_open_fd>
   241fc:	01c07fc4 	movi	r7,511
   24200:	01800044 	movi	r6,1
   24204:	e17ffd17 	ldw	r5,-12(fp)
   24208:	010000b4 	movhi	r4,2
   2420c:	211afd04 	addi	r4,r4,27636
   24210:	00240dc0 	call	240dc <alt_open_fd>
   24214:	0001883a 	nop
   24218:	e037883a 	mov	sp,fp
   2421c:	dfc00117 	ldw	ra,4(sp)
   24220:	df000017 	ldw	fp,0(sp)
   24224:	dec00204 	addi	sp,sp,8
   24228:	f800283a 	ret

0002422c <alt_get_errno>:
   2422c:	defffe04 	addi	sp,sp,-8
   24230:	dfc00115 	stw	ra,4(sp)
   24234:	df000015 	stw	fp,0(sp)
   24238:	d839883a 	mov	fp,sp
   2423c:	d0a01017 	ldw	r2,-32704(gp)
   24240:	10000326 	beq	r2,zero,24250 <alt_get_errno+0x24>
   24244:	d0a01017 	ldw	r2,-32704(gp)
   24248:	103ee83a 	callr	r2
   2424c:	00000106 	br	24254 <alt_get_errno+0x28>
   24250:	d0a6b804 	addi	r2,gp,-25888
   24254:	e037883a 	mov	sp,fp
   24258:	dfc00117 	ldw	ra,4(sp)
   2425c:	df000017 	ldw	fp,0(sp)
   24260:	dec00204 	addi	sp,sp,8
   24264:	f800283a 	ret

00024268 <alt_file_locked>:
   24268:	defffd04 	addi	sp,sp,-12
   2426c:	df000215 	stw	fp,8(sp)
   24270:	df000204 	addi	fp,sp,8
   24274:	e13ffe15 	stw	r4,-8(fp)
   24278:	e0bffe17 	ldw	r2,-8(fp)
   2427c:	10800217 	ldw	r2,8(r2)
   24280:	10d00034 	orhi	r3,r2,16384
   24284:	e0bffe17 	ldw	r2,-8(fp)
   24288:	10c00215 	stw	r3,8(r2)
   2428c:	e03fff15 	stw	zero,-4(fp)
   24290:	00002306 	br	24320 <alt_file_locked+0xb8>
   24294:	e0ffff17 	ldw	r3,-4(fp)
   24298:	1805883a 	mov	r2,r3
   2429c:	1085883a 	add	r2,r2,r2
   242a0:	10c5883a 	add	r2,r2,r3
   242a4:	100490ba 	slli	r2,r2,2
   242a8:	00c000b4 	movhi	r3,2
   242ac:	10c7883a 	add	r3,r2,r3
   242b0:	18daf717 	ldw	r3,27612(r3)
   242b4:	e0bffe17 	ldw	r2,-8(fp)
   242b8:	10800017 	ldw	r2,0(r2)
   242bc:	1880151e 	bne	r3,r2,24314 <alt_file_locked+0xac>
   242c0:	e0ffff17 	ldw	r3,-4(fp)
   242c4:	1805883a 	mov	r2,r3
   242c8:	1085883a 	add	r2,r2,r2
   242cc:	10c5883a 	add	r2,r2,r3
   242d0:	100490ba 	slli	r2,r2,2
   242d4:	00c000b4 	movhi	r3,2
   242d8:	10c7883a 	add	r3,r2,r3
   242dc:	189af917 	ldw	r2,27620(r3)
   242e0:	10000c0e 	bge	r2,zero,24314 <alt_file_locked+0xac>
   242e4:	e0ffff17 	ldw	r3,-4(fp)
   242e8:	1805883a 	mov	r2,r3
   242ec:	1085883a 	add	r2,r2,r2
   242f0:	10c5883a 	add	r2,r2,r3
   242f4:	100490ba 	slli	r2,r2,2
   242f8:	00c000b4 	movhi	r3,2
   242fc:	18daf704 	addi	r3,r3,27612
   24300:	10c5883a 	add	r2,r2,r3
   24304:	e0fffe17 	ldw	r3,-8(fp)
   24308:	18800226 	beq	r3,r2,24314 <alt_file_locked+0xac>
   2430c:	00bffcc4 	movi	r2,-13
   24310:	00000806 	br	24334 <alt_file_locked+0xcc>
   24314:	e0bfff17 	ldw	r2,-4(fp)
   24318:	10800044 	addi	r2,r2,1
   2431c:	e0bfff15 	stw	r2,-4(fp)
   24320:	d0a00f17 	ldw	r2,-32708(gp)
   24324:	1007883a 	mov	r3,r2
   24328:	e0bfff17 	ldw	r2,-4(fp)
   2432c:	18bfd92e 	bgeu	r3,r2,24294 <alt_file_locked+0x2c>
   24330:	0005883a 	mov	r2,zero
   24334:	e037883a 	mov	sp,fp
   24338:	df000017 	ldw	fp,0(sp)
   2433c:	dec00104 	addi	sp,sp,4
   24340:	f800283a 	ret

00024344 <open>:
   24344:	defff604 	addi	sp,sp,-40
   24348:	dfc00915 	stw	ra,36(sp)
   2434c:	df000815 	stw	fp,32(sp)
   24350:	df000804 	addi	fp,sp,32
   24354:	e13ffa15 	stw	r4,-24(fp)
   24358:	e17ff915 	stw	r5,-28(fp)
   2435c:	e1bff815 	stw	r6,-32(fp)
   24360:	00bfffc4 	movi	r2,-1
   24364:	e0bffe15 	stw	r2,-8(fp)
   24368:	00bffb44 	movi	r2,-19
   2436c:	e0bffd15 	stw	r2,-12(fp)
   24370:	e03ffc15 	stw	zero,-16(fp)
   24374:	d1600d04 	addi	r5,gp,-32716
   24378:	e13ffa17 	ldw	r4,-24(fp)
   2437c:	00246e40 	call	246e4 <alt_find_dev>
   24380:	e0bfff15 	stw	r2,-4(fp)
   24384:	e0bfff17 	ldw	r2,-4(fp)
   24388:	1000051e 	bne	r2,zero,243a0 <open+0x5c>
   2438c:	e13ffa17 	ldw	r4,-24(fp)
   24390:	00247740 	call	24774 <alt_find_file>
   24394:	e0bfff15 	stw	r2,-4(fp)
   24398:	00800044 	movi	r2,1
   2439c:	e0bffc15 	stw	r2,-16(fp)
   243a0:	e0bfff17 	ldw	r2,-4(fp)
   243a4:	10002c26 	beq	r2,zero,24458 <open+0x114>
   243a8:	e13fff17 	ldw	r4,-4(fp)
   243ac:	002487c0 	call	2487c <alt_get_fd>
   243b0:	e0bffe15 	stw	r2,-8(fp)
   243b4:	e0bffe17 	ldw	r2,-8(fp)
   243b8:	1000030e 	bge	r2,zero,243c8 <open+0x84>
   243bc:	e0bffe17 	ldw	r2,-8(fp)
   243c0:	e0bffd15 	stw	r2,-12(fp)
   243c4:	00002606 	br	24460 <open+0x11c>
   243c8:	e0fffe17 	ldw	r3,-8(fp)
   243cc:	1805883a 	mov	r2,r3
   243d0:	1085883a 	add	r2,r2,r2
   243d4:	10c5883a 	add	r2,r2,r3
   243d8:	100490ba 	slli	r2,r2,2
   243dc:	00c000b4 	movhi	r3,2
   243e0:	18daf704 	addi	r3,r3,27612
   243e4:	10c5883a 	add	r2,r2,r3
   243e8:	e0bffb15 	stw	r2,-20(fp)
   243ec:	e0fff917 	ldw	r3,-28(fp)
   243f0:	00900034 	movhi	r2,16384
   243f4:	10bfffc4 	addi	r2,r2,-1
   243f8:	1886703a 	and	r3,r3,r2
   243fc:	e0bffb17 	ldw	r2,-20(fp)
   24400:	10c00215 	stw	r3,8(r2)
   24404:	e0bffc17 	ldw	r2,-16(fp)
   24408:	1000051e 	bne	r2,zero,24420 <open+0xdc>
   2440c:	e13ffb17 	ldw	r4,-20(fp)
   24410:	00242680 	call	24268 <alt_file_locked>
   24414:	e0bffd15 	stw	r2,-12(fp)
   24418:	e0bffd17 	ldw	r2,-12(fp)
   2441c:	10001016 	blt	r2,zero,24460 <open+0x11c>
   24420:	e0bfff17 	ldw	r2,-4(fp)
   24424:	10800317 	ldw	r2,12(r2)
   24428:	10000826 	beq	r2,zero,2444c <open+0x108>
   2442c:	e0bfff17 	ldw	r2,-4(fp)
   24430:	10800317 	ldw	r2,12(r2)
   24434:	e1fff817 	ldw	r7,-32(fp)
   24438:	e1bff917 	ldw	r6,-28(fp)
   2443c:	e17ffa17 	ldw	r5,-24(fp)
   24440:	e13ffb17 	ldw	r4,-20(fp)
   24444:	103ee83a 	callr	r2
   24448:	00000106 	br	24450 <open+0x10c>
   2444c:	0005883a 	mov	r2,zero
   24450:	e0bffd15 	stw	r2,-12(fp)
   24454:	00000206 	br	24460 <open+0x11c>
   24458:	00bffb44 	movi	r2,-19
   2445c:	e0bffd15 	stw	r2,-12(fp)
   24460:	e0bffd17 	ldw	r2,-12(fp)
   24464:	1000090e 	bge	r2,zero,2448c <open+0x148>
   24468:	e13ffe17 	ldw	r4,-8(fp)
   2446c:	00244a40 	call	244a4 <alt_release_fd>
   24470:	002422c0 	call	2422c <alt_get_errno>
   24474:	1007883a 	mov	r3,r2
   24478:	e0bffd17 	ldw	r2,-12(fp)
   2447c:	0085c83a 	sub	r2,zero,r2
   24480:	18800015 	stw	r2,0(r3)
   24484:	00bfffc4 	movi	r2,-1
   24488:	00000106 	br	24490 <open+0x14c>
   2448c:	e0bffe17 	ldw	r2,-8(fp)
   24490:	e037883a 	mov	sp,fp
   24494:	dfc00117 	ldw	ra,4(sp)
   24498:	df000017 	ldw	fp,0(sp)
   2449c:	dec00204 	addi	sp,sp,8
   244a0:	f800283a 	ret

000244a4 <alt_release_fd>:
   244a4:	defffe04 	addi	sp,sp,-8
   244a8:	df000115 	stw	fp,4(sp)
   244ac:	df000104 	addi	fp,sp,4
   244b0:	e13fff15 	stw	r4,-4(fp)
   244b4:	e0bfff17 	ldw	r2,-4(fp)
   244b8:	108000d0 	cmplti	r2,r2,3
   244bc:	1000101e 	bne	r2,zero,24500 <alt_release_fd+0x5c>
   244c0:	e0ffff17 	ldw	r3,-4(fp)
   244c4:	1805883a 	mov	r2,r3
   244c8:	1085883a 	add	r2,r2,r2
   244cc:	10c5883a 	add	r2,r2,r3
   244d0:	100490ba 	slli	r2,r2,2
   244d4:	00c000b4 	movhi	r3,2
   244d8:	10c7883a 	add	r3,r2,r3
   244dc:	181af915 	stw	zero,27620(r3)
   244e0:	e0ffff17 	ldw	r3,-4(fp)
   244e4:	1805883a 	mov	r2,r3
   244e8:	1085883a 	add	r2,r2,r2
   244ec:	10c5883a 	add	r2,r2,r3
   244f0:	100490ba 	slli	r2,r2,2
   244f4:	00c000b4 	movhi	r3,2
   244f8:	10c7883a 	add	r3,r2,r3
   244fc:	181af715 	stw	zero,27612(r3)
   24500:	0001883a 	nop
   24504:	e037883a 	mov	sp,fp
   24508:	df000017 	ldw	fp,0(sp)
   2450c:	dec00104 	addi	sp,sp,4
   24510:	f800283a 	ret

00024514 <alt_alarm_stop>:
   24514:	defffa04 	addi	sp,sp,-24
   24518:	df000515 	stw	fp,20(sp)
   2451c:	df000504 	addi	fp,sp,20
   24520:	e13ffb15 	stw	r4,-20(fp)
   24524:	0005303a 	rdctl	r2,status
   24528:	e0bffc15 	stw	r2,-16(fp)
   2452c:	e0fffc17 	ldw	r3,-16(fp)
   24530:	00bfff84 	movi	r2,-2
   24534:	1884703a 	and	r2,r3,r2
   24538:	1001703a 	wrctl	status,r2
   2453c:	e0bffc17 	ldw	r2,-16(fp)
   24540:	e0bfff15 	stw	r2,-4(fp)
   24544:	e0bffb17 	ldw	r2,-20(fp)
   24548:	e0bffd15 	stw	r2,-12(fp)
   2454c:	e0bffd17 	ldw	r2,-12(fp)
   24550:	10800017 	ldw	r2,0(r2)
   24554:	e0fffd17 	ldw	r3,-12(fp)
   24558:	18c00117 	ldw	r3,4(r3)
   2455c:	10c00115 	stw	r3,4(r2)
   24560:	e0bffd17 	ldw	r2,-12(fp)
   24564:	10800117 	ldw	r2,4(r2)
   24568:	e0fffd17 	ldw	r3,-12(fp)
   2456c:	18c00017 	ldw	r3,0(r3)
   24570:	10c00015 	stw	r3,0(r2)
   24574:	e0bffd17 	ldw	r2,-12(fp)
   24578:	e0fffd17 	ldw	r3,-12(fp)
   2457c:	10c00115 	stw	r3,4(r2)
   24580:	e0bffd17 	ldw	r2,-12(fp)
   24584:	e0fffd17 	ldw	r3,-12(fp)
   24588:	10c00015 	stw	r3,0(r2)
   2458c:	0001883a 	nop
   24590:	e0bfff17 	ldw	r2,-4(fp)
   24594:	e0bffe15 	stw	r2,-8(fp)
   24598:	e0bffe17 	ldw	r2,-8(fp)
   2459c:	1001703a 	wrctl	status,r2
   245a0:	0001883a 	nop
   245a4:	0001883a 	nop
   245a8:	e037883a 	mov	sp,fp
   245ac:	df000017 	ldw	fp,0(sp)
   245b0:	dec00104 	addi	sp,sp,4
   245b4:	f800283a 	ret

000245b8 <alt_tick>:
   245b8:	defffb04 	addi	sp,sp,-20
   245bc:	dfc00415 	stw	ra,16(sp)
   245c0:	df000315 	stw	fp,12(sp)
   245c4:	df000304 	addi	fp,sp,12
   245c8:	d0a01217 	ldw	r2,-32696(gp)
   245cc:	e0bfff15 	stw	r2,-4(fp)
   245d0:	d0a6be17 	ldw	r2,-25864(gp)
   245d4:	10800044 	addi	r2,r2,1
   245d8:	d0a6be15 	stw	r2,-25864(gp)
   245dc:	00002e06 	br	24698 <alt_tick+0xe0>
   245e0:	e0bfff17 	ldw	r2,-4(fp)
   245e4:	10800017 	ldw	r2,0(r2)
   245e8:	e0bffe15 	stw	r2,-8(fp)
   245ec:	e0bfff17 	ldw	r2,-4(fp)
   245f0:	10800403 	ldbu	r2,16(r2)
   245f4:	10803fcc 	andi	r2,r2,255
   245f8:	10000426 	beq	r2,zero,2460c <alt_tick+0x54>
   245fc:	d0a6be17 	ldw	r2,-25864(gp)
   24600:	1000021e 	bne	r2,zero,2460c <alt_tick+0x54>
   24604:	e0bfff17 	ldw	r2,-4(fp)
   24608:	10000405 	stb	zero,16(r2)
   2460c:	e0bfff17 	ldw	r2,-4(fp)
   24610:	10800217 	ldw	r2,8(r2)
   24614:	d0e6be17 	ldw	r3,-25864(gp)
   24618:	18801d36 	bltu	r3,r2,24690 <alt_tick+0xd8>
   2461c:	e0bfff17 	ldw	r2,-4(fp)
   24620:	10800403 	ldbu	r2,16(r2)
   24624:	10803fcc 	andi	r2,r2,255
   24628:	1000191e 	bne	r2,zero,24690 <alt_tick+0xd8>
   2462c:	e0bfff17 	ldw	r2,-4(fp)
   24630:	10800317 	ldw	r2,12(r2)
   24634:	e0ffff17 	ldw	r3,-4(fp)
   24638:	18c00517 	ldw	r3,20(r3)
   2463c:	1809883a 	mov	r4,r3
   24640:	103ee83a 	callr	r2
   24644:	e0bffd15 	stw	r2,-12(fp)
   24648:	e0bffd17 	ldw	r2,-12(fp)
   2464c:	1000031e 	bne	r2,zero,2465c <alt_tick+0xa4>
   24650:	e13fff17 	ldw	r4,-4(fp)
   24654:	00245140 	call	24514 <alt_alarm_stop>
   24658:	00000d06 	br	24690 <alt_tick+0xd8>
   2465c:	e0bfff17 	ldw	r2,-4(fp)
   24660:	10c00217 	ldw	r3,8(r2)
   24664:	e0bffd17 	ldw	r2,-12(fp)
   24668:	1887883a 	add	r3,r3,r2
   2466c:	e0bfff17 	ldw	r2,-4(fp)
   24670:	10c00215 	stw	r3,8(r2)
   24674:	e0bfff17 	ldw	r2,-4(fp)
   24678:	10c00217 	ldw	r3,8(r2)
   2467c:	d0a6be17 	ldw	r2,-25864(gp)
   24680:	1880032e 	bgeu	r3,r2,24690 <alt_tick+0xd8>
   24684:	e0bfff17 	ldw	r2,-4(fp)
   24688:	00c00044 	movi	r3,1
   2468c:	10c00405 	stb	r3,16(r2)
   24690:	e0bffe17 	ldw	r2,-8(fp)
   24694:	e0bfff15 	stw	r2,-4(fp)
   24698:	e0ffff17 	ldw	r3,-4(fp)
   2469c:	d0a01204 	addi	r2,gp,-32696
   246a0:	18bfcf1e 	bne	r3,r2,245e0 <alt_tick+0x28>
   246a4:	0001883a 	nop
   246a8:	0001883a 	nop
   246ac:	e037883a 	mov	sp,fp
   246b0:	dfc00117 	ldw	ra,4(sp)
   246b4:	df000017 	ldw	fp,0(sp)
   246b8:	dec00204 	addi	sp,sp,8
   246bc:	f800283a 	ret

000246c0 <altera_nios2_gen2_irq_init>:
   246c0:	deffff04 	addi	sp,sp,-4
   246c4:	df000015 	stw	fp,0(sp)
   246c8:	d839883a 	mov	fp,sp
   246cc:	000170fa 	wrctl	ienable,zero
   246d0:	0001883a 	nop
   246d4:	e037883a 	mov	sp,fp
   246d8:	df000017 	ldw	fp,0(sp)
   246dc:	dec00104 	addi	sp,sp,4
   246e0:	f800283a 	ret

000246e4 <alt_find_dev>:
   246e4:	defffa04 	addi	sp,sp,-24
   246e8:	dfc00515 	stw	ra,20(sp)
   246ec:	df000415 	stw	fp,16(sp)
   246f0:	df000404 	addi	fp,sp,16
   246f4:	e13ffd15 	stw	r4,-12(fp)
   246f8:	e17ffc15 	stw	r5,-16(fp)
   246fc:	e0bffc17 	ldw	r2,-16(fp)
   24700:	10800017 	ldw	r2,0(r2)
   24704:	e0bfff15 	stw	r2,-4(fp)
   24708:	e13ffd17 	ldw	r4,-12(fp)
   2470c:	0024b8c0 	call	24b8c <strlen>
   24710:	10800044 	addi	r2,r2,1
   24714:	e0bffe15 	stw	r2,-8(fp)
   24718:	00000d06 	br	24750 <alt_find_dev+0x6c>
   2471c:	e0bfff17 	ldw	r2,-4(fp)
   24720:	10800217 	ldw	r2,8(r2)
   24724:	e0fffe17 	ldw	r3,-8(fp)
   24728:	180d883a 	mov	r6,r3
   2472c:	e17ffd17 	ldw	r5,-12(fp)
   24730:	1009883a 	mov	r4,r2
   24734:	0024a140 	call	24a14 <memcmp>
   24738:	1000021e 	bne	r2,zero,24744 <alt_find_dev+0x60>
   2473c:	e0bfff17 	ldw	r2,-4(fp)
   24740:	00000706 	br	24760 <alt_find_dev+0x7c>
   24744:	e0bfff17 	ldw	r2,-4(fp)
   24748:	10800017 	ldw	r2,0(r2)
   2474c:	e0bfff15 	stw	r2,-4(fp)
   24750:	e0ffff17 	ldw	r3,-4(fp)
   24754:	e0bffc17 	ldw	r2,-16(fp)
   24758:	18bff01e 	bne	r3,r2,2471c <alt_find_dev+0x38>
   2475c:	0005883a 	mov	r2,zero
   24760:	e037883a 	mov	sp,fp
   24764:	dfc00117 	ldw	ra,4(sp)
   24768:	df000017 	ldw	fp,0(sp)
   2476c:	dec00204 	addi	sp,sp,8
   24770:	f800283a 	ret

00024774 <alt_find_file>:
   24774:	defffb04 	addi	sp,sp,-20
   24778:	dfc00415 	stw	ra,16(sp)
   2477c:	df000315 	stw	fp,12(sp)
   24780:	df000304 	addi	fp,sp,12
   24784:	e13ffd15 	stw	r4,-12(fp)
   24788:	d0a00b17 	ldw	r2,-32724(gp)
   2478c:	e0bfff15 	stw	r2,-4(fp)
   24790:	00003106 	br	24858 <alt_find_file+0xe4>
   24794:	e0bfff17 	ldw	r2,-4(fp)
   24798:	10800217 	ldw	r2,8(r2)
   2479c:	1009883a 	mov	r4,r2
   247a0:	0024b8c0 	call	24b8c <strlen>
   247a4:	e0bffe15 	stw	r2,-8(fp)
   247a8:	e0bfff17 	ldw	r2,-4(fp)
   247ac:	10c00217 	ldw	r3,8(r2)
   247b0:	e0bffe17 	ldw	r2,-8(fp)
   247b4:	10bfffc4 	addi	r2,r2,-1
   247b8:	1885883a 	add	r2,r3,r2
   247bc:	10800003 	ldbu	r2,0(r2)
   247c0:	10803fcc 	andi	r2,r2,255
   247c4:	1080201c 	xori	r2,r2,128
   247c8:	10bfe004 	addi	r2,r2,-128
   247cc:	10800bd8 	cmpnei	r2,r2,47
   247d0:	1000031e 	bne	r2,zero,247e0 <alt_find_file+0x6c>
   247d4:	e0bffe17 	ldw	r2,-8(fp)
   247d8:	10bfffc4 	addi	r2,r2,-1
   247dc:	e0bffe15 	stw	r2,-8(fp)
   247e0:	e0bffe17 	ldw	r2,-8(fp)
   247e4:	e0fffd17 	ldw	r3,-12(fp)
   247e8:	1885883a 	add	r2,r3,r2
   247ec:	10800003 	ldbu	r2,0(r2)
   247f0:	10803fcc 	andi	r2,r2,255
   247f4:	1080201c 	xori	r2,r2,128
   247f8:	10bfe004 	addi	r2,r2,-128
   247fc:	10800be0 	cmpeqi	r2,r2,47
   24800:	1000081e 	bne	r2,zero,24824 <alt_find_file+0xb0>
   24804:	e0bffe17 	ldw	r2,-8(fp)
   24808:	e0fffd17 	ldw	r3,-12(fp)
   2480c:	1885883a 	add	r2,r3,r2
   24810:	10800003 	ldbu	r2,0(r2)
   24814:	10803fcc 	andi	r2,r2,255
   24818:	1080201c 	xori	r2,r2,128
   2481c:	10bfe004 	addi	r2,r2,-128
   24820:	10000a1e 	bne	r2,zero,2484c <alt_find_file+0xd8>
   24824:	e0bfff17 	ldw	r2,-4(fp)
   24828:	10800217 	ldw	r2,8(r2)
   2482c:	e0fffe17 	ldw	r3,-8(fp)
   24830:	180d883a 	mov	r6,r3
   24834:	e17ffd17 	ldw	r5,-12(fp)
   24838:	1009883a 	mov	r4,r2
   2483c:	0024a140 	call	24a14 <memcmp>
   24840:	1000021e 	bne	r2,zero,2484c <alt_find_file+0xd8>
   24844:	e0bfff17 	ldw	r2,-4(fp)
   24848:	00000706 	br	24868 <alt_find_file+0xf4>
   2484c:	e0bfff17 	ldw	r2,-4(fp)
   24850:	10800017 	ldw	r2,0(r2)
   24854:	e0bfff15 	stw	r2,-4(fp)
   24858:	e0ffff17 	ldw	r3,-4(fp)
   2485c:	d0a00b04 	addi	r2,gp,-32724
   24860:	18bfcc1e 	bne	r3,r2,24794 <alt_find_file+0x20>
   24864:	0005883a 	mov	r2,zero
   24868:	e037883a 	mov	sp,fp
   2486c:	dfc00117 	ldw	ra,4(sp)
   24870:	df000017 	ldw	fp,0(sp)
   24874:	dec00204 	addi	sp,sp,8
   24878:	f800283a 	ret

0002487c <alt_get_fd>:
   2487c:	defffc04 	addi	sp,sp,-16
   24880:	df000315 	stw	fp,12(sp)
   24884:	df000304 	addi	fp,sp,12
   24888:	e13ffd15 	stw	r4,-12(fp)
   2488c:	00bffa04 	movi	r2,-24
   24890:	e0bffe15 	stw	r2,-8(fp)
   24894:	e03fff15 	stw	zero,-4(fp)
   24898:	00001d06 	br	24910 <alt_get_fd+0x94>
   2489c:	e0ffff17 	ldw	r3,-4(fp)
   248a0:	1805883a 	mov	r2,r3
   248a4:	1085883a 	add	r2,r2,r2
   248a8:	10c5883a 	add	r2,r2,r3
   248ac:	100490ba 	slli	r2,r2,2
   248b0:	00c000b4 	movhi	r3,2
   248b4:	10c7883a 	add	r3,r2,r3
   248b8:	189af717 	ldw	r2,27612(r3)
   248bc:	1000111e 	bne	r2,zero,24904 <alt_get_fd+0x88>
   248c0:	e0ffff17 	ldw	r3,-4(fp)
   248c4:	1805883a 	mov	r2,r3
   248c8:	1085883a 	add	r2,r2,r2
   248cc:	10c5883a 	add	r2,r2,r3
   248d0:	100490ba 	slli	r2,r2,2
   248d4:	e13ffd17 	ldw	r4,-12(fp)
   248d8:	00c000b4 	movhi	r3,2
   248dc:	10c7883a 	add	r3,r2,r3
   248e0:	191af715 	stw	r4,27612(r3)
   248e4:	d0e00f17 	ldw	r3,-32708(gp)
   248e8:	e0bfff17 	ldw	r2,-4(fp)
   248ec:	1880020e 	bge	r3,r2,248f8 <alt_get_fd+0x7c>
   248f0:	e0bfff17 	ldw	r2,-4(fp)
   248f4:	d0a00f15 	stw	r2,-32708(gp)
   248f8:	e0bfff17 	ldw	r2,-4(fp)
   248fc:	e0bffe15 	stw	r2,-8(fp)
   24900:	00000706 	br	24920 <alt_get_fd+0xa4>
   24904:	e0bfff17 	ldw	r2,-4(fp)
   24908:	10800044 	addi	r2,r2,1
   2490c:	e0bfff15 	stw	r2,-4(fp)
   24910:	e0bfff17 	ldw	r2,-4(fp)
   24914:	10800810 	cmplti	r2,r2,32
   24918:	103fe01e 	bne	r2,zero,2489c <alt_get_fd+0x20>
   2491c:	0001883a 	nop
   24920:	e0bffe17 	ldw	r2,-8(fp)
   24924:	e037883a 	mov	sp,fp
   24928:	df000017 	ldw	fp,0(sp)
   2492c:	dec00104 	addi	sp,sp,4
   24930:	f800283a 	ret

00024934 <alt_exception_cause_generated_bad_addr>:
   24934:	defffe04 	addi	sp,sp,-8
   24938:	df000115 	stw	fp,4(sp)
   2493c:	df000104 	addi	fp,sp,4
   24940:	e13fff15 	stw	r4,-4(fp)
   24944:	e0bfff17 	ldw	r2,-4(fp)
   24948:	10bffe84 	addi	r2,r2,-6
   2494c:	10c00428 	cmpgeui	r3,r2,16
   24950:	1800191e 	bne	r3,zero,249b8 <alt_exception_cause_generated_bad_addr+0x84>
   24954:	100690ba 	slli	r3,r2,2
   24958:	008000b4 	movhi	r2,2
   2495c:	1885883a 	add	r2,r3,r2
   24960:	10925a17 	ldw	r2,18792(r2)
   24964:	1000683a 	jmp	r2
   24968:	000249a8 	cmpgeui	zero,zero,2342
   2496c:	000249a8 	cmpgeui	zero,zero,2342
   24970:	000249b8 	rdprs	zero,zero,2342
   24974:	000249b8 	rdprs	zero,zero,2342
   24978:	000249b8 	rdprs	zero,zero,2342
   2497c:	000249a8 	cmpgeui	zero,zero,2342
   24980:	000249b0 	cmpltui	zero,zero,2342
   24984:	000249b8 	rdprs	zero,zero,2342
   24988:	000249a8 	cmpgeui	zero,zero,2342
   2498c:	000249a8 	cmpgeui	zero,zero,2342
   24990:	000249b8 	rdprs	zero,zero,2342
   24994:	000249a8 	cmpgeui	zero,zero,2342
   24998:	000249b0 	cmpltui	zero,zero,2342
   2499c:	000249b8 	rdprs	zero,zero,2342
   249a0:	000249b8 	rdprs	zero,zero,2342
   249a4:	000249a8 	cmpgeui	zero,zero,2342
   249a8:	00800044 	movi	r2,1
   249ac:	00000306 	br	249bc <alt_exception_cause_generated_bad_addr+0x88>
   249b0:	0005883a 	mov	r2,zero
   249b4:	00000106 	br	249bc <alt_exception_cause_generated_bad_addr+0x88>
   249b8:	0005883a 	mov	r2,zero
   249bc:	e037883a 	mov	sp,fp
   249c0:	df000017 	ldw	fp,0(sp)
   249c4:	dec00104 	addi	sp,sp,4
   249c8:	f800283a 	ret

000249cc <atexit>:
   249cc:	200b883a 	mov	r5,r4
   249d0:	000f883a 	mov	r7,zero
   249d4:	000d883a 	mov	r6,zero
   249d8:	0009883a 	mov	r4,zero
   249dc:	0024c241 	jmpi	24c24 <__register_exitproc>

000249e0 <exit>:
   249e0:	defffe04 	addi	sp,sp,-8
   249e4:	000b883a 	mov	r5,zero
   249e8:	dc000015 	stw	r16,0(sp)
   249ec:	dfc00115 	stw	ra,4(sp)
   249f0:	2021883a 	mov	r16,r4
   249f4:	0024cb40 	call	24cb4 <__call_exitprocs>
   249f8:	008000b4 	movhi	r2,2
   249fc:	111b5f17 	ldw	r4,28028(r2)
   24a00:	20800f17 	ldw	r2,60(r4)
   24a04:	10000126 	beq	r2,zero,24a0c <exit+0x2c>
   24a08:	103ee83a 	callr	r2
   24a0c:	8009883a 	mov	r4,r16
   24a10:	0024fb00 	call	24fb0 <_exit>

00024a14 <memcmp>:
   24a14:	30800130 	cmpltui	r2,r6,4
   24a18:	10000b1e 	bne	r2,zero,24a48 <memcmp+0x34>
   24a1c:	2144b03a 	or	r2,r4,r5
   24a20:	108000cc 	andi	r2,r2,3
   24a24:	1000171e 	bne	r2,zero,24a84 <memcmp+0x70>
   24a28:	20c00017 	ldw	r3,0(r4)
   24a2c:	28800017 	ldw	r2,0(r5)
   24a30:	1880141e 	bne	r3,r2,24a84 <memcmp+0x70>
   24a34:	31bfff04 	addi	r6,r6,-4
   24a38:	30800128 	cmpgeui	r2,r6,4
   24a3c:	21000104 	addi	r4,r4,4
   24a40:	29400104 	addi	r5,r5,4
   24a44:	103ff81e 	bne	r2,zero,24a28 <memcmp+0x14>
   24a48:	30bfffc4 	addi	r2,r6,-1
   24a4c:	30000b26 	beq	r6,zero,24a7c <memcmp+0x68>
   24a50:	11800044 	addi	r6,r2,1
   24a54:	298d883a 	add	r6,r5,r6
   24a58:	00000106 	br	24a60 <memcmp+0x4c>
   24a5c:	29800726 	beq	r5,r6,24a7c <memcmp+0x68>
   24a60:	20800003 	ldbu	r2,0(r4)
   24a64:	28c00003 	ldbu	r3,0(r5)
   24a68:	21000044 	addi	r4,r4,1
   24a6c:	29400044 	addi	r5,r5,1
   24a70:	10fffa26 	beq	r2,r3,24a5c <memcmp+0x48>
   24a74:	10c5c83a 	sub	r2,r2,r3
   24a78:	f800283a 	ret
   24a7c:	0005883a 	mov	r2,zero
   24a80:	f800283a 	ret
   24a84:	30bfffc4 	addi	r2,r6,-1
   24a88:	003ff106 	br	24a50 <memcmp+0x3c>

00024a8c <memcpy>:
   24a8c:	30c00430 	cmpltui	r3,r6,16
   24a90:	2005883a 	mov	r2,r4
   24a94:	18002d1e 	bne	r3,zero,24b4c <memcpy+0xc0>
   24a98:	2906b03a 	or	r3,r5,r4
   24a9c:	18c000cc 	andi	r3,r3,3
   24aa0:	1800351e 	bne	r3,zero,24b78 <memcpy+0xec>
   24aa4:	32fffc04 	addi	r11,r6,-16
   24aa8:	5816d13a 	srli	r11,r11,4
   24aac:	280f883a 	mov	r7,r5
   24ab0:	2007883a 	mov	r3,r4
   24ab4:	5ac00044 	addi	r11,r11,1
   24ab8:	5816913a 	slli	r11,r11,4
   24abc:	22d5883a 	add	r10,r4,r11
   24ac0:	39000117 	ldw	r4,4(r7)
   24ac4:	3a400017 	ldw	r9,0(r7)
   24ac8:	3a000217 	ldw	r8,8(r7)
   24acc:	19000115 	stw	r4,4(r3)
   24ad0:	39000317 	ldw	r4,12(r7)
   24ad4:	1a400015 	stw	r9,0(r3)
   24ad8:	1a000215 	stw	r8,8(r3)
   24adc:	19000315 	stw	r4,12(r3)
   24ae0:	18c00404 	addi	r3,r3,16
   24ae4:	39c00404 	addi	r7,r7,16
   24ae8:	50fff51e 	bne	r10,r3,24ac0 <memcpy+0x34>
   24aec:	3100030c 	andi	r4,r6,12
   24af0:	2acb883a 	add	r5,r5,r11
   24af4:	320003cc 	andi	r8,r6,15
   24af8:	20002226 	beq	r4,zero,24b84 <memcpy+0xf8>
   24afc:	280f883a 	mov	r7,r5
   24b00:	1813883a 	mov	r9,r3
   24b04:	39c00104 	addi	r7,r7,4
   24b08:	3abfff17 	ldw	r10,-4(r7)
   24b0c:	41c9c83a 	sub	r4,r8,r7
   24b10:	2909883a 	add	r4,r5,r4
   24b14:	4a800015 	stw	r10,0(r9)
   24b18:	21000128 	cmpgeui	r4,r4,4
   24b1c:	4a400104 	addi	r9,r9,4
   24b20:	203ff81e 	bne	r4,zero,24b04 <memcpy+0x78>
   24b24:	413fff04 	addi	r4,r8,-4
   24b28:	2008d0ba 	srli	r4,r4,2
   24b2c:	318000cc 	andi	r6,r6,3
   24b30:	31ffffc4 	addi	r7,r6,-1
   24b34:	21000044 	addi	r4,r4,1
   24b38:	200890ba 	slli	r4,r4,2
   24b3c:	1907883a 	add	r3,r3,r4
   24b40:	290b883a 	add	r5,r5,r4
   24b44:	3000041e 	bne	r6,zero,24b58 <memcpy+0xcc>
   24b48:	f800283a 	ret
   24b4c:	2007883a 	mov	r3,r4
   24b50:	31ffffc4 	addi	r7,r6,-1
   24b54:	303ffc26 	beq	r6,zero,24b48 <memcpy+0xbc>
   24b58:	39c00044 	addi	r7,r7,1
   24b5c:	19cf883a 	add	r7,r3,r7
   24b60:	29800003 	ldbu	r6,0(r5)
   24b64:	18c00044 	addi	r3,r3,1
   24b68:	29400044 	addi	r5,r5,1
   24b6c:	19bfffc5 	stb	r6,-1(r3)
   24b70:	38fffb1e 	bne	r7,r3,24b60 <memcpy+0xd4>
   24b74:	f800283a 	ret
   24b78:	31ffffc4 	addi	r7,r6,-1
   24b7c:	2007883a 	mov	r3,r4
   24b80:	003ff506 	br	24b58 <memcpy+0xcc>
   24b84:	400d883a 	mov	r6,r8
   24b88:	003ff106 	br	24b50 <memcpy+0xc4>

00024b8c <strlen>:
   24b8c:	208000cc 	andi	r2,r4,3
   24b90:	10000926 	beq	r2,zero,24bb8 <strlen+0x2c>
   24b94:	2005883a 	mov	r2,r4
   24b98:	00000306 	br	24ba8 <strlen+0x1c>
   24b9c:	10800044 	addi	r2,r2,1
   24ba0:	10c000cc 	andi	r3,r2,3
   24ba4:	18000526 	beq	r3,zero,24bbc <strlen+0x30>
   24ba8:	10c00007 	ldb	r3,0(r2)
   24bac:	183ffb1e 	bne	r3,zero,24b9c <strlen+0x10>
   24bb0:	1105c83a 	sub	r2,r2,r4
   24bb4:	f800283a 	ret
   24bb8:	2005883a 	mov	r2,r4
   24bbc:	11400017 	ldw	r5,0(r2)
   24bc0:	01ffbff4 	movhi	r7,65279
   24bc4:	39ffbfc4 	addi	r7,r7,-257
   24bc8:	29c7883a 	add	r3,r5,r7
   24bcc:	01a02074 	movhi	r6,32897
   24bd0:	014a303a 	nor	r5,zero,r5
   24bd4:	1946703a 	and	r3,r3,r5
   24bd8:	31a02004 	addi	r6,r6,-32640
   24bdc:	1986703a 	and	r3,r3,r6
   24be0:	1800071e 	bne	r3,zero,24c00 <strlen+0x74>
   24be4:	11400117 	ldw	r5,4(r2)
   24be8:	10800104 	addi	r2,r2,4
   24bec:	29c7883a 	add	r3,r5,r7
   24bf0:	014a303a 	nor	r5,zero,r5
   24bf4:	1946703a 	and	r3,r3,r5
   24bf8:	1986703a 	and	r3,r3,r6
   24bfc:	183ff926 	beq	r3,zero,24be4 <strlen+0x58>
   24c00:	10c00007 	ldb	r3,0(r2)
   24c04:	183fea26 	beq	r3,zero,24bb0 <strlen+0x24>
   24c08:	10c00047 	ldb	r3,1(r2)
   24c0c:	10800044 	addi	r2,r2,1
   24c10:	183fe726 	beq	r3,zero,24bb0 <strlen+0x24>
   24c14:	10c00047 	ldb	r3,1(r2)
   24c18:	10800044 	addi	r2,r2,1
   24c1c:	183ffa1e 	bne	r3,zero,24c08 <strlen+0x7c>
   24c20:	003fe306 	br	24bb0 <strlen+0x24>

00024c24 <__register_exitproc>:
   24c24:	008000b4 	movhi	r2,2
   24c28:	10db5f17 	ldw	r3,28028(r2)
   24c2c:	18805217 	ldw	r2,328(r3)
   24c30:	10001726 	beq	r2,zero,24c90 <__register_exitproc+0x6c>
   24c34:	10c00117 	ldw	r3,4(r2)
   24c38:	1a000808 	cmpgei	r8,r3,32
   24c3c:	40001b1e 	bne	r8,zero,24cac <__register_exitproc+0x88>
   24c40:	20000b26 	beq	r4,zero,24c70 <__register_exitproc+0x4c>
   24c44:	181090ba 	slli	r8,r3,2
   24c48:	02400044 	movi	r9,1
   24c4c:	48d2983a 	sll	r9,r9,r3
   24c50:	1211883a 	add	r8,r2,r8
   24c54:	41802215 	stw	r6,136(r8)
   24c58:	11806217 	ldw	r6,392(r2)
   24c5c:	21000098 	cmpnei	r4,r4,2
   24c60:	324cb03a 	or	r6,r6,r9
   24c64:	11806215 	stw	r6,392(r2)
   24c68:	41c04215 	stw	r7,264(r8)
   24c6c:	20000b26 	beq	r4,zero,24c9c <__register_exitproc+0x78>
   24c70:	19000084 	addi	r4,r3,2
   24c74:	200890ba 	slli	r4,r4,2
   24c78:	18c00044 	addi	r3,r3,1
   24c7c:	10c00115 	stw	r3,4(r2)
   24c80:	1105883a 	add	r2,r2,r4
   24c84:	11400015 	stw	r5,0(r2)
   24c88:	0005883a 	mov	r2,zero
   24c8c:	f800283a 	ret
   24c90:	18805304 	addi	r2,r3,332
   24c94:	18805215 	stw	r2,328(r3)
   24c98:	003fe606 	br	24c34 <__register_exitproc+0x10>
   24c9c:	11006317 	ldw	r4,396(r2)
   24ca0:	2252b03a 	or	r9,r4,r9
   24ca4:	12406315 	stw	r9,396(r2)
   24ca8:	003ff106 	br	24c70 <__register_exitproc+0x4c>
   24cac:	00bfffc4 	movi	r2,-1
   24cb0:	f800283a 	ret

00024cb4 <__call_exitprocs>:
   24cb4:	defff704 	addi	sp,sp,-36
   24cb8:	008000b4 	movhi	r2,2
   24cbc:	dcc00315 	stw	r19,12(sp)
   24cc0:	14db5f17 	ldw	r19,28028(r2)
   24cc4:	dc800215 	stw	r18,8(sp)
   24cc8:	dfc00815 	stw	ra,32(sp)
   24ccc:	9c805217 	ldw	r18,328(r19)
   24cd0:	ddc00715 	stw	r23,28(sp)
   24cd4:	dd800615 	stw	r22,24(sp)
   24cd8:	dd400515 	stw	r21,20(sp)
   24cdc:	dd000415 	stw	r20,16(sp)
   24ce0:	dc400115 	stw	r17,4(sp)
   24ce4:	dc000015 	stw	r16,0(sp)
   24ce8:	90001026 	beq	r18,zero,24d2c <__call_exitprocs+0x78>
   24cec:	202b883a 	mov	r21,r4
   24cf0:	282d883a 	mov	r22,r5
   24cf4:	05000044 	movi	r20,1
   24cf8:	94000117 	ldw	r16,4(r18)
   24cfc:	847fffc4 	addi	r17,r16,-1
   24d00:	88000a16 	blt	r17,zero,24d2c <__call_exitprocs+0x78>
   24d04:	84000044 	addi	r16,r16,1
   24d08:	802090ba 	slli	r16,r16,2
   24d0c:	9421883a 	add	r16,r18,r16
   24d10:	b0001126 	beq	r22,zero,24d58 <__call_exitprocs+0xa4>
   24d14:	80804017 	ldw	r2,256(r16)
   24d18:	15800f26 	beq	r2,r22,24d58 <__call_exitprocs+0xa4>
   24d1c:	8c7fffc4 	addi	r17,r17,-1
   24d20:	88bfffd8 	cmpnei	r2,r17,-1
   24d24:	843fff04 	addi	r16,r16,-4
   24d28:	103ff91e 	bne	r2,zero,24d10 <__call_exitprocs+0x5c>
   24d2c:	dfc00817 	ldw	ra,32(sp)
   24d30:	ddc00717 	ldw	r23,28(sp)
   24d34:	dd800617 	ldw	r22,24(sp)
   24d38:	dd400517 	ldw	r21,20(sp)
   24d3c:	dd000417 	ldw	r20,16(sp)
   24d40:	dcc00317 	ldw	r19,12(sp)
   24d44:	dc800217 	ldw	r18,8(sp)
   24d48:	dc400117 	ldw	r17,4(sp)
   24d4c:	dc000017 	ldw	r16,0(sp)
   24d50:	dec00904 	addi	sp,sp,36
   24d54:	f800283a 	ret
   24d58:	90800117 	ldw	r2,4(r18)
   24d5c:	81800017 	ldw	r6,0(r16)
   24d60:	10bfffc4 	addi	r2,r2,-1
   24d64:	14401726 	beq	r2,r17,24dc4 <__call_exitprocs+0x110>
   24d68:	80000015 	stw	zero,0(r16)
   24d6c:	303feb26 	beq	r6,zero,24d1c <__call_exitprocs+0x68>
   24d70:	a446983a 	sll	r3,r20,r17
   24d74:	90806217 	ldw	r2,392(r18)
   24d78:	95c00117 	ldw	r23,4(r18)
   24d7c:	1884703a 	and	r2,r3,r2
   24d80:	1000081e 	bne	r2,zero,24da4 <__call_exitprocs+0xf0>
   24d84:	303ee83a 	callr	r6
   24d88:	90c00117 	ldw	r3,4(r18)
   24d8c:	98805217 	ldw	r2,328(r19)
   24d90:	1dc0011e 	bne	r3,r23,24d98 <__call_exitprocs+0xe4>
   24d94:	90bfe126 	beq	r18,r2,24d1c <__call_exitprocs+0x68>
   24d98:	103fe426 	beq	r2,zero,24d2c <__call_exitprocs+0x78>
   24d9c:	1025883a 	mov	r18,r2
   24da0:	003fd506 	br	24cf8 <__call_exitprocs+0x44>
   24da4:	90806317 	ldw	r2,396(r18)
   24da8:	81002017 	ldw	r4,128(r16)
   24dac:	1886703a 	and	r3,r3,r2
   24db0:	1800061e 	bne	r3,zero,24dcc <__call_exitprocs+0x118>
   24db4:	200b883a 	mov	r5,r4
   24db8:	a809883a 	mov	r4,r21
   24dbc:	303ee83a 	callr	r6
   24dc0:	003ff106 	br	24d88 <__call_exitprocs+0xd4>
   24dc4:	94400115 	stw	r17,4(r18)
   24dc8:	003fe806 	br	24d6c <__call_exitprocs+0xb8>
   24dcc:	303ee83a 	callr	r6
   24dd0:	003fed06 	br	24d88 <__call_exitprocs+0xd4>

00024dd4 <__divsi3>:
   24dd4:	20001a16 	blt	r4,zero,24e40 <__divsi3+0x6c>
   24dd8:	000f883a 	mov	r7,zero
   24ddc:	2800020e 	bge	r5,zero,24de8 <__divsi3+0x14>
   24de0:	014bc83a 	sub	r5,zero,r5
   24de4:	39c0005c 	xori	r7,r7,1
   24de8:	200d883a 	mov	r6,r4
   24dec:	00c00044 	movi	r3,1
   24df0:	2900092e 	bgeu	r5,r4,24e18 <__divsi3+0x44>
   24df4:	00800804 	movi	r2,32
   24df8:	00c00044 	movi	r3,1
   24dfc:	00000106 	br	24e04 <__divsi3+0x30>
   24e00:	10001226 	beq	r2,zero,24e4c <__divsi3+0x78>
   24e04:	294b883a 	add	r5,r5,r5
   24e08:	10bfffc4 	addi	r2,r2,-1
   24e0c:	18c7883a 	add	r3,r3,r3
   24e10:	293ffb36 	bltu	r5,r4,24e00 <__divsi3+0x2c>
   24e14:	18000d26 	beq	r3,zero,24e4c <__divsi3+0x78>
   24e18:	0005883a 	mov	r2,zero
   24e1c:	31400236 	bltu	r6,r5,24e28 <__divsi3+0x54>
   24e20:	314dc83a 	sub	r6,r6,r5
   24e24:	10c4b03a 	or	r2,r2,r3
   24e28:	1806d07a 	srli	r3,r3,1
   24e2c:	280ad07a 	srli	r5,r5,1
   24e30:	183ffa1e 	bne	r3,zero,24e1c <__divsi3+0x48>
   24e34:	38000126 	beq	r7,zero,24e3c <__divsi3+0x68>
   24e38:	0085c83a 	sub	r2,zero,r2
   24e3c:	f800283a 	ret
   24e40:	0109c83a 	sub	r4,zero,r4
   24e44:	01c00044 	movi	r7,1
   24e48:	003fe406 	br	24ddc <__divsi3+0x8>
   24e4c:	0005883a 	mov	r2,zero
   24e50:	003ff806 	br	24e34 <__divsi3+0x60>

00024e54 <__modsi3>:
   24e54:	20001916 	blt	r4,zero,24ebc <__modsi3+0x68>
   24e58:	000f883a 	mov	r7,zero
   24e5c:	2005883a 	mov	r2,r4
   24e60:	2800010e 	bge	r5,zero,24e68 <__modsi3+0x14>
   24e64:	014bc83a 	sub	r5,zero,r5
   24e68:	00c00044 	movi	r3,1
   24e6c:	2900092e 	bgeu	r5,r4,24e94 <__modsi3+0x40>
   24e70:	01800804 	movi	r6,32
   24e74:	00c00044 	movi	r3,1
   24e78:	00000106 	br	24e80 <__modsi3+0x2c>
   24e7c:	30000d26 	beq	r6,zero,24eb4 <__modsi3+0x60>
   24e80:	294b883a 	add	r5,r5,r5
   24e84:	31bfffc4 	addi	r6,r6,-1
   24e88:	18c7883a 	add	r3,r3,r3
   24e8c:	293ffb36 	bltu	r5,r4,24e7c <__modsi3+0x28>
   24e90:	18000826 	beq	r3,zero,24eb4 <__modsi3+0x60>
   24e94:	1806d07a 	srli	r3,r3,1
   24e98:	11400136 	bltu	r2,r5,24ea0 <__modsi3+0x4c>
   24e9c:	1145c83a 	sub	r2,r2,r5
   24ea0:	280ad07a 	srli	r5,r5,1
   24ea4:	183ffb1e 	bne	r3,zero,24e94 <__modsi3+0x40>
   24ea8:	38000126 	beq	r7,zero,24eb0 <__modsi3+0x5c>
   24eac:	0085c83a 	sub	r2,zero,r2
   24eb0:	f800283a 	ret
   24eb4:	2005883a 	mov	r2,r4
   24eb8:	003ffb06 	br	24ea8 <__modsi3+0x54>
   24ebc:	0109c83a 	sub	r4,zero,r4
   24ec0:	01c00044 	movi	r7,1
   24ec4:	003fe506 	br	24e5c <__modsi3+0x8>

00024ec8 <__udivsi3>:
   24ec8:	200d883a 	mov	r6,r4
   24ecc:	2900152e 	bgeu	r5,r4,24f24 <__udivsi3+0x5c>
   24ed0:	28001416 	blt	r5,zero,24f24 <__udivsi3+0x5c>
   24ed4:	00800804 	movi	r2,32
   24ed8:	00c00044 	movi	r3,1
   24edc:	00000206 	br	24ee8 <__udivsi3+0x20>
   24ee0:	10000e26 	beq	r2,zero,24f1c <__udivsi3+0x54>
   24ee4:	28000516 	blt	r5,zero,24efc <__udivsi3+0x34>
   24ee8:	294b883a 	add	r5,r5,r5
   24eec:	10bfffc4 	addi	r2,r2,-1
   24ef0:	18c7883a 	add	r3,r3,r3
   24ef4:	293ffa36 	bltu	r5,r4,24ee0 <__udivsi3+0x18>
   24ef8:	18000826 	beq	r3,zero,24f1c <__udivsi3+0x54>
   24efc:	0005883a 	mov	r2,zero
   24f00:	31400236 	bltu	r6,r5,24f0c <__udivsi3+0x44>
   24f04:	314dc83a 	sub	r6,r6,r5
   24f08:	10c4b03a 	or	r2,r2,r3
   24f0c:	1806d07a 	srli	r3,r3,1
   24f10:	280ad07a 	srli	r5,r5,1
   24f14:	183ffa1e 	bne	r3,zero,24f00 <__udivsi3+0x38>
   24f18:	f800283a 	ret
   24f1c:	0005883a 	mov	r2,zero
   24f20:	f800283a 	ret
   24f24:	00c00044 	movi	r3,1
   24f28:	003ff406 	br	24efc <__udivsi3+0x34>

00024f2c <__umodsi3>:
   24f2c:	2005883a 	mov	r2,r4
   24f30:	2900132e 	bgeu	r5,r4,24f80 <__umodsi3+0x54>
   24f34:	28001216 	blt	r5,zero,24f80 <__umodsi3+0x54>
   24f38:	01800804 	movi	r6,32
   24f3c:	00c00044 	movi	r3,1
   24f40:	00000206 	br	24f4c <__umodsi3+0x20>
   24f44:	30000c26 	beq	r6,zero,24f78 <__umodsi3+0x4c>
   24f48:	28000516 	blt	r5,zero,24f60 <__umodsi3+0x34>
   24f4c:	294b883a 	add	r5,r5,r5
   24f50:	31bfffc4 	addi	r6,r6,-1
   24f54:	18c7883a 	add	r3,r3,r3
   24f58:	293ffa36 	bltu	r5,r4,24f44 <__umodsi3+0x18>
   24f5c:	18000626 	beq	r3,zero,24f78 <__umodsi3+0x4c>
   24f60:	1806d07a 	srli	r3,r3,1
   24f64:	11400136 	bltu	r2,r5,24f6c <__umodsi3+0x40>
   24f68:	1145c83a 	sub	r2,r2,r5
   24f6c:	280ad07a 	srli	r5,r5,1
   24f70:	183ffb1e 	bne	r3,zero,24f60 <__umodsi3+0x34>
   24f74:	f800283a 	ret
   24f78:	2005883a 	mov	r2,r4
   24f7c:	f800283a 	ret
   24f80:	00c00044 	movi	r3,1
   24f84:	003ff606 	br	24f60 <__umodsi3+0x34>

00024f88 <__mulsi3>:
   24f88:	0005883a 	mov	r2,zero
   24f8c:	20000726 	beq	r4,zero,24fac <__mulsi3+0x24>
   24f90:	20c0004c 	andi	r3,r4,1
   24f94:	2008d07a 	srli	r4,r4,1
   24f98:	18000126 	beq	r3,zero,24fa0 <__mulsi3+0x18>
   24f9c:	1145883a 	add	r2,r2,r5
   24fa0:	294b883a 	add	r5,r5,r5
   24fa4:	203ffa1e 	bne	r4,zero,24f90 <__mulsi3+0x8>
   24fa8:	f800283a 	ret
   24fac:	f800283a 	ret

00024fb0 <_exit>:
   24fb0:	defffd04 	addi	sp,sp,-12
   24fb4:	df000215 	stw	fp,8(sp)
   24fb8:	df000204 	addi	fp,sp,8
   24fbc:	e13ffe15 	stw	r4,-8(fp)
   24fc0:	0001883a 	nop
   24fc4:	e0bffe17 	ldw	r2,-8(fp)
   24fc8:	e0bfff15 	stw	r2,-4(fp)
   24fcc:	e0bfff17 	ldw	r2,-4(fp)
   24fd0:	10000226 	beq	r2,zero,24fdc <_exit+0x2c>
   24fd4:	002af070 	cmpltui	zero,zero,43969
   24fd8:	00000106 	br	24fe0 <_exit+0x30>
   24fdc:	002af0b0 	cmpltui	zero,zero,43970
   24fe0:	0001883a 	nop
   24fe4:	003fff06 	br	24fe4 <_exit+0x34>
   24fe8:	00020350 	cmplti	zero,zero,2061
   24fec:	00020c54 	movui	zero,2097
   24ff0:	00020380 	call	2038 <__alt_mem_onchip_memory2_0-0x1dfc8>
   24ff4:	00020c84 	movi	zero,2098
