
lmx_test.elf:     file format elf32-littlenios2
lmx_test.elf
architecture: nios2:r1, flags 0x00000112:
EXEC_P, HAS_SYMS, D_PAGED
start address 0x00020230

Program Header:
    LOAD off    0x00001000 vaddr 0x00020000 paddr 0x00020000 align 2**12
         filesz 0x00000020 memsz 0x00000020 flags r-x
    LOAD off    0x00001020 vaddr 0x00020020 paddr 0x00020020 align 2**12
         filesz 0x00008b4c memsz 0x00008b4c flags r-x
    LOAD off    0x00009b6c vaddr 0x00028b6c paddr 0x0002a5f4 align 2**12
         filesz 0x00001a88 memsz 0x00001a88 flags rw-
    LOAD off    0x0000c07c vaddr 0x0002c07c paddr 0x0002c07c align 2**12
         filesz 0x00000000 memsz 0x000003d0 flags rw-

Sections:
Idx Name          Size      VMA       LMA       File off  Algn
  0 .entry        00000020  00020000  00020000  00001000  2**5
                  CONTENTS, ALLOC, LOAD, READONLY, CODE
  1 .exceptions   00000210  00020020  00020020  00001020  2**2
                  CONTENTS, ALLOC, LOAD, READONLY, CODE
  2 .text         00008430  00020230  00020230  00001230  2**2
                  CONTENTS, ALLOC, LOAD, READONLY, CODE
  3 .rodata       0000050c  00028660  00028660  00009660  2**2
                  CONTENTS, ALLOC, LOAD, READONLY, DATA
  4 .rwdata       00001a88  00028b6c  0002a5f4  00009b6c  2**2
                  CONTENTS, ALLOC, LOAD, DATA, SMALL_DATA
  5 .bss          000003d0  0002c07c  0002c07c  0000c07c  2**2
                  ALLOC, SMALL_DATA
  6 .onchip_memory2_0 00000000  0002c44c  0002c44c  0000b5f4  2**0
                  CONTENTS
  7 .comment      0000002c  00000000  00000000  0000b5f4  2**0
                  CONTENTS, READONLY
  8 .debug_aranges 00000af0  00000000  00000000  0000b620  2**3
                  CONTENTS, READONLY, DEBUGGING
  9 .debug_info   0002f6bb  00000000  00000000  0000c110  2**0
                  CONTENTS, READONLY, DEBUGGING
 10 .debug_abbrev 0000ac52  00000000  00000000  0003b7cb  2**0
                  CONTENTS, READONLY, DEBUGGING
 11 .debug_line   0000dbdf  00000000  00000000  0004641d  2**0
                  CONTENTS, READONLY, DEBUGGING
 12 .debug_frame  00001dd8  00000000  00000000  00053ffc  2**2
                  CONTENTS, READONLY, DEBUGGING
 13 .debug_str    00006007  00000000  00000000  00055dd4  2**0
                  CONTENTS, READONLY, DEBUGGING
 14 .debug_loc    00008c39  00000000  00000000  0005bddb  2**0
                  CONTENTS, READONLY, DEBUGGING
 15 .debug_alt_sim_info 00000040  00000000  00000000  00064a14  2**2
                  CONTENTS, READONLY, DEBUGGING
 16 .debug_ranges 00001108  00000000  00000000  00064a58  2**3
                  CONTENTS, READONLY, DEBUGGING
 17 .thread_model 00000003  00000000  00000000  0006979e  2**0
                  CONTENTS, READONLY
 18 .cpu          0000000c  00000000  00000000  000697a1  2**0
                  CONTENTS, READONLY
 19 .qsys         00000001  00000000  00000000  000697ad  2**0
                  CONTENTS, READONLY
 20 .simulation_enabled 00000001  00000000  00000000  000697ae  2**0
                  CONTENTS, READONLY
 21 .stderr_dev   0000000b  00000000  00000000  000697af  2**0
                  CONTENTS, READONLY
 22 .stdin_dev    0000000b  00000000  00000000  000697ba  2**0
                  CONTENTS, READONLY
 23 .stdout_dev   0000000b  00000000  00000000  000697c5  2**0
                  CONTENTS, READONLY
 24 .sopc_system_name 00000008  00000000  00000000  000697d0  2**0
                  CONTENTS, READONLY
SYMBOL TABLE:
00020000 l    d  .entry	00000000 .entry
00020020 l    d  .exceptions	00000000 .exceptions
00020230 l    d  .text	00000000 .text
00028660 l    d  .rodata	00000000 .rodata
00028b6c l    d  .rwdata	00000000 .rwdata
0002c07c l    d  .bss	00000000 .bss
0002c44c l    d  .onchip_memory2_0	00000000 .onchip_memory2_0
00000000 l    d  .comment	00000000 .comment
00000000 l    d  .debug_aranges	00000000 .debug_aranges
00000000 l    d  .debug_info	00000000 .debug_info
00000000 l    d  .debug_abbrev	00000000 .debug_abbrev
00000000 l    d  .debug_line	00000000 .debug_line
00000000 l    d  .debug_frame	00000000 .debug_frame
00000000 l    d  .debug_str	00000000 .debug_str
00000000 l    d  .debug_loc	00000000 .debug_loc
00000000 l    d  .debug_alt_sim_info	00000000 .debug_alt_sim_info
00000000 l    d  .debug_ranges	00000000 .debug_ranges
00000000 l    df *ABS*	00000000 ../lmx2694_bsp/obj/HAL/src/crt0.o
00020268 l       .text	00000000 alt_after_alt_main
00000000 l    df *ABS*	00000000 alt_irq_handler.c
00000000 l    df *ABS*	00000000 alt_instruction_exception_entry.c
00000000 l    df *ABS*	00000000 main.cpp
00028660 l     O .rodata	000000e6 _ZL17default_registers
0002c0a8 l     O .bss	00000060 _ZL3pll
000202e8 l     F .text	00000074 _Z41__static_initialization_and_destruction_0ii
0002035c l     F .text	00000030 _GLOBAL__sub_I_main
0002038c l     F .text	00000030 _GLOBAL__sub_D_main
00000000 l    df *ABS*	00000000 lmx2694Handler.cpp
00028748 l     O .rodata	000000e6 _ZL17default_registers
0002c108 l     O .bss	00000050 _ZL9staticSPI
0002c158 l     O .bss	000000e6 _ZL20local_read_registers
0002c23e l     O .bss	000000e6 _ZL21local_write_registers
00028830 l     O .rodata	00000038 _ZL22channel_divider_values
0002a5a0 l     O .rwdata	00000001 _ZL20channel_divider_size
0002a5a4 l     O .rwdata	00000004 _ZL9precision
00021cf4 l     F .text	00000074 _Z41__static_initialization_and_destruction_0ii
00021d68 l     F .text	00000030 _GLOBAL__sub_I__ZN15lmx2694_HandlerC2Ev
00021d98 l     F .text	00000030 _GLOBAL__sub_D__ZN15lmx2694_HandlerC2Ev
00000000 l    df *ABS*	00000000 PLLLOCKEDCAPTURE.cpp
00021f88 l     F .text	00000054 _ZL21handle_pll_interruptsPv
00000000 l    df *ABS*	00000000 SPIHandler.cpp
00000000 l    df *ABS*	00000000 class_type_info.cc
00000000 l    df *ABS*	00000000 del_ops.cc
00000000 l    df *ABS*	00000000 si_class_type_info.cc
00000000 l    df *ABS*	00000000 tinfo.cc
00000000 l    df *ABS*	00000000 vmi_class_type_info.cc
00000000 l    df *ABS*	00000000 del_op.cc
00000000 l    df *ABS*	00000000 sf_floor.c
00000000 l    df *ABS*	00000000 sf_round.c
00000000 l    df *ABS*	00000000 libgcc2.c
00000000 l    df *ABS*	00000000 lib2-divmod.c
00000000 l    df *ABS*	00000000 addsf3.c
00000000 l    df *ABS*	00000000 divsf3.c
00000000 l    df *ABS*	00000000 gesf2.c
00000000 l    df *ABS*	00000000 lesf2.c
00000000 l    df *ABS*	00000000 mulsf3.c
00000000 l    df *ABS*	00000000 subsf3.c
00000000 l    df *ABS*	00000000 fixsfsi.c
00000000 l    df *ABS*	00000000 floatsisf.c
00000000 l    df *ABS*	00000000 floatunsisf.c
00000000 l    df *ABS*	00000000 libgcc2.c
00000000 l    df *ABS*	00000000 lib2-mul.c
00000000 l    df *ABS*	00000000 libgcc2.c
00000000 l    df *ABS*	00000000 malloc.c
00000000 l    df *ABS*	00000000 mallocr.c
00000000 l    df *ABS*	00000000 memset.c
00000000 l    df *ABS*	00000000 sbrkr.c
00000000 l    df *ABS*	00000000 strcmp.c
00000000 l    df *ABS*	00000000 mallocr.c
00000000 l    df *ABS*	00000000 impure.c
00028f74 l     O .rwdata	00000424 impure_data
00000000 l    df *ABS*	00000000 int_errno.c
00000000 l    df *ABS*	00000000 alt_iic.c
00000000 l    df *ABS*	00000000 alt_iic_isr_register.c
00000000 l    df *ABS*	00000000 alt_irq_vars.c
00000000 l    df *ABS*	00000000 alt_load.c
00026288 l     F .text	00000068 alt_load_section
00000000 l    df *ABS*	00000000 alt_main.c
00000000 l    df *ABS*	00000000 alt_malloc_lock.c
00000000 l    df *ABS*	00000000 alt_sbrk.c
0002a5d0 l     O .rwdata	00000004 heap_end
00000000 l    df *ABS*	00000000 alt_usleep.c
00000000 l    df *ABS*	00000000 alt_sys_init.c
00026520 l     F .text	00000034 alt_dev_reg
00029398 l     O .rwdata	00001060 jtag_uart_0
00000000 l    df *ABS*	00000000 altera_avalon_jtag_uart_fd.c
00000000 l    df *ABS*	00000000 altera_avalon_jtag_uart_init.c
00026818 l     F .text	0000020c altera_avalon_jtag_uart_irq
00026a24 l     F .text	000000a0 altera_avalon_jtag_uart_timeout
00000000 l    df *ABS*	00000000 altera_avalon_jtag_uart_ioctl.c
00000000 l    df *ABS*	00000000 altera_avalon_jtag_uart_read.c
00000000 l    df *ABS*	00000000 altera_avalon_jtag_uart_write.c
00000000 l    df *ABS*	00000000 altera_avalon_spi.c
00000000 l    df *ABS*	00000000 altera_avalon_timer_sc.c
00027264 l     F .text	0000007c alt_avalon_timer_sc_irq
00000000 l    df *ABS*	00000000 alt_alarm_start.c
00000000 l    df *ABS*	00000000 alt_busy_sleep.c
00000000 l    df *ABS*	00000000 alt_close.c
000275f0 l     F .text	0000003c alt_get_errno
00000000 l    df *ABS*	00000000 alt_dcache_flush_all.c
00000000 l    df *ABS*	00000000 alt_dev.c
00027728 l     F .text	0000002c alt_dev_null_write
00000000 l    df *ABS*	00000000 alt_dev_llist_insert.c
00027754 l     F .text	0000003c alt_get_errno
00000000 l    df *ABS*	00000000 alt_do_ctors.c
00000000 l    df *ABS*	00000000 alt_do_dtors.c
00000000 l    df *ABS*	00000000 alt_errno.c
00000000 l    df *ABS*	00000000 alt_icache_flush_all.c
00000000 l    df *ABS*	00000000 alt_io_redirect.c
000279b8 l     F .text	000000d4 alt_open_fd
00000000 l    df *ABS*	00000000 alt_open.c
00027b08 l     F .text	0000003c alt_get_errno
00027b44 l     F .text	000000dc alt_file_locked
00000000 l    df *ABS*	00000000 alt_release_fd.c
00000000 l    df *ABS*	00000000 alt_tick.c
00000000 l    df *ABS*	00000000 altera_nios2_gen2_irq.c
00000000 l    df *ABS*	00000000 alt_find_dev.c
00000000 l    df *ABS*	00000000 alt_find_file.c
00000000 l    df *ABS*	00000000 alt_get_fd.c
00000000 l    df *ABS*	00000000 atexit.c
00000000 l    df *ABS*	00000000 exit.c
00000000 l    df *ABS*	00000000 memcmp.c
00000000 l    df *ABS*	00000000 memcpy.c
00000000 l    df *ABS*	00000000 strlen.c
00000000 l    df *ABS*	00000000 __atexit.c
00000000 l    df *ABS*	00000000 __call_atexit.c
00000000 l    df *ABS*	00000000 alt_exit.c
0002c09c g     O .bss	00000004 alt_instruction_exception_handler
00022eb0 g     F .text	00000008 _ZNKSt9type_info15__is_function_pEv
000203bc g     F .text	000000d8 _ZN15lmx2694_HandlerC2Ev
00026374 g     F .text	0000007c alt_main
0002c34c g     O .bss	00000100 alt_irq
0002a5f4 g       *ABS*	00000000 __flash_rwdata_start
00022690 g     F .text	00000084 _ZN11SPI_Handler12TransferDataEPhmS0_m
0002c44c g       *ABS*	00000000 __alt_heap_start
00020674 g     F .text	000000e0 _ZN15lmx2694_Handler10Got_LockedEv
000222ec g     F .text	00000044 _ZN11SPI_Handler4InitEmm
00022be4 g     F .text	00000010 _ZN10__cxxabiv120__si_class_type_infoD2Ev
00028948  w    O .rodata	00000025 _ZTSN10__cxxabiv120__si_class_type_infoE
00026414 g     F .text	00000024 __malloc_unlock
00023688 g     F .text	00000264 _ZNK10__cxxabiv121__vmi_class_type_info11__do_upcastEPKNS_17__class_type_infoEPKvRNS1_15__upcast_resultE
000204dc g     F .text	0000003c _ZN15lmx2694_HandlerD0Ev
000240d8 g     F .text	000003f4 .hidden __divsf3
00020494 g     F .text	00000048 _ZN15lmx2694_HandlerD2Ev
000222b0 g     F .text	0000003c _ZN11SPI_HandlerD0Ev
00022330 g     F .text	0000003c _ZN11SPI_Handler4OpenEv
00024ed0 g     F .text	00000070 .hidden __fixsfsi
00021f18 g     F .text	00000034 _ZN18PLL_LOCKED_CAPTURED1Ev
0002a5b0  w    O .rwdata	00000008 _ZTI11SPI_Handler
000209bc g     F .text	000000e0 _ZN15lmx2694_Handler27Calculate_Current_FrequencyEb
00027f9c g     F .text	00000024 altera_nios2_gen2_irq_init
00020000 g     F .entry	0000000c __reset
00020020 g       *ABS*	00000000 __flash_exceptions_start
0002c088 g     O .bss	00000004 errno
00021470 g     F .text	00000114 _ZN15lmx2694_Handler13Program_ResetEv
0002c094 g     O .bss	00000004 alt_argv
000325a0 g       *ABS*	00000000 _gp
000264f0 g     F .text	00000030 usleep
00024a4c g     F .text	00000484 .hidden __subsf3
0002227c g     F .text	00000034 _ZN11SPI_HandlerD2Ev
0002a420 g     O .rwdata	00000180 alt_fd_list
00028878  w    O .rodata	00000018 _ZTI15lmx2694_Handler
00027fc0 g     F .text	00000090 alt_find_dev
000282d0 g     F .text	00000100 memcpy
000229a8 g     F .text	00000018 _ZNK10__cxxabiv117__class_type_info20__do_find_public_srcEiPKvPKS0_S2_
00027a8c g     F .text	0000007c alt_io_redirect
00021110 g     F .text	000000b4 _ZN15lmx2694_Handler19Program_PFD_DLY_SELEv
00028660 g       *ABS*	00000000 __DTOR_END__
000229c0 g     F .text	00000010 _ZN10__cxxabiv117__class_type_infoD1Ev
00028a00  w    O .rodata	0000000c _ZTIN10__cxxabiv121__vmi_class_type_infoE
00027920 g     F .text	00000098 alt_exception_cause_generated_bad_addr
00028868  w    O .rodata	00000010 _ZTV15lmx2694_Handler
00026c20 g     F .text	00000220 altera_avalon_jtag_uart_read
000251d8 g     F .text	00000010 malloc
00020000 g       *ABS*	00000000 __alt_mem_onchip_memory2_0
00023bbc g     F .text	00000064 .hidden __udivsi3
000239e4 g     F .text	00000084 roundf
00024590 g     F .text	000000c0 .hidden __lesf2
0002c084 g     O .bss	00000004 __malloc_top_pad
00022f0c g     F .text	00000010 _ZN10__cxxabiv121__vmi_class_type_infoD1Ev
00022b38 g     F .text	000000a8 _ZNK10__cxxabiv117__class_type_info10__do_catchEPKSt9type_infoPPvj
00025ac8 g     F .text	00000058 _sbrk_r
000289b8  w    O .rodata	00000020 _ZTVSt9type_info
00021e08  w    F .text	00000040 _ZN11SPI_Handler4ReadEPhm
0002a5e4 g     O .rwdata	00000004 alt_max_fd
00021760 g     F .text	00000114 _ZN15lmx2694_Handler21Write_Single_RegisterEht
0002c080 g     O .bss	00000004 __malloc_max_sbrked_mem
000220d4 g     F .text	000000c0 _ZN18PLL_LOCKED_CAPTURE9Is_LockedEv
0002897c  w    O .rodata	0000002c _ZTVN10__cxxabiv120__si_class_type_infoE
000212bc g     F .text	000000a8 _ZN15lmx2694_Handler10Power_DownEv
00022acc g     F .text	0000006c _ZNK10__cxxabiv117__class_type_info11__do_upcastEPKS0_PKvRNS0_15__upcast_resultE
000238ec g     F .text	00000004 _ZdlPv
0002a5c8 g     O .rwdata	00000004 _global_impure_ptr
00022f1c g     F .text	00000038 _ZN10__cxxabiv121__vmi_class_type_infoD0Ev
00040000 g       *ABS*	00000000 __alt_exception_stack_pointer
0002c44c g       *ABS*	00000000 __bss_end
000261a0 g     F .text	000000e8 alt_iic_isr_register
00027e94 g     F .text	00000108 alt_tick
00021aac g     F .text	00000248 _ZN15lmx2694_Handler9Self_TestEv
00026154 g     F .text	0000004c alt_ic_irq_enabled
00027df0 g     F .text	000000a4 alt_alarm_stop
0002c08c g     O .bss	00000004 alt_irq_active
00020108 g     F .exceptions	000000c8 alt_irq_handler
000207bc g     F .text	000000a4 _ZN15lmx2694_Handler25Get_Channel_Divider_ValueEb
0002a3f8 g     O .rwdata	00000028 alt_dev_null
00020ebc g     F .text	00000148 _ZN15lmx2694_Handler28Choose_Channel_Divider_IndexEv
00022f54 g     F .text	00000128 _ZNK10__cxxabiv121__vmi_class_type_info20__do_find_public_srcEiPKvPKNS_17__class_type_infoES2_
000288ec  w    O .rodata	00000022 _ZTSN10__cxxabiv117__class_type_infoE
00027708 g     F .text	00000020 alt_dcache_flush_all
0002a5f4 g       *ABS*	00000000 __ram_rwdata_end
00020dd4 g     F .text	000000e8 _ZN15lmx2694_Handler24Write_Division_RegistersEv
00022eac g     F .text	00000004 _ZNSt9type_infoD1Ev
0002a5dc g     O .rwdata	00000008 alt_dev_list
00022ec0 g     F .text	00000008 _ZNSt9type_infoD0Ev
000244cc g     F .text	000000c4 .hidden __gtsf2
00028b6c g       *ABS*	00000000 __ram_rodata_end
00022be0 g     F .text	00000004 _ZdlPvj
00021eb8 g     F .text	00000060 _ZN18PLL_LOCKED_CAPTUREC2Ev
00023c20 g     F .text	0000005c .hidden __umodsi3
00022eb8 g     F .text	00000008 _ZNKSt9type_info11__do_upcastEPKN10__cxxabiv117__class_type_infoEPPv
0002c44c g       *ABS*	00000000 end
00022074 g     F .text	00000060 _ZN18PLL_LOCKED_CAPTURE15disable_pll_pioEv
000288a4  w    O .rodata	00000010 _ZTV18PLL_LOCKED_CAPTURE
00026758 g     F .text	000000c0 altera_avalon_jtag_uart_init
000201d0 g     F .exceptions	00000060 alt_instruction_exception_entry
00022a08 g     F .text	000000c4 _ZNK10__cxxabiv117__class_type_info12__do_dyncastEiNS0_10__sub_kindEPKS0_PKvS3_S5_RNS0_16__dyncast_resultE
00022f0c g     F .text	00000010 _ZN10__cxxabiv121__vmi_class_type_infoD2Ev
00028650 g       *ABS*	00000000 __CTOR_LIST__
0003f800 g       *ABS*	00000000 __alt_stack_pointer
000272e0 g     F .text	00000084 alt_avalon_timer_sc_init
0002515c g     F .text	00000054 .hidden __clzsi2
00022930 g     F .text	00000078 _ZNK10__cxxabiv117__class_type_info11__do_upcastEPKS0_PPv
00026e40 g     F .text	00000228 altera_avalon_jtag_uart_write
00025cf4 g     F .text	000002fc _free_r
0002236c g     F .text	00000038 _ZN11SPI_Handler5CloseEv
000284f8 g     F .text	00000120 __call_exitprocs
0002a5c0 g     O .rwdata	00000004 __malloc_sbrk_base
00020230 g     F .text	0000003c _start
000205c0 g     F .text	000000b4 _ZN15lmx2694_Handler14Set_MASH_ORDEREh
0002c0a0 g     O .bss	00000004 _alt_tick_rate
00028890  w    O .rodata	00000012 _ZTS15lmx2694_Handler
000289a8  w    O .rodata	0000000d _ZTSSt9type_info
00022408 g     F .text	00000188 _ZN11SPI_Handler9WriteDataEPhm
00027068 g     F .text	000001fc alt_avalon_spi_command
0002c0a4 g     O .bss	00000004 _alt_nticks
00026590 g     F .text	00000064 alt_sys_init
00024f40 g     F .text	00000124 .hidden __floatsisf
00021fdc g     F .text	00000098 _ZN18PLL_LOCKED_CAPTURE12init_pll_pioEv
00021680 g     F .text	000000e0 _ZN15lmx2694_Handler18Initiate_RegistersEv
00028468 g     F .text	00000090 __register_exitproc
00022cc8 g     F .text	00000160 _ZNK10__cxxabiv120__si_class_type_info12__do_dyncastEiNS_17__class_type_info10__sub_kindEPKS1_PKvS4_S6_RNS1_16__dyncast_resultE
0002260c g     F .text	00000084 _ZN11SPI_Handler12TransferDataEPhS0_m
00020b40 g     F .text	00000294 _ZN15lmx2694_Handler20Set_Target_FrequencyEf
00026ac4 g     F .text	00000068 altera_avalon_jtag_uart_close
000251b0 g     F .text	00000028 .hidden __mulsi3
00028b6c g       *ABS*	00000000 __ram_rwdata_start
00028660 g       *ABS*	00000000 __ram_rodata_start
0002c324 g     O .bss	00000028 __malloc_current_mallinfo
00022eac g     F .text	00000004 _ZNSt9type_infoD2Ev
00022e28 g     F .text	00000084 _ZNK10__cxxabiv120__si_class_type_info11__do_upcastEPKNS_17__class_type_infoEPKvRNS1_15__upcast_resultE
000289d8  w    O .rodata	00000026 _ZTSN10__cxxabiv121__vmi_class_type_infoE
000265f4 g     F .text	00000060 altera_avalon_jtag_uart_read_fd
00028158 g     F .text	000000b8 alt_get_fd
00027498 g     F .text	00000158 alt_busy_sleep
00021364 g     F .text	000000ac _ZN15lmx2694_Handler13Write_FCAL_ENEb
00028258 g     F .text	00000078 memcmp
000266b4 g     F .text	00000050 altera_avalon_jtag_uart_close_fd
0002c44c g       *ABS*	00000000 __alt_stack_base
00026704 g     F .text	00000054 altera_avalon_jtag_uart_ioctl_fd
00022be4 g     F .text	00000010 _ZN10__cxxabiv120__si_class_type_infoD1Ev
00022eb0 g     F .text	00000008 _ZNKSt9type_info14__is_pointer_pEv
00028b6c g     O .rwdata	00000408 __malloc_av_
00028050 g     F .text	00000108 alt_find_file
00027790 g     F .text	000000a8 alt_dev_llist_insert
000263f0 g     F .text	00000024 __malloc_lock
00026438 g     F .text	000000b8 sbrk
00021584 g     F .text	00000070 _ZN15lmx2694_Handler15Get_Three_BytesEm
0002891c  w    O .rodata	0000002c _ZTVN10__cxxabiv117__class_type_infoE
00020754 g     F .text	00000068 _ZN15lmx2694_Handler11Get_OUT_MUXEh
0002c07c g       *ABS*	00000000 __bss_start
000259d8 g     F .text	000000f0 memset
0002026c g     F .text	0000007c main
0002c098 g     O .bss	00000004 alt_envp
0002c07c g     O .bss	00000004 __malloc_max_total_mem
00026654 g     F .text	00000060 altera_avalon_jtag_uart_write_fd
00024590 g     F .text	000000c0 .hidden __ltsf2
0003f800 g       *ABS*	00000000 __alt_heap_limit
000251f8 g     F .text	000007e0 _malloc_r
0002a5e8 g     O .rwdata	00000004 alt_errno
000288dc  w    O .rodata	0000000e _ZTS11SPI_Handler
00028910  w    O .rodata	0000000c _ZTIN10__cxxabiv117__class_type_infoE
000208d4 g     F .text	00000074 _ZN15lmx2694_Handler13Get_NumeratorEb
00023ac8 g     F .text	00000080 .hidden __divsi3
00025bd8 g     F .text	0000011c _malloc_trim_r
00028658 g       *ABS*	00000000 __CTOR_END__
00024650 g     F .text	000003fc .hidden __mulsf3
00020494 g     F .text	00000048 _ZN15lmx2694_HandlerD1Ev
00025b20 g     F .text	000000b8 strcmp
00028660 g       *ABS*	00000000 __flash_rodata_start
00028658 g       *ABS*	00000000 __DTOR_LIST__
000203bc g     F .text	000000d8 _ZN15lmx2694_HandlerC1Ev
00020948 g     F .text	00000074 _ZN15lmx2694_Handler15Get_DenominatorEb
00022230 g     F .text	0000004c _ZN11SPI_HandlerC2Ev
00021004 g     F .text	0000010c _ZN15lmx2694_Handler19Program_PFD_DLY_SELEf
00026554 g     F .text	0000003c alt_irq_init
00027d80 g     F .text	00000070 alt_release_fd
00022bf4 g     F .text	00000038 _ZN10__cxxabiv120__si_class_type_infoD0Ev
00028a38 g     O .rodata	00000100 .hidden __clz_tab
00028210 g     F .text	00000014 atexit
000244cc g     F .text	000000c4 .hidden __gesf2
00028a0c  w    O .rodata	0000002c _ZTVN10__cxxabiv121__vmi_class_type_infoE
0002a5cc g     O .rwdata	00000004 _impure_ptr
0002c090 g     O .bss	00000004 alt_argc
0002789c g     F .text	00000064 _do_dtors
00020020 g       .exceptions	00000000 alt_irq_entry
000211c4 g     F .text	000000f8 _ZN15lmx2694_Handler18Calculate_FractionEf
000215f4 g     F .text	0000008c _ZN15lmx2694_Handler16Make_Three_BytesEht
0002a5a8  w    O .rwdata	00000008 _ZTI18PLL_LOCKED_CAPTURE
00022590 g     F .text	0000007c _ZN11SPI_Handler12TransferDataEPhm
0002a5d4 g     O .rwdata	00000008 alt_fs_list
00021e48  w    F .text	00000038 _ZSt5floorf
00021e80  w    F .text	00000038 _ZSt5roundf
00021f18 g     F .text	00000034 _ZN18PLL_LOCKED_CAPTURED2Ev
000229c0 g     F .text	00000010 _ZN10__cxxabiv117__class_type_infoD2Ev
000288cc  w    O .rodata	00000010 _ZTV11SPI_Handler
00020020 g       *ABS*	00000000 __ram_exceptions_start
00020518 g     F .text	000000a8 _ZN15lmx2694_Handler4InitEv
00025ff0 g     F .text	00000050 alt_ic_isr_register
00028970  w    O .rodata	0000000c _ZTIN10__cxxabiv120__si_class_type_infoE
0002a5f4 g       *ABS*	00000000 _edata
0002c44c g       *ABS*	00000000 _end
0002307c g     F .text	0000060c _ZNK10__cxxabiv121__vmi_class_type_info12__do_dyncastEiNS_17__class_type_info10__sub_kindEPKS1_PKvS4_S6_RNS1_16__dyncast_resultE
0002227c g     F .text	00000034 _ZN11SPI_HandlerD1Ev
00020230 g       *ABS*	00000000 __ram_exceptions_end
00020860 g     F .text	00000074 _ZN15lmx2694_Handler13Get_N_DividerEb
00026b2c g     F .text	000000f4 altera_avalon_jtag_uart_ioctl
000223a4 g     F .text	00000064 _ZN11SPI_Handler5SetCSEb
00022194 g     F .text	0000009c _ZN18PLL_LOCKED_CAPTURE17Capture_InterruptEv
00021f4c g     F .text	0000003c _ZN18PLL_LOCKED_CAPTURED0Ev
00021a04 g     F .text	000000a8 _ZN15lmx2694_Handler19Set_MUXOUT_READBACKEb
000260c8 g     F .text	0000008c alt_ic_irq_disable
0002a5c4 g     O .rwdata	00000004 __malloc_trim_threshold
00028224 g     F .text	00000034 exit
00022c2c g     F .text	0000009c _ZNK10__cxxabiv120__si_class_type_info20__do_find_public_srcEiPKvPKNS_17__class_type_infoES2_
00025064 g     F .text	000000f8 .hidden __floatunsisf
00023b48 g     F .text	00000074 .hidden __modsi3
0003f800 g       *ABS*	00000000 __alt_data_end
00020020 g     F .exceptions	00000000 alt_exception
00021874 g     F .text	00000190 _ZN15lmx2694_Handler20Read_Single_RegisterEh
00021410 g     F .text	00000060 _ZN15lmx2694_Handler14Toggle_FCAL_ENEv
00023a68 g     F .text	00000060 .hidden __fixunssfsi
00028618 g     F .text	00000038 _exit
00027364 g     F .text	00000134 alt_alarm_start
000288b4  w    O .rodata	00000015 _ZTS18PLL_LOCKED_CAPTURE
000283d0 g     F .text	00000098 strlen
0002a5b8  w    O .rwdata	00000008 _ZTISt9type_info
00027c20 g     F .text	00000160 open
00021dc8  w    F .text	00000040 _ZN11SPI_Handler5WriteEPhm
00027900 g     F .text	00000020 alt_icache_flush_all
000238f0 g     F .text	000000f4 floorf
00022714 g     F .text	00000084 _ZN11SPI_Handler8ReadDataEPhS0_m
00026040 g     F .text	00000088 alt_ic_irq_enable
00022798 g     F .text	00000198 _ZN11SPI_Handler8ReadDataEPhm
00022230 g     F .text	0000004c _ZN11SPI_HandlerC1Ev
0002a5ec g     O .rwdata	00000008 alt_alarm_list
00027838 g     F .text	00000064 _do_ctors
0002762c g     F .text	000000dc close
00021eb8 g     F .text	00000060 _ZN18PLL_LOCKED_CAPTUREC1Ev
00023c7c g     F .text	0000045c .hidden __addsf3
000262f0 g     F .text	00000084 alt_load
00022ec8 g     F .text	00000044 _ZNKSt9type_info10__do_catchEPKS_PPvj
000251e8 g     F .text	00000010 free
000229d0 g     F .text	00000038 _ZN10__cxxabiv117__class_type_infoD0Ev
00020a9c g     F .text	000000a4 _ZN15lmx2694_Handler3GCDEmm



Disassembly of section .entry:

00020000 <__reset>:
   20000:	004000b4 	movhi	at,2
   20004:	08408c14 	ori	at,at,560
   20008:	0800683a 	jmp	at
	...

Disassembly of section .exceptions:

00020020 <alt_exception>:
   20020:	060000f4 	movhi	et,3
   20024:	c63fec14 	ori	et,et,65456
   20028:	c6c01315 	stw	sp,76(et)
   2002c:	c037883a 	mov	sp,et
   20030:	dfc00015 	stw	ra,0(sp)
   20034:	d8400215 	stw	at,8(sp)
   20038:	d8800315 	stw	r2,12(sp)
   2003c:	d8c00415 	stw	r3,16(sp)
   20040:	d9000515 	stw	r4,20(sp)
   20044:	d9400615 	stw	r5,24(sp)
   20048:	d9800715 	stw	r6,28(sp)
   2004c:	d9c00815 	stw	r7,32(sp)
   20050:	000b307a 	rdctl	r5,estatus
   20054:	da000915 	stw	r8,36(sp)
   20058:	da400a15 	stw	r9,40(sp)
   2005c:	da800b15 	stw	r10,44(sp)
   20060:	dac00c15 	stw	r11,48(sp)
   20064:	db000d15 	stw	r12,52(sp)
   20068:	db400e15 	stw	r13,56(sp)
   2006c:	db800f15 	stw	r14,60(sp)
   20070:	dbc01015 	stw	r15,64(sp)
   20074:	d9401115 	stw	r5,68(sp)
   20078:	ebffff04 	addi	r15,ea,-4
   2007c:	dbc01215 	stw	r15,72(sp)
   20080:	0009313a 	rdctl	r4,ipending
   20084:	2880004c 	andi	r2,r5,1
   20088:	10000326 	beq	r2,zero,20098 <alt_exception+0x78>
   2008c:	20000226 	beq	r4,zero,20098 <alt_exception+0x78>
   20090:	00201080 	call	20108 <alt_irq_handler>
   20094:	00000706 	br	200b4 <alt_exception+0x94>
   20098:	df401215 	stw	ea,72(sp)
   2009c:	e8bfff17 	ldw	r2,-4(ea)
   200a0:	e93fff04 	addi	r4,ea,-4
   200a4:	00201d00 	call	201d0 <alt_instruction_exception_entry>
   200a8:	1000021e 	bne	r2,zero,200b4 <alt_exception+0x94>
   200ac:	ebffff04 	addi	r15,ea,-4
   200b0:	dbc01215 	stw	r15,72(sp)
   200b4:	d9401117 	ldw	r5,68(sp)
   200b8:	df401217 	ldw	ea,72(sp)
   200bc:	dfc00017 	ldw	ra,0(sp)
   200c0:	2801707a 	wrctl	estatus,r5
   200c4:	d8400217 	ldw	at,8(sp)
   200c8:	d8800317 	ldw	r2,12(sp)
   200cc:	d8c00417 	ldw	r3,16(sp)
   200d0:	d9000517 	ldw	r4,20(sp)
   200d4:	d9400617 	ldw	r5,24(sp)
   200d8:	d9800717 	ldw	r6,28(sp)
   200dc:	d9c00817 	ldw	r7,32(sp)
   200e0:	da000917 	ldw	r8,36(sp)
   200e4:	da400a17 	ldw	r9,40(sp)
   200e8:	da800b17 	ldw	r10,44(sp)
   200ec:	dac00c17 	ldw	r11,48(sp)
   200f0:	db000d17 	ldw	r12,52(sp)
   200f4:	db400e17 	ldw	r13,56(sp)
   200f8:	db800f17 	ldw	r14,60(sp)
   200fc:	dbc01017 	ldw	r15,64(sp)
   20100:	dec01317 	ldw	sp,76(sp)
   20104:	ef80083a 	eret

00020108 <alt_irq_handler>:
   20108:	defff904 	addi	sp,sp,-28
   2010c:	dfc00615 	stw	ra,24(sp)
   20110:	df000515 	stw	fp,20(sp)
   20114:	df000504 	addi	fp,sp,20
   20118:	0001883a 	nop
   2011c:	0005313a 	rdctl	r2,ipending
   20120:	e0bffc15 	stw	r2,-16(fp)
   20124:	e0bffc17 	ldw	r2,-16(fp)
   20128:	e0bfff15 	stw	r2,-4(fp)
   2012c:	e03ffd15 	stw	zero,-12(fp)
   20130:	00800044 	movi	r2,1
   20134:	e0bffe15 	stw	r2,-8(fp)
   20138:	e0ffff17 	ldw	r3,-4(fp)
   2013c:	e0bffe17 	ldw	r2,-8(fp)
   20140:	1884703a 	and	r2,r3,r2
   20144:	10001126 	beq	r2,zero,2018c <alt_irq_handler+0x84>
   20148:	e0bffd17 	ldw	r2,-12(fp)
   2014c:	100690fa 	slli	r3,r2,3
   20150:	008000f4 	movhi	r2,3
   20154:	1885883a 	add	r2,r3,r2
   20158:	10f0d317 	ldw	r3,-15540(r2)
   2015c:	e0bffd17 	ldw	r2,-12(fp)
   20160:	100890fa 	slli	r4,r2,3
   20164:	008000f4 	movhi	r2,3
   20168:	2085883a 	add	r2,r4,r2
   2016c:	10b0d417 	ldw	r2,-15536(r2)
   20170:	1009883a 	mov	r4,r2
   20174:	183ee83a 	callr	r3
   20178:	0001883a 	nop
   2017c:	0005313a 	rdctl	r2,ipending
   20180:	e0bffb15 	stw	r2,-20(fp)
   20184:	e0bffb17 	ldw	r2,-20(fp)
   20188:	00000706 	br	201a8 <alt_irq_handler+0xa0>
   2018c:	e0bffe17 	ldw	r2,-8(fp)
   20190:	1085883a 	add	r2,r2,r2
   20194:	e0bffe15 	stw	r2,-8(fp)
   20198:	e0bffd17 	ldw	r2,-12(fp)
   2019c:	10800044 	addi	r2,r2,1
   201a0:	e0bffd15 	stw	r2,-12(fp)
   201a4:	003fe406 	br	20138 <alt_irq_handler+0x30>
   201a8:	e0bfff15 	stw	r2,-4(fp)
   201ac:	e0bfff17 	ldw	r2,-4(fp)
   201b0:	103fde1e 	bne	r2,zero,2012c <alt_irq_handler+0x24>
   201b4:	0001883a 	nop
   201b8:	0001883a 	nop
   201bc:	e037883a 	mov	sp,fp
   201c0:	dfc00117 	ldw	ra,4(sp)
   201c4:	df000017 	ldw	fp,0(sp)
   201c8:	dec00204 	addi	sp,sp,8
   201cc:	f800283a 	ret

000201d0 <alt_instruction_exception_entry>:
   201d0:	defffb04 	addi	sp,sp,-20
   201d4:	dfc00415 	stw	ra,16(sp)
   201d8:	df000315 	stw	fp,12(sp)
   201dc:	df000304 	addi	fp,sp,12
   201e0:	e13ffd15 	stw	r4,-12(fp)
   201e4:	00bfffc4 	movi	r2,-1
   201e8:	e0bfff15 	stw	r2,-4(fp)
   201ec:	e03ffe15 	stw	zero,-8(fp)
   201f0:	d0a6bf17 	ldw	r2,-25860(gp)
   201f4:	10000726 	beq	r2,zero,20214 <alt_instruction_exception_entry+0x44>
   201f8:	d0a6bf17 	ldw	r2,-25860(gp)
   201fc:	e0ffff17 	ldw	r3,-4(fp)
   20200:	e1bffe17 	ldw	r6,-8(fp)
   20204:	e17ffd17 	ldw	r5,-12(fp)
   20208:	1809883a 	mov	r4,r3
   2020c:	103ee83a 	callr	r2
   20210:	00000206 	br	2021c <alt_instruction_exception_entry+0x4c>
   20214:	003da03a 	break	0
   20218:	0005883a 	mov	r2,zero
   2021c:	e037883a 	mov	sp,fp
   20220:	dfc00117 	ldw	ra,4(sp)
   20224:	df000017 	ldw	fp,0(sp)
   20228:	dec00204 	addi	sp,sp,8
   2022c:	f800283a 	ret

Disassembly of section .text:

00020230 <_start>:
   20230:	06c000f4 	movhi	sp,3
   20234:	defe0014 	ori	sp,sp,63488
   20238:	068000f4 	movhi	gp,3
   2023c:	d6896814 	ori	gp,gp,9632
   20240:	008000b4 	movhi	r2,2
   20244:	10b01f14 	ori	r2,r2,49276
   20248:	00c000b4 	movhi	r3,2
   2024c:	18f11314 	ori	r3,r3,50252
   20250:	10c00326 	beq	r2,r3,20260 <_start+0x30>
   20254:	10000015 	stw	zero,0(r2)
   20258:	10800104 	addi	r2,r2,4
   2025c:	10fffd36 	bltu	r2,r3,20254 <_start+0x24>
   20260:	00262f00 	call	262f0 <alt_load>
   20264:	00263740 	call	26374 <alt_main>

00020268 <alt_after_alt_main>:
   20268:	003fff06 	br	20268 <alt_after_alt_main>

0002026c <main>:
   2026c:	defffc04 	addi	sp,sp,-16
   20270:	dfc00315 	stw	ra,12(sp)
   20274:	df000215 	stw	fp,8(sp)
   20278:	df000204 	addi	fp,sp,8
   2027c:	010000f4 	movhi	r4,3
   20280:	21302a04 	addi	r4,r4,-16216
   20284:	00205180 	call	20518 <_ZN15lmx2694_Handler4InitEv>
   20288:	e03fff15 	stw	zero,-4(fp)
   2028c:	e03ffe15 	stw	zero,-8(fp)
   20290:	010000f4 	movhi	r4,3
   20294:	21302a04 	addi	r4,r4,-16216
   20298:	0021aac0 	call	21aac <_ZN15lmx2694_Handler9Self_TestEv>
   2029c:	10803fcc 	andi	r2,r2,255
   202a0:	103ffb1e 	bne	r2,zero,20290 <main+0x24>
   202a4:	e0bfff17 	ldw	r2,-4(fp)
   202a8:	00ffff94 	movui	r3,65534
   202ac:	18800c16 	blt	r3,r2,202e0 <main+0x74>
   202b0:	e0bfff17 	ldw	r2,-4(fp)
   202b4:	10800044 	addi	r2,r2,1
   202b8:	e0bfff15 	stw	r2,-4(fp)
   202bc:	e0bffe17 	ldw	r2,-8(fp)
   202c0:	108003c8 	cmpgei	r2,r2,15
   202c4:	1000041e 	bne	r2,zero,202d8 <main+0x6c>
   202c8:	e0bffe17 	ldw	r2,-8(fp)
   202cc:	10800044 	addi	r2,r2,1
   202d0:	e0bffe15 	stw	r2,-8(fp)
   202d4:	003ff906 	br	202bc <main+0x50>
   202d8:	e03ffe15 	stw	zero,-8(fp)
   202dc:	003ff106 	br	202a4 <main+0x38>
   202e0:	e03fff15 	stw	zero,-4(fp)
   202e4:	003fea06 	br	20290 <main+0x24>

000202e8 <_Z41__static_initialization_and_destruction_0ii>:
   202e8:	defffc04 	addi	sp,sp,-16
   202ec:	dfc00315 	stw	ra,12(sp)
   202f0:	df000215 	stw	fp,8(sp)
   202f4:	df000204 	addi	fp,sp,8
   202f8:	e13fff15 	stw	r4,-4(fp)
   202fc:	e17ffe15 	stw	r5,-8(fp)
   20300:	e0bfff17 	ldw	r2,-4(fp)
   20304:	10800058 	cmpnei	r2,r2,1
   20308:	1000061e 	bne	r2,zero,20324 <_Z41__static_initialization_and_destruction_0ii+0x3c>
   2030c:	e0fffe17 	ldw	r3,-8(fp)
   20310:	00bfffd4 	movui	r2,65535
   20314:	1880031e 	bne	r3,r2,20324 <_Z41__static_initialization_and_destruction_0ii+0x3c>
   20318:	010000f4 	movhi	r4,3
   2031c:	21302a04 	addi	r4,r4,-16216
   20320:	00203bc0 	call	203bc <_ZN15lmx2694_HandlerC1Ev>
   20324:	e0bfff17 	ldw	r2,-4(fp)
   20328:	1000061e 	bne	r2,zero,20344 <_Z41__static_initialization_and_destruction_0ii+0x5c>
   2032c:	e0fffe17 	ldw	r3,-8(fp)
   20330:	00bfffd4 	movui	r2,65535
   20334:	1880031e 	bne	r3,r2,20344 <_Z41__static_initialization_and_destruction_0ii+0x5c>
   20338:	010000f4 	movhi	r4,3
   2033c:	21302a04 	addi	r4,r4,-16216
   20340:	00204940 	call	20494 <_ZN15lmx2694_HandlerD1Ev>
   20344:	0001883a 	nop
   20348:	e037883a 	mov	sp,fp
   2034c:	dfc00117 	ldw	ra,4(sp)
   20350:	df000017 	ldw	fp,0(sp)
   20354:	dec00204 	addi	sp,sp,8
   20358:	f800283a 	ret

0002035c <_GLOBAL__sub_I_main>:
   2035c:	defffe04 	addi	sp,sp,-8
   20360:	dfc00115 	stw	ra,4(sp)
   20364:	df000015 	stw	fp,0(sp)
   20368:	d839883a 	mov	fp,sp
   2036c:	017fffd4 	movui	r5,65535
   20370:	01000044 	movi	r4,1
   20374:	00202e80 	call	202e8 <_Z41__static_initialization_and_destruction_0ii>
   20378:	e037883a 	mov	sp,fp
   2037c:	dfc00117 	ldw	ra,4(sp)
   20380:	df000017 	ldw	fp,0(sp)
   20384:	dec00204 	addi	sp,sp,8
   20388:	f800283a 	ret

0002038c <_GLOBAL__sub_D_main>:
   2038c:	defffe04 	addi	sp,sp,-8
   20390:	dfc00115 	stw	ra,4(sp)
   20394:	df000015 	stw	fp,0(sp)
   20398:	d839883a 	mov	fp,sp
   2039c:	017fffd4 	movui	r5,65535
   203a0:	0009883a 	mov	r4,zero
   203a4:	00202e80 	call	202e8 <_Z41__static_initialization_and_destruction_0ii>
   203a8:	e037883a 	mov	sp,fp
   203ac:	dfc00117 	ldw	ra,4(sp)
   203b0:	df000017 	ldw	fp,0(sp)
   203b4:	dec00204 	addi	sp,sp,8
   203b8:	f800283a 	ret

000203bc <_ZN15lmx2694_HandlerC1Ev>:
   203bc:	defffd04 	addi	sp,sp,-12
   203c0:	dfc00215 	stw	ra,8(sp)
   203c4:	df000115 	stw	fp,4(sp)
   203c8:	df000104 	addi	fp,sp,4
   203cc:	e13fff15 	stw	r4,-4(fp)
   203d0:	e0bfff17 	ldw	r2,-4(fp)
   203d4:	1009883a 	mov	r4,r2
   203d8:	0021eb80 	call	21eb8 <_ZN18PLL_LOCKED_CAPTUREC1Ev>
   203dc:	008000f4 	movhi	r2,3
   203e0:	10a21c04 	addi	r2,r2,-30608
   203e4:	e0ffff17 	ldw	r3,-4(fp)
   203e8:	18800015 	stw	r2,0(r3)
   203ec:	e0ffff17 	ldw	r3,-4(fp)
   203f0:	008000f4 	movhi	r2,3
   203f4:	10b05604 	addi	r2,r2,-16040
   203f8:	18800715 	stw	r2,28(r3)
   203fc:	e0ffff17 	ldw	r3,-4(fp)
   20400:	008000f4 	movhi	r2,3
   20404:	10b08f84 	addi	r2,r2,-15810
   20408:	18800615 	stw	r2,24(r3)
   2040c:	e0bfff17 	ldw	r2,-4(fp)
   20410:	00c00044 	movi	r3,1
   20414:	10c00d45 	stb	r3,53(r2)
   20418:	e0bfff17 	ldw	r2,-4(fp)
   2041c:	10000cc5 	stb	zero,51(r2)
   20420:	e0bfff17 	ldw	r2,-4(fp)
   20424:	00cfbeb4 	movhi	r3,16122
   20428:	10c01615 	stw	r3,88(r2)
   2042c:	e0bfff17 	ldw	r2,-4(fp)
   20430:	00d15eb4 	movhi	r3,17786
   20434:	10c00515 	stw	r3,20(r2)
   20438:	e0bfff17 	ldw	r2,-4(fp)
   2043c:	10c00517 	ldw	r3,20(r2)
   20440:	e0bfff17 	ldw	r2,-4(fp)
   20444:	11001617 	ldw	r4,88(r2)
   20448:	200b883a 	mov	r5,r4
   2044c:	1809883a 	mov	r4,r3
   20450:	0023c7c0 	call	23c7c <__addsf3>
   20454:	1009883a 	mov	r4,r2
   20458:	2007883a 	mov	r3,r4
   2045c:	e0bfff17 	ldw	r2,-4(fp)
   20460:	10c01215 	stw	r3,72(r2)
   20464:	e0bfff17 	ldw	r2,-4(fp)
   20468:	00c00044 	movi	r3,1
   2046c:	10c01745 	stb	r3,93(r2)
   20470:	e0bfff17 	ldw	r2,-4(fp)
   20474:	00c00044 	movi	r3,1
   20478:	10c00d05 	stb	r3,52(r2)
   2047c:	0001883a 	nop
   20480:	e037883a 	mov	sp,fp
   20484:	dfc00117 	ldw	ra,4(sp)
   20488:	df000017 	ldw	fp,0(sp)
   2048c:	dec00204 	addi	sp,sp,8
   20490:	f800283a 	ret

00020494 <_ZN15lmx2694_HandlerD1Ev>:
   20494:	defffd04 	addi	sp,sp,-12
   20498:	dfc00215 	stw	ra,8(sp)
   2049c:	df000115 	stw	fp,4(sp)
   204a0:	df000104 	addi	fp,sp,4
   204a4:	e13fff15 	stw	r4,-4(fp)
   204a8:	008000f4 	movhi	r2,3
   204ac:	10a21c04 	addi	r2,r2,-30608
   204b0:	e0ffff17 	ldw	r3,-4(fp)
   204b4:	18800015 	stw	r2,0(r3)
   204b8:	e0bfff17 	ldw	r2,-4(fp)
   204bc:	1009883a 	mov	r4,r2
   204c0:	0021f180 	call	21f18 <_ZN18PLL_LOCKED_CAPTURED1Ev>
   204c4:	0001883a 	nop
   204c8:	e037883a 	mov	sp,fp
   204cc:	dfc00117 	ldw	ra,4(sp)
   204d0:	df000017 	ldw	fp,0(sp)
   204d4:	dec00204 	addi	sp,sp,8
   204d8:	f800283a 	ret

000204dc <_ZN15lmx2694_HandlerD0Ev>:
   204dc:	defffd04 	addi	sp,sp,-12
   204e0:	dfc00215 	stw	ra,8(sp)
   204e4:	df000115 	stw	fp,4(sp)
   204e8:	df000104 	addi	fp,sp,4
   204ec:	e13fff15 	stw	r4,-4(fp)
   204f0:	e13fff17 	ldw	r4,-4(fp)
   204f4:	00204940 	call	20494 <_ZN15lmx2694_HandlerD1Ev>
   204f8:	01401804 	movi	r5,96
   204fc:	e13fff17 	ldw	r4,-4(fp)
   20500:	0022be00 	call	22be0 <_ZdlPvj>
   20504:	e037883a 	mov	sp,fp
   20508:	dfc00117 	ldw	ra,4(sp)
   2050c:	df000017 	ldw	fp,0(sp)
   20510:	dec00204 	addi	sp,sp,8
   20514:	f800283a 	ret

00020518 <_ZN15lmx2694_Handler4InitEv>:
   20518:	defffd04 	addi	sp,sp,-12
   2051c:	dfc00215 	stw	ra,8(sp)
   20520:	df000115 	stw	fp,4(sp)
   20524:	df000104 	addi	fp,sp,4
   20528:	e13fff15 	stw	r4,-4(fp)
   2052c:	e0ffff17 	ldw	r3,-4(fp)
   20530:	008000f4 	movhi	r2,3
   20534:	10b04204 	addi	r2,r2,-16120
   20538:	18800815 	stw	r2,32(r3)
   2053c:	e0bfff17 	ldw	r2,-4(fp)
   20540:	10800817 	ldw	r2,32(r2)
   20544:	000d883a 	mov	r6,zero
   20548:	01400134 	movhi	r5,4
   2054c:	29440004 	addi	r5,r5,4096
   20550:	1009883a 	mov	r4,r2
   20554:	00222ec0 	call	222ec <_ZN11SPI_Handler4InitEmm>
   20558:	e0bfff17 	ldw	r2,-4(fp)
   2055c:	10800817 	ldw	r2,32(r2)
   20560:	01400044 	movi	r5,1
   20564:	1009883a 	mov	r4,r2
   20568:	00223a40 	call	223a4 <_ZN11SPI_Handler5SetCSEb>
   2056c:	e13fff17 	ldw	r4,-4(fp)
   20570:	00212bc0 	call	212bc <_ZN15lmx2694_Handler10Power_DownEv>
   20574:	e13fff17 	ldw	r4,-4(fp)
   20578:	00214700 	call	21470 <_ZN15lmx2694_Handler13Program_ResetEv>
   2057c:	e13fff17 	ldw	r4,-4(fp)
   20580:	00216800 	call	21680 <_ZN15lmx2694_Handler18Initiate_RegistersEv>
   20584:	010000b4 	movhi	r4,2
   20588:	2121a804 	addi	r4,r4,-31072
   2058c:	00264f00 	call	264f0 <usleep>
   20590:	e13fff17 	ldw	r4,-4(fp)
   20594:	00214100 	call	21410 <_ZN15lmx2694_Handler14Toggle_FCAL_ENEv>
   20598:	010000b4 	movhi	r4,2
   2059c:	2121a804 	addi	r4,r4,-31072
   205a0:	00264f00 	call	264f0 <usleep>
   205a4:	e13fff17 	ldw	r4,-4(fp)
   205a8:	00206740 	call	20674 <_ZN15lmx2694_Handler10Got_LockedEv>
   205ac:	e037883a 	mov	sp,fp
   205b0:	dfc00117 	ldw	ra,4(sp)
   205b4:	df000017 	ldw	fp,0(sp)
   205b8:	dec00204 	addi	sp,sp,8
   205bc:	f800283a 	ret

000205c0 <_ZN15lmx2694_Handler14Set_MASH_ORDEREh>:
   205c0:	defffc04 	addi	sp,sp,-16
   205c4:	dfc00315 	stw	ra,12(sp)
   205c8:	df000215 	stw	fp,8(sp)
   205cc:	df000204 	addi	fp,sp,8
   205d0:	e13fff15 	stw	r4,-4(fp)
   205d4:	2805883a 	mov	r2,r5
   205d8:	e0bffe05 	stb	r2,-8(fp)
   205dc:	e0bfff17 	ldw	r2,-4(fp)
   205e0:	e0fffe03 	ldbu	r3,-8(fp)
   205e4:	10c00d05 	stb	r3,52(r2)
   205e8:	e0bfff17 	ldw	r2,-4(fp)
   205ec:	10800717 	ldw	r2,28(r2)
   205f0:	10c0160b 	ldhu	r3,88(r2)
   205f4:	e0bfff17 	ldw	r2,-4(fp)
   205f8:	10c00c0d 	sth	r3,48(r2)
   205fc:	e0bfff17 	ldw	r2,-4(fp)
   20600:	10800c0b 	ldhu	r2,48(r2)
   20604:	1007883a 	mov	r3,r2
   20608:	00bffe04 	movi	r2,-8
   2060c:	1884703a 	and	r2,r3,r2
   20610:	1007883a 	mov	r3,r2
   20614:	e0bfff17 	ldw	r2,-4(fp)
   20618:	10800d03 	ldbu	r2,52(r2)
   2061c:	10803fcc 	andi	r2,r2,255
   20620:	1884b03a 	or	r2,r3,r2
   20624:	1007883a 	mov	r3,r2
   20628:	e0bfff17 	ldw	r2,-4(fp)
   2062c:	10c00c0d 	sth	r3,48(r2)
   20630:	e0bfff17 	ldw	r2,-4(fp)
   20634:	10800c0b 	ldhu	r2,48(r2)
   20638:	10bfffcc 	andi	r2,r2,65535
   2063c:	100d883a 	mov	r6,r2
   20640:	01400b04 	movi	r5,44
   20644:	e13fff17 	ldw	r4,-4(fp)
   20648:	00217600 	call	21760 <_ZN15lmx2694_Handler21Write_Single_RegisterEht>
   2064c:	1007883a 	mov	r3,r2
   20650:	e0bfff17 	ldw	r2,-4(fp)
   20654:	10c00b15 	stw	r3,44(r2)
   20658:	e0bfff17 	ldw	r2,-4(fp)
   2065c:	10800b17 	ldw	r2,44(r2)
   20660:	e037883a 	mov	sp,fp
   20664:	dfc00117 	ldw	ra,4(sp)
   20668:	df000017 	ldw	fp,0(sp)
   2066c:	dec00204 	addi	sp,sp,8
   20670:	f800283a 	ret

00020674 <_ZN15lmx2694_Handler10Got_LockedEv>:
   20674:	defffc04 	addi	sp,sp,-16
   20678:	dfc00315 	stw	ra,12(sp)
   2067c:	df000215 	stw	fp,8(sp)
   20680:	dc000115 	stw	r16,4(sp)
   20684:	df000204 	addi	fp,sp,8
   20688:	e13ffe15 	stw	r4,-8(fp)
   2068c:	e0bffe17 	ldw	r2,-8(fp)
   20690:	1009883a 	mov	r4,r2
   20694:	00220d40 	call	220d4 <_ZN18PLL_LOCKED_CAPTURE9Is_LockedEv>
   20698:	10803fcc 	andi	r2,r2,255
   2069c:	10002526 	beq	r2,zero,20734 <_ZN15lmx2694_Handler10Got_LockedEv+0xc0>
   206a0:	01400084 	movi	r5,2
   206a4:	e13ffe17 	ldw	r4,-8(fp)
   206a8:	00207540 	call	20754 <_ZN15lmx2694_Handler11Get_OUT_MUXEh>
   206ac:	10803fcc 	andi	r2,r2,255
   206b0:	1004c03a 	cmpne	r2,r2,zero
   206b4:	10803fcc 	andi	r2,r2,255
   206b8:	10000726 	beq	r2,zero,206d8 <_ZN15lmx2694_Handler10Got_LockedEv+0x64>
   206bc:	000b883a 	mov	r5,zero
   206c0:	e13ffe17 	ldw	r4,-8(fp)
   206c4:	00209bc0 	call	209bc <_ZN15lmx2694_Handler27Calculate_Current_FrequencyEb>
   206c8:	1007883a 	mov	r3,r2
   206cc:	e0bffe17 	ldw	r2,-8(fp)
   206d0:	10c00515 	stw	r3,20(r2)
   206d4:	00001706 	br	20734 <_ZN15lmx2694_Handler10Got_LockedEv+0xc0>
   206d8:	000b883a 	mov	r5,zero
   206dc:	e13ffe17 	ldw	r4,-8(fp)
   206e0:	00207bc0 	call	207bc <_ZN15lmx2694_Handler25Get_Channel_Divider_ValueEb>
   206e4:	1007883a 	mov	r3,r2
   206e8:	e0bffe17 	ldw	r2,-8(fp)
   206ec:	10c00d45 	stb	r3,53(r2)
   206f0:	000b883a 	mov	r5,zero
   206f4:	e13ffe17 	ldw	r4,-8(fp)
   206f8:	00209bc0 	call	209bc <_ZN15lmx2694_Handler27Calculate_Current_FrequencyEb>
   206fc:	1021883a 	mov	r16,r2
   20700:	e0bffe17 	ldw	r2,-8(fp)
   20704:	10800d43 	ldbu	r2,53(r2)
   20708:	10803fcc 	andi	r2,r2,255
   2070c:	1009883a 	mov	r4,r2
   20710:	0024f400 	call	24f40 <__floatsisf>
   20714:	1007883a 	mov	r3,r2
   20718:	180b883a 	mov	r5,r3
   2071c:	8009883a 	mov	r4,r16
   20720:	00240d80 	call	240d8 <__divsf3>
   20724:	1009883a 	mov	r4,r2
   20728:	2007883a 	mov	r3,r4
   2072c:	e0bffe17 	ldw	r2,-8(fp)
   20730:	10c00515 	stw	r3,20(r2)
   20734:	e0bffe17 	ldw	r2,-8(fp)
   20738:	10800103 	ldbu	r2,4(r2)
   2073c:	e6ffff04 	addi	sp,fp,-4
   20740:	dfc00217 	ldw	ra,8(sp)
   20744:	df000117 	ldw	fp,4(sp)
   20748:	dc000017 	ldw	r16,0(sp)
   2074c:	dec00304 	addi	sp,sp,12
   20750:	f800283a 	ret

00020754 <_ZN15lmx2694_Handler11Get_OUT_MUXEh>:
   20754:	defffd04 	addi	sp,sp,-12
   20758:	df000215 	stw	fp,8(sp)
   2075c:	df000204 	addi	fp,sp,8
   20760:	e13fff15 	stw	r4,-4(fp)
   20764:	2805883a 	mov	r2,r5
   20768:	e0bffe05 	stb	r2,-8(fp)
   2076c:	e0bffe03 	ldbu	r2,-8(fp)
   20770:	10800098 	cmpnei	r2,r2,2
   20774:	1000061e 	bne	r2,zero,20790 <_ZN15lmx2694_Handler11Get_OUT_MUXEh+0x3c>
   20778:	e0bfff17 	ldw	r2,-4(fp)
   2077c:	10800717 	ldw	r2,28(r2)
   20780:	10801704 	addi	r2,r2,92
   20784:	1080000b 	ldhu	r2,0(r2)
   20788:	108000cc 	andi	r2,r2,3
   2078c:	00000706 	br	207ac <_ZN15lmx2694_Handler11Get_OUT_MUXEh+0x58>
   20790:	e0bfff17 	ldw	r2,-4(fp)
   20794:	10800717 	ldw	r2,28(r2)
   20798:	10801684 	addi	r2,r2,90
   2079c:	1080000b 	ldhu	r2,0(r2)
   207a0:	10bfffcc 	andi	r2,r2,65535
   207a4:	1005d2fa 	srai	r2,r2,11
   207a8:	108000cc 	andi	r2,r2,3
   207ac:	e037883a 	mov	sp,fp
   207b0:	df000017 	ldw	fp,0(sp)
   207b4:	dec00104 	addi	sp,sp,4
   207b8:	f800283a 	ret

000207bc <_ZN15lmx2694_Handler25Get_Channel_Divider_ValueEb>:
   207bc:	defffc04 	addi	sp,sp,-16
   207c0:	dfc00315 	stw	ra,12(sp)
   207c4:	df000215 	stw	fp,8(sp)
   207c8:	df000204 	addi	fp,sp,8
   207cc:	e13fff15 	stw	r4,-4(fp)
   207d0:	2805883a 	mov	r2,r5
   207d4:	e0bffe05 	stb	r2,-8(fp)
   207d8:	e0bffe03 	ldbu	r2,-8(fp)
   207dc:	10000a26 	beq	r2,zero,20808 <_ZN15lmx2694_Handler25Get_Channel_Divider_ValueEb+0x4c>
   207e0:	014012c4 	movi	r5,75
   207e4:	e13fff17 	ldw	r4,-4(fp)
   207e8:	00218740 	call	21874 <_ZN15lmx2694_Handler20Read_Single_RegisterEh>
   207ec:	10bfffcc 	andi	r2,r2,65535
   207f0:	1005d1ba 	srai	r2,r2,6
   207f4:	108007cc 	andi	r2,r2,31
   207f8:	1007883a 	mov	r3,r2
   207fc:	e0bfff17 	ldw	r2,-4(fp)
   20800:	10c00cc5 	stb	r3,51(r2)
   20804:	00000a06 	br	20830 <_ZN15lmx2694_Handler25Get_Channel_Divider_ValueEb+0x74>
   20808:	e0bfff17 	ldw	r2,-4(fp)
   2080c:	10800717 	ldw	r2,28(r2)
   20810:	10802584 	addi	r2,r2,150
   20814:	1080000b 	ldhu	r2,0(r2)
   20818:	10bfffcc 	andi	r2,r2,65535
   2081c:	1005d1ba 	srai	r2,r2,6
   20820:	108007cc 	andi	r2,r2,31
   20824:	1007883a 	mov	r3,r2
   20828:	e0bfff17 	ldw	r2,-4(fp)
   2082c:	10c00cc5 	stb	r3,51(r2)
   20830:	e0bfff17 	ldw	r2,-4(fp)
   20834:	10800cc3 	ldbu	r2,51(r2)
   20838:	10803fcc 	andi	r2,r2,255
   2083c:	100690ba 	slli	r3,r2,2
   20840:	008000f4 	movhi	r2,3
   20844:	1885883a 	add	r2,r3,r2
   20848:	10a20c17 	ldw	r2,-30672(r2)
   2084c:	e037883a 	mov	sp,fp
   20850:	dfc00117 	ldw	ra,4(sp)
   20854:	df000017 	ldw	fp,0(sp)
   20858:	dec00204 	addi	sp,sp,8
   2085c:	f800283a 	ret

00020860 <_ZN15lmx2694_Handler13Get_N_DividerEb>:
   20860:	defffd04 	addi	sp,sp,-12
   20864:	df000215 	stw	fp,8(sp)
   20868:	df000204 	addi	fp,sp,8
   2086c:	e13fff15 	stw	r4,-4(fp)
   20870:	2805883a 	mov	r2,r5
   20874:	e0bffe05 	stb	r2,-8(fp)
   20878:	e0bffe03 	ldbu	r2,-8(fp)
   2087c:	10000f1e 	bne	r2,zero,208bc <_ZN15lmx2694_Handler13Get_N_DividerEb+0x5c>
   20880:	e0bfff17 	ldw	r2,-4(fp)
   20884:	10800717 	ldw	r2,28(r2)
   20888:	10801104 	addi	r2,r2,68
   2088c:	1080000b 	ldhu	r2,0(r2)
   20890:	10bfffcc 	andi	r2,r2,65535
   20894:	1004943a 	slli	r2,r2,16
   20898:	1007883a 	mov	r3,r2
   2089c:	e0bfff17 	ldw	r2,-4(fp)
   208a0:	10800717 	ldw	r2,28(r2)
   208a4:	10801204 	addi	r2,r2,72
   208a8:	1080000b 	ldhu	r2,0(r2)
   208ac:	10bfffcc 	andi	r2,r2,65535
   208b0:	1887883a 	add	r3,r3,r2
   208b4:	e0bfff17 	ldw	r2,-4(fp)
   208b8:	10c00e15 	stw	r3,56(r2)
   208bc:	e0bfff17 	ldw	r2,-4(fp)
   208c0:	10800e17 	ldw	r2,56(r2)
   208c4:	e037883a 	mov	sp,fp
   208c8:	df000017 	ldw	fp,0(sp)
   208cc:	dec00104 	addi	sp,sp,4
   208d0:	f800283a 	ret

000208d4 <_ZN15lmx2694_Handler13Get_NumeratorEb>:
   208d4:	defffd04 	addi	sp,sp,-12
   208d8:	df000215 	stw	fp,8(sp)
   208dc:	df000204 	addi	fp,sp,8
   208e0:	e13fff15 	stw	r4,-4(fp)
   208e4:	2805883a 	mov	r2,r5
   208e8:	e0bffe05 	stb	r2,-8(fp)
   208ec:	e0bffe03 	ldbu	r2,-8(fp)
   208f0:	10000f1e 	bne	r2,zero,20930 <_ZN15lmx2694_Handler13Get_NumeratorEb+0x5c>
   208f4:	e0bfff17 	ldw	r2,-4(fp)
   208f8:	10800717 	ldw	r2,28(r2)
   208fc:	10801504 	addi	r2,r2,84
   20900:	1080000b 	ldhu	r2,0(r2)
   20904:	10bfffcc 	andi	r2,r2,65535
   20908:	1004943a 	slli	r2,r2,16
   2090c:	1007883a 	mov	r3,r2
   20910:	e0bfff17 	ldw	r2,-4(fp)
   20914:	10800717 	ldw	r2,28(r2)
   20918:	10801584 	addi	r2,r2,86
   2091c:	1080000b 	ldhu	r2,0(r2)
   20920:	10bfffcc 	andi	r2,r2,65535
   20924:	1887883a 	add	r3,r3,r2
   20928:	e0bfff17 	ldw	r2,-4(fp)
   2092c:	10c00f15 	stw	r3,60(r2)
   20930:	e0bfff17 	ldw	r2,-4(fp)
   20934:	10800f17 	ldw	r2,60(r2)
   20938:	e037883a 	mov	sp,fp
   2093c:	df000017 	ldw	fp,0(sp)
   20940:	dec00104 	addi	sp,sp,4
   20944:	f800283a 	ret

00020948 <_ZN15lmx2694_Handler15Get_DenominatorEb>:
   20948:	defffd04 	addi	sp,sp,-12
   2094c:	df000215 	stw	fp,8(sp)
   20950:	df000204 	addi	fp,sp,8
   20954:	e13fff15 	stw	r4,-4(fp)
   20958:	2805883a 	mov	r2,r5
   2095c:	e0bffe05 	stb	r2,-8(fp)
   20960:	e0bffe03 	ldbu	r2,-8(fp)
   20964:	10000f1e 	bne	r2,zero,209a4 <_ZN15lmx2694_Handler15Get_DenominatorEb+0x5c>
   20968:	e0bfff17 	ldw	r2,-4(fp)
   2096c:	10800717 	ldw	r2,28(r2)
   20970:	10801304 	addi	r2,r2,76
   20974:	1080000b 	ldhu	r2,0(r2)
   20978:	10bfffcc 	andi	r2,r2,65535
   2097c:	1004943a 	slli	r2,r2,16
   20980:	1007883a 	mov	r3,r2
   20984:	e0bfff17 	ldw	r2,-4(fp)
   20988:	10800717 	ldw	r2,28(r2)
   2098c:	10801384 	addi	r2,r2,78
   20990:	1080000b 	ldhu	r2,0(r2)
   20994:	10bfffcc 	andi	r2,r2,65535
   20998:	1887883a 	add	r3,r3,r2
   2099c:	e0bfff17 	ldw	r2,-4(fp)
   209a0:	10c01015 	stw	r3,64(r2)
   209a4:	e0bfff17 	ldw	r2,-4(fp)
   209a8:	10801017 	ldw	r2,64(r2)
   209ac:	e037883a 	mov	sp,fp
   209b0:	df000017 	ldw	fp,0(sp)
   209b4:	dec00104 	addi	sp,sp,4
   209b8:	f800283a 	ret

000209bc <_ZN15lmx2694_Handler27Calculate_Current_FrequencyEb>:
   209bc:	defffa04 	addi	sp,sp,-24
   209c0:	dfc00515 	stw	ra,20(sp)
   209c4:	df000415 	stw	fp,16(sp)
   209c8:	dc400315 	stw	r17,12(sp)
   209cc:	dc000215 	stw	r16,8(sp)
   209d0:	df000404 	addi	fp,sp,16
   209d4:	e13ffd15 	stw	r4,-12(fp)
   209d8:	2805883a 	mov	r2,r5
   209dc:	e0bffc05 	stb	r2,-16(fp)
   209e0:	e0bffc03 	ldbu	r2,-16(fp)
   209e4:	1000231e 	bne	r2,zero,20a74 <_ZN15lmx2694_Handler27Calculate_Current_FrequencyEb+0xb8>
   209e8:	000b883a 	mov	r5,zero
   209ec:	e13ffd17 	ldw	r4,-12(fp)
   209f0:	00208600 	call	20860 <_ZN15lmx2694_Handler13Get_N_DividerEb>
   209f4:	1009883a 	mov	r4,r2
   209f8:	00250640 	call	25064 <__floatunsisf>
   209fc:	1021883a 	mov	r16,r2
   20a00:	000b883a 	mov	r5,zero
   20a04:	e13ffd17 	ldw	r4,-12(fp)
   20a08:	00208d40 	call	208d4 <_ZN15lmx2694_Handler13Get_NumeratorEb>
   20a0c:	1009883a 	mov	r4,r2
   20a10:	00250640 	call	25064 <__floatunsisf>
   20a14:	1023883a 	mov	r17,r2
   20a18:	000b883a 	mov	r5,zero
   20a1c:	e13ffd17 	ldw	r4,-12(fp)
   20a20:	00209480 	call	20948 <_ZN15lmx2694_Handler15Get_DenominatorEb>
   20a24:	1009883a 	mov	r4,r2
   20a28:	00250640 	call	25064 <__floatunsisf>
   20a2c:	1007883a 	mov	r3,r2
   20a30:	180b883a 	mov	r5,r3
   20a34:	8809883a 	mov	r4,r17
   20a38:	00240d80 	call	240d8 <__divsf3>
   20a3c:	1007883a 	mov	r3,r2
   20a40:	1805883a 	mov	r2,r3
   20a44:	100b883a 	mov	r5,r2
   20a48:	8009883a 	mov	r4,r16
   20a4c:	0023c7c0 	call	23c7c <__addsf3>
   20a50:	1007883a 	mov	r3,r2
   20a54:	1805883a 	mov	r2,r3
   20a58:	0150d234 	movhi	r5,17224
   20a5c:	1009883a 	mov	r4,r2
   20a60:	00246500 	call	24650 <__mulsf3>
   20a64:	1009883a 	mov	r4,r2
   20a68:	2007883a 	mov	r3,r4
   20a6c:	e0bffd17 	ldw	r2,-12(fp)
   20a70:	10c01315 	stw	r3,76(r2)
   20a74:	e0bffd17 	ldw	r2,-12(fp)
   20a78:	10c01317 	ldw	r3,76(r2)
   20a7c:	1805883a 	mov	r2,r3
   20a80:	e6fffe04 	addi	sp,fp,-8
   20a84:	dfc00317 	ldw	ra,12(sp)
   20a88:	df000217 	ldw	fp,8(sp)
   20a8c:	dc400117 	ldw	r17,4(sp)
   20a90:	dc000017 	ldw	r16,0(sp)
   20a94:	dec00404 	addi	sp,sp,16
   20a98:	f800283a 	ret

00020a9c <_ZN15lmx2694_Handler3GCDEmm>:
   20a9c:	defffb04 	addi	sp,sp,-20
   20aa0:	dfc00415 	stw	ra,16(sp)
   20aa4:	df000315 	stw	fp,12(sp)
   20aa8:	df000304 	addi	fp,sp,12
   20aac:	e13fff15 	stw	r4,-4(fp)
   20ab0:	e17ffe15 	stw	r5,-8(fp)
   20ab4:	e1bffd15 	stw	r6,-12(fp)
   20ab8:	e0bffe17 	ldw	r2,-8(fp)
   20abc:	1000021e 	bne	r2,zero,20ac8 <_ZN15lmx2694_Handler3GCDEmm+0x2c>
   20ac0:	e0bffd17 	ldw	r2,-12(fp)
   20ac4:	00001906 	br	20b2c <_ZN15lmx2694_Handler3GCDEmm+0x90>
   20ac8:	e0bffd17 	ldw	r2,-12(fp)
   20acc:	1000021e 	bne	r2,zero,20ad8 <_ZN15lmx2694_Handler3GCDEmm+0x3c>
   20ad0:	e0bffe17 	ldw	r2,-8(fp)
   20ad4:	00001506 	br	20b2c <_ZN15lmx2694_Handler3GCDEmm+0x90>
   20ad8:	e0fffe17 	ldw	r3,-8(fp)
   20adc:	e0bffd17 	ldw	r2,-12(fp)
   20ae0:	1880092e 	bgeu	r3,r2,20b08 <_ZN15lmx2694_Handler3GCDEmm+0x6c>
   20ae4:	e0bffd17 	ldw	r2,-12(fp)
   20ae8:	e17ffe17 	ldw	r5,-8(fp)
   20aec:	1009883a 	mov	r4,r2
   20af0:	0023c200 	call	23c20 <__umodsi3>
   20af4:	100d883a 	mov	r6,r2
   20af8:	e17ffe17 	ldw	r5,-8(fp)
   20afc:	e13fff17 	ldw	r4,-4(fp)
   20b00:	0020a9c0 	call	20a9c <_ZN15lmx2694_Handler3GCDEmm>
   20b04:	00000906 	br	20b2c <_ZN15lmx2694_Handler3GCDEmm+0x90>
   20b08:	e0bffe17 	ldw	r2,-8(fp)
   20b0c:	e17ffd17 	ldw	r5,-12(fp)
   20b10:	1009883a 	mov	r4,r2
   20b14:	0023c200 	call	23c20 <__umodsi3>
   20b18:	100d883a 	mov	r6,r2
   20b1c:	e17ffd17 	ldw	r5,-12(fp)
   20b20:	e13fff17 	ldw	r4,-4(fp)
   20b24:	0020a9c0 	call	20a9c <_ZN15lmx2694_Handler3GCDEmm>
   20b28:	0001883a 	nop
   20b2c:	e037883a 	mov	sp,fp
   20b30:	dfc00117 	ldw	ra,4(sp)
   20b34:	df000017 	ldw	fp,0(sp)
   20b38:	dec00204 	addi	sp,sp,8
   20b3c:	f800283a 	ret

00020b40 <_ZN15lmx2694_Handler20Set_Target_FrequencyEf>:
   20b40:	defffb04 	addi	sp,sp,-20
   20b44:	dfc00415 	stw	ra,16(sp)
   20b48:	df000315 	stw	fp,12(sp)
   20b4c:	dc000215 	stw	r16,8(sp)
   20b50:	df000304 	addi	fp,sp,12
   20b54:	e13ffe15 	stw	r4,-8(fp)
   20b58:	e17ffd15 	stw	r5,-12(fp)
   20b5c:	01519b34 	movhi	r5,18028
   20b60:	297c0004 	addi	r5,r5,-4096
   20b64:	e13ffd17 	ldw	r4,-12(fp)
   20b68:	00244cc0 	call	244cc <__gesf2>
   20b6c:	0080050e 	bge	zero,r2,20b84 <_ZN15lmx2694_Handler20Set_Target_FrequencyEf+0x44>
   20b70:	e0fffe17 	ldw	r3,-8(fp)
   20b74:	00919b34 	movhi	r2,18028
   20b78:	10bc0004 	addi	r2,r2,-4096
   20b7c:	18801215 	stw	r2,72(r3)
   20b80:	00008b06 	br	20db0 <_ZN15lmx2694_Handler20Set_Target_FrequencyEf+0x270>
   20b84:	0150f234 	movhi	r5,17352
   20b88:	e13ffd17 	ldw	r4,-12(fp)
   20b8c:	00244cc0 	call	244cc <__gesf2>
   20b90:	0080870e 	bge	zero,r2,20db0 <_ZN15lmx2694_Handler20Set_Target_FrequencyEf+0x270>
   20b94:	e0bffe17 	ldw	r2,-8(fp)
   20b98:	e0fffd17 	ldw	r3,-12(fp)
   20b9c:	10c01215 	stw	r3,72(r2)
   20ba0:	01517b34 	movhi	r5,17900
   20ba4:	297c0004 	addi	r5,r5,-4096
   20ba8:	e13ffd17 	ldw	r4,-12(fp)
   20bac:	00244cc0 	call	244cc <__gesf2>
   20bb0:	0080150e 	bge	zero,r2,20c08 <_ZN15lmx2694_Handler20Set_Target_FrequencyEf+0xc8>
   20bb4:	e0bffe17 	ldw	r2,-8(fp)
   20bb8:	10c00517 	ldw	r3,20(r2)
   20bbc:	01517b34 	movhi	r5,17900
   20bc0:	297c0004 	addi	r5,r5,-4096
   20bc4:	1809883a 	mov	r4,r3
   20bc8:	00244cc0 	call	244cc <__gesf2>
   20bcc:	00800a16 	blt	zero,r2,20bf8 <_ZN15lmx2694_Handler20Set_Target_FrequencyEf+0xb8>
   20bd0:	e0bffe17 	ldw	r2,-8(fp)
   20bd4:	10800717 	ldw	r2,28(r2)
   20bd8:	10801704 	addi	r2,r2,92
   20bdc:	1080000b 	ldhu	r2,0(r2)
   20be0:	10800054 	ori	r2,r2,1
   20be4:	10bfffcc 	andi	r2,r2,65535
   20be8:	100d883a 	mov	r6,r2
   20bec:	01400b84 	movi	r5,46
   20bf0:	e13ffe17 	ldw	r4,-8(fp)
   20bf4:	00217600 	call	21760 <_ZN15lmx2694_Handler21Write_Single_RegisterEht>
   20bf8:	e0bffe17 	ldw	r2,-8(fp)
   20bfc:	00c00044 	movi	r3,1
   20c00:	10c00d45 	stb	r3,53(r2)
   20c04:	00003506 	br	20cdc <_ZN15lmx2694_Handler20Set_Target_FrequencyEf+0x19c>
   20c08:	e0bffe17 	ldw	r2,-8(fp)
   20c0c:	10c00517 	ldw	r3,20(r2)
   20c10:	01517b34 	movhi	r5,17900
   20c14:	297c0004 	addi	r5,r5,-4096
   20c18:	1809883a 	mov	r4,r3
   20c1c:	00245900 	call	24590 <__lesf2>
   20c20:	10000a16 	blt	r2,zero,20c4c <_ZN15lmx2694_Handler20Set_Target_FrequencyEf+0x10c>
   20c24:	e0bffe17 	ldw	r2,-8(fp)
   20c28:	10800717 	ldw	r2,28(r2)
   20c2c:	10801704 	addi	r2,r2,92
   20c30:	1080000b 	ldhu	r2,0(r2)
   20c34:	10bfffcc 	andi	r2,r2,65535
   20c38:	10bfff0c 	andi	r2,r2,65532
   20c3c:	100d883a 	mov	r6,r2
   20c40:	01400b84 	movi	r5,46
   20c44:	e13ffe17 	ldw	r4,-8(fp)
   20c48:	00217600 	call	21760 <_ZN15lmx2694_Handler21Write_Single_RegisterEht>
   20c4c:	e0bffe17 	ldw	r2,-8(fp)
   20c50:	10800717 	ldw	r2,28(r2)
   20c54:	10802584 	addi	r2,r2,150
   20c58:	10c0000b 	ldhu	r3,0(r2)
   20c5c:	00be0fc4 	movi	r2,-1985
   20c60:	1884703a 	and	r2,r3,r2
   20c64:	1007883a 	mov	r3,r2
   20c68:	e0bffe17 	ldw	r2,-8(fp)
   20c6c:	10c00c0d 	sth	r3,48(r2)
   20c70:	e0bffe17 	ldw	r2,-8(fp)
   20c74:	10800c0b 	ldhu	r2,48(r2)
   20c78:	1021883a 	mov	r16,r2
   20c7c:	e13ffe17 	ldw	r4,-8(fp)
   20c80:	0020ebc0 	call	20ebc <_ZN15lmx2694_Handler28Choose_Channel_Divider_IndexEv>
   20c84:	10803fcc 	andi	r2,r2,255
   20c88:	100491ba 	slli	r2,r2,6
   20c8c:	8084b03a 	or	r2,r16,r2
   20c90:	10bfffcc 	andi	r2,r2,65535
   20c94:	100d883a 	mov	r6,r2
   20c98:	014012c4 	movi	r5,75
   20c9c:	e13ffe17 	ldw	r4,-8(fp)
   20ca0:	00217600 	call	21760 <_ZN15lmx2694_Handler21Write_Single_RegisterEht>
   20ca4:	e0bffe17 	ldw	r2,-8(fp)
   20ca8:	10800d43 	ldbu	r2,53(r2)
   20cac:	10803fcc 	andi	r2,r2,255
   20cb0:	108000f0 	cmpltui	r2,r2,3
   20cb4:	1000051e 	bne	r2,zero,20ccc <_ZN15lmx2694_Handler20Set_Target_FrequencyEf+0x18c>
   20cb8:	0190fb04 	movi	r6,17388
   20cbc:	014007c4 	movi	r5,31
   20cc0:	e13ffe17 	ldw	r4,-8(fp)
   20cc4:	00217600 	call	21760 <_ZN15lmx2694_Handler21Write_Single_RegisterEht>
   20cc8:	00000406 	br	20cdc <_ZN15lmx2694_Handler20Set_Target_FrequencyEf+0x19c>
   20ccc:	0180fb04 	movi	r6,1004
   20cd0:	014007c4 	movi	r5,31
   20cd4:	e13ffe17 	ldw	r4,-8(fp)
   20cd8:	00217600 	call	21760 <_ZN15lmx2694_Handler21Write_Single_RegisterEht>
   20cdc:	e0bffe17 	ldw	r2,-8(fp)
   20ce0:	10800d43 	ldbu	r2,53(r2)
   20ce4:	10803fcc 	andi	r2,r2,255
   20ce8:	1009883a 	mov	r4,r2
   20cec:	0024f400 	call	24f40 <__floatsisf>
   20cf0:	1007883a 	mov	r3,r2
   20cf4:	e17ffd17 	ldw	r5,-12(fp)
   20cf8:	1809883a 	mov	r4,r3
   20cfc:	00246500 	call	24650 <__mulsf3>
   20d00:	1007883a 	mov	r3,r2
   20d04:	1805883a 	mov	r2,r3
   20d08:	0150d234 	movhi	r5,17224
   20d0c:	1009883a 	mov	r4,r2
   20d10:	00240d80 	call	240d8 <__divsf3>
   20d14:	1009883a 	mov	r4,r2
   20d18:	2007883a 	mov	r3,r4
   20d1c:	e0bffe17 	ldw	r2,-8(fp)
   20d20:	10c01415 	stw	r3,80(r2)
   20d24:	e0bffe17 	ldw	r2,-8(fp)
   20d28:	10c01417 	ldw	r3,80(r2)
   20d2c:	1809883a 	mov	r4,r3
   20d30:	0021e480 	call	21e48 <_ZSt5floorf>
   20d34:	1007883a 	mov	r3,r2
   20d38:	1809883a 	mov	r4,r3
   20d3c:	0023a680 	call	23a68 <__fixunssfsi>
   20d40:	1007883a 	mov	r3,r2
   20d44:	e0bffe17 	ldw	r2,-8(fp)
   20d48:	10c00e15 	stw	r3,56(r2)
   20d4c:	e0bffe17 	ldw	r2,-8(fp)
   20d50:	14001417 	ldw	r16,80(r2)
   20d54:	e0bffe17 	ldw	r2,-8(fp)
   20d58:	10800e17 	ldw	r2,56(r2)
   20d5c:	1009883a 	mov	r4,r2
   20d60:	00250640 	call	25064 <__floatunsisf>
   20d64:	1007883a 	mov	r3,r2
   20d68:	180b883a 	mov	r5,r3
   20d6c:	8009883a 	mov	r4,r16
   20d70:	0024a4c0 	call	24a4c <__subsf3>
   20d74:	1009883a 	mov	r4,r2
   20d78:	2007883a 	mov	r3,r4
   20d7c:	e0bffe17 	ldw	r2,-8(fp)
   20d80:	10c01515 	stw	r3,84(r2)
   20d84:	e0bffe17 	ldw	r2,-8(fp)
   20d88:	10c01517 	ldw	r3,84(r2)
   20d8c:	180b883a 	mov	r5,r3
   20d90:	e13ffe17 	ldw	r4,-8(fp)
   20d94:	00211c40 	call	211c4 <_ZN15lmx2694_Handler18Calculate_FractionEf>
   20d98:	e13ffe17 	ldw	r4,-8(fp)
   20d9c:	0020dd40 	call	20dd4 <_ZN15lmx2694_Handler24Write_Division_RegistersEv>
   20da0:	e0bffe17 	ldw	r2,-8(fp)
   20da4:	10000105 	stb	zero,4(r2)
   20da8:	e13ffe17 	ldw	r4,-8(fp)
   20dac:	00214100 	call	21410 <_ZN15lmx2694_Handler14Toggle_FCAL_ENEv>
   20db0:	e0bffe17 	ldw	r2,-8(fp)
   20db4:	10c01217 	ldw	r3,72(r2)
   20db8:	1805883a 	mov	r2,r3
   20dbc:	e6ffff04 	addi	sp,fp,-4
   20dc0:	dfc00217 	ldw	ra,8(sp)
   20dc4:	df000117 	ldw	fp,4(sp)
   20dc8:	dc000017 	ldw	r16,0(sp)
   20dcc:	dec00304 	addi	sp,sp,12
   20dd0:	f800283a 	ret

00020dd4 <_ZN15lmx2694_Handler24Write_Division_RegistersEv>:
   20dd4:	defffd04 	addi	sp,sp,-12
   20dd8:	dfc00215 	stw	ra,8(sp)
   20ddc:	df000115 	stw	fp,4(sp)
   20de0:	df000104 	addi	fp,sp,4
   20de4:	e13fff15 	stw	r4,-4(fp)
   20de8:	e0bfff17 	ldw	r2,-4(fp)
   20dec:	10800f17 	ldw	r2,60(r2)
   20df0:	10bfffcc 	andi	r2,r2,65535
   20df4:	100d883a 	mov	r6,r2
   20df8:	01400ac4 	movi	r5,43
   20dfc:	e13fff17 	ldw	r4,-4(fp)
   20e00:	00217600 	call	21760 <_ZN15lmx2694_Handler21Write_Single_RegisterEht>
   20e04:	e0bfff17 	ldw	r2,-4(fp)
   20e08:	10800f17 	ldw	r2,60(r2)
   20e0c:	1004d43a 	srli	r2,r2,16
   20e10:	10bfffcc 	andi	r2,r2,65535
   20e14:	100d883a 	mov	r6,r2
   20e18:	01400a84 	movi	r5,42
   20e1c:	e13fff17 	ldw	r4,-4(fp)
   20e20:	00217600 	call	21760 <_ZN15lmx2694_Handler21Write_Single_RegisterEht>
   20e24:	e0bfff17 	ldw	r2,-4(fp)
   20e28:	10801017 	ldw	r2,64(r2)
   20e2c:	10bfffcc 	andi	r2,r2,65535
   20e30:	100d883a 	mov	r6,r2
   20e34:	014009c4 	movi	r5,39
   20e38:	e13fff17 	ldw	r4,-4(fp)
   20e3c:	00217600 	call	21760 <_ZN15lmx2694_Handler21Write_Single_RegisterEht>
   20e40:	e0bfff17 	ldw	r2,-4(fp)
   20e44:	10801017 	ldw	r2,64(r2)
   20e48:	1004d43a 	srli	r2,r2,16
   20e4c:	10bfffcc 	andi	r2,r2,65535
   20e50:	100d883a 	mov	r6,r2
   20e54:	01400984 	movi	r5,38
   20e58:	e13fff17 	ldw	r4,-4(fp)
   20e5c:	00217600 	call	21760 <_ZN15lmx2694_Handler21Write_Single_RegisterEht>
   20e60:	e13fff17 	ldw	r4,-4(fp)
   20e64:	00211100 	call	21110 <_ZN15lmx2694_Handler19Program_PFD_DLY_SELEv>
   20e68:	e0bfff17 	ldw	r2,-4(fp)
   20e6c:	10800e17 	ldw	r2,56(r2)
   20e70:	10bfffcc 	andi	r2,r2,65535
   20e74:	100d883a 	mov	r6,r2
   20e78:	01400904 	movi	r5,36
   20e7c:	e13fff17 	ldw	r4,-4(fp)
   20e80:	00217600 	call	21760 <_ZN15lmx2694_Handler21Write_Single_RegisterEht>
   20e84:	e0bfff17 	ldw	r2,-4(fp)
   20e88:	10800e17 	ldw	r2,56(r2)
   20e8c:	1004d43a 	srli	r2,r2,16
   20e90:	10bfffcc 	andi	r2,r2,65535
   20e94:	100d883a 	mov	r6,r2
   20e98:	01400884 	movi	r5,34
   20e9c:	e13fff17 	ldw	r4,-4(fp)
   20ea0:	00217600 	call	21760 <_ZN15lmx2694_Handler21Write_Single_RegisterEht>
   20ea4:	0001883a 	nop
   20ea8:	e037883a 	mov	sp,fp
   20eac:	dfc00117 	ldw	ra,4(sp)
   20eb0:	df000017 	ldw	fp,0(sp)
   20eb4:	dec00204 	addi	sp,sp,8
   20eb8:	f800283a 	ret

00020ebc <_ZN15lmx2694_Handler28Choose_Channel_Divider_IndexEv>:
   20ebc:	defffc04 	addi	sp,sp,-16
   20ec0:	dfc00315 	stw	ra,12(sp)
   20ec4:	df000215 	stw	fp,8(sp)
   20ec8:	df000204 	addi	fp,sp,8
   20ecc:	e13ffe15 	stw	r4,-8(fp)
   20ed0:	e03fff15 	stw	zero,-4(fp)
   20ed4:	e0bfff17 	ldw	r2,-4(fp)
   20ed8:	10800388 	cmpgei	r2,r2,14
   20edc:	1000381e 	bne	r2,zero,20fc0 <_ZN15lmx2694_Handler28Choose_Channel_Divider_IndexEv+0x104>
   20ee0:	e0bfff17 	ldw	r2,-4(fp)
   20ee4:	108000c8 	cmpgei	r2,r2,3
   20ee8:	10001b1e 	bne	r2,zero,20f58 <_ZN15lmx2694_Handler28Choose_Channel_Divider_IndexEv+0x9c>
   20eec:	e0bfff17 	ldw	r2,-4(fp)
   20ef0:	100690ba 	slli	r3,r2,2
   20ef4:	008000f4 	movhi	r2,3
   20ef8:	1885883a 	add	r2,r3,r2
   20efc:	10a20c17 	ldw	r2,-30672(r2)
   20f00:	100b883a 	mov	r5,r2
   20f04:	010ebf04 	movi	r4,15100
   20f08:	0023ac80 	call	23ac8 <__divsi3>
   20f0c:	1009883a 	mov	r4,r2
   20f10:	0024f400 	call	24f40 <__floatsisf>
   20f14:	1009883a 	mov	r4,r2
   20f18:	e0bffe17 	ldw	r2,-8(fp)
   20f1c:	10c01217 	ldw	r3,72(r2)
   20f20:	180b883a 	mov	r5,r3
   20f24:	00244cc0 	call	244cc <__gesf2>
   20f28:	00802116 	blt	zero,r2,20fb0 <_ZN15lmx2694_Handler28Choose_Channel_Divider_IndexEv+0xf4>
   20f2c:	e0bfff17 	ldw	r2,-4(fp)
   20f30:	0080060e 	bge	zero,r2,20f4c <_ZN15lmx2694_Handler28Choose_Channel_Divider_IndexEv+0x90>
   20f34:	e0bfff17 	ldw	r2,-4(fp)
   20f38:	10bfffc4 	addi	r2,r2,-1
   20f3c:	1007883a 	mov	r3,r2
   20f40:	e0bffe17 	ldw	r2,-8(fp)
   20f44:	10c00cc5 	stb	r3,51(r2)
   20f48:	00001d06 	br	20fc0 <_ZN15lmx2694_Handler28Choose_Channel_Divider_IndexEv+0x104>
   20f4c:	e0bffe17 	ldw	r2,-8(fp)
   20f50:	10000cc5 	stb	zero,51(r2)
   20f54:	00001a06 	br	20fc0 <_ZN15lmx2694_Handler28Choose_Channel_Divider_IndexEv+0x104>
   20f58:	e0bfff17 	ldw	r2,-4(fp)
   20f5c:	100690ba 	slli	r3,r2,2
   20f60:	008000f4 	movhi	r2,3
   20f64:	1885883a 	add	r2,r3,r2
   20f68:	10a20c17 	ldw	r2,-30672(r2)
   20f6c:	100b883a 	mov	r5,r2
   20f70:	010b3b04 	movi	r4,11500
   20f74:	0023ac80 	call	23ac8 <__divsi3>
   20f78:	1009883a 	mov	r4,r2
   20f7c:	0024f400 	call	24f40 <__floatsisf>
   20f80:	1009883a 	mov	r4,r2
   20f84:	e0bffe17 	ldw	r2,-8(fp)
   20f88:	10c01217 	ldw	r3,72(r2)
   20f8c:	180b883a 	mov	r5,r3
   20f90:	00244cc0 	call	244cc <__gesf2>
   20f94:	00800616 	blt	zero,r2,20fb0 <_ZN15lmx2694_Handler28Choose_Channel_Divider_IndexEv+0xf4>
   20f98:	e0bfff17 	ldw	r2,-4(fp)
   20f9c:	10bfffc4 	addi	r2,r2,-1
   20fa0:	1007883a 	mov	r3,r2
   20fa4:	e0bffe17 	ldw	r2,-8(fp)
   20fa8:	10c00cc5 	stb	r3,51(r2)
   20fac:	00000406 	br	20fc0 <_ZN15lmx2694_Handler28Choose_Channel_Divider_IndexEv+0x104>
   20fb0:	e0bfff17 	ldw	r2,-4(fp)
   20fb4:	10800044 	addi	r2,r2,1
   20fb8:	e0bfff15 	stw	r2,-4(fp)
   20fbc:	003fc506 	br	20ed4 <_ZN15lmx2694_Handler28Choose_Channel_Divider_IndexEv+0x18>
   20fc0:	e0bffe17 	ldw	r2,-8(fp)
   20fc4:	10800cc3 	ldbu	r2,51(r2)
   20fc8:	10803fcc 	andi	r2,r2,255
   20fcc:	100690ba 	slli	r3,r2,2
   20fd0:	008000f4 	movhi	r2,3
   20fd4:	1885883a 	add	r2,r3,r2
   20fd8:	10a20c17 	ldw	r2,-30672(r2)
   20fdc:	1007883a 	mov	r3,r2
   20fe0:	e0bffe17 	ldw	r2,-8(fp)
   20fe4:	10c00d45 	stb	r3,53(r2)
   20fe8:	e0bffe17 	ldw	r2,-8(fp)
   20fec:	10800cc3 	ldbu	r2,51(r2)
   20ff0:	e037883a 	mov	sp,fp
   20ff4:	dfc00117 	ldw	ra,4(sp)
   20ff8:	df000017 	ldw	fp,0(sp)
   20ffc:	dec00204 	addi	sp,sp,8
   21000:	f800283a 	ret

00021004 <_ZN15lmx2694_Handler19Program_PFD_DLY_SELEf>:
   21004:	defffc04 	addi	sp,sp,-16
   21008:	dfc00315 	stw	ra,12(sp)
   2100c:	df000215 	stw	fp,8(sp)
   21010:	df000204 	addi	fp,sp,8
   21014:	e13fff15 	stw	r4,-4(fp)
   21018:	e17ffe15 	stw	r5,-8(fp)
   2101c:	e0bfff17 	ldw	r2,-4(fp)
   21020:	10800d03 	ldbu	r2,52(r2)
   21024:	10803fcc 	andi	r2,r2,255
   21028:	10002f26 	beq	r2,zero,210e8 <_ZN15lmx2694_Handler19Program_PFD_DLY_SELEf+0xe4>
   2102c:	e0bfff17 	ldw	r2,-4(fp)
   21030:	10800d03 	ldbu	r2,52(r2)
   21034:	10803fcc 	andi	r2,r2,255
   21038:	10000326 	beq	r2,zero,21048 <_ZN15lmx2694_Handler19Program_PFD_DLY_SELEf+0x44>
   2103c:	10800060 	cmpeqi	r2,r2,1
   21040:	1000101e 	bne	r2,zero,21084 <_ZN15lmx2694_Handler19Program_PFD_DLY_SELEf+0x80>
   21044:	00002806 	br	210e8 <_ZN15lmx2694_Handler19Program_PFD_DLY_SELEf+0xe4>
   21048:	015190f4 	movhi	r5,17987
   2104c:	29540004 	addi	r5,r5,20480
   21050:	e13ffe17 	ldw	r4,-8(fp)
   21054:	00244cc0 	call	244cc <__gesf2>
   21058:	0080050e 	bge	zero,r2,21070 <_ZN15lmx2694_Handler19Program_PFD_DLY_SELEf+0x6c>
   2105c:	01a08114 	movui	r6,33284
   21060:	01400944 	movi	r5,37
   21064:	e13fff17 	ldw	r4,-4(fp)
   21068:	00217600 	call	21760 <_ZN15lmx2694_Handler21Write_Single_RegisterEht>
   2106c:	00001e06 	br	210e8 <_ZN15lmx2694_Handler19Program_PFD_DLY_SELEf+0xe4>
   21070:	01a04114 	movui	r6,33028
   21074:	01400944 	movi	r5,37
   21078:	e13fff17 	ldw	r4,-4(fp)
   2107c:	00217600 	call	21760 <_ZN15lmx2694_Handler21Write_Single_RegisterEht>
   21080:	00001906 	br	210e8 <_ZN15lmx2694_Handler19Program_PFD_DLY_SELEf+0xe4>
   21084:	015190f4 	movhi	r5,17987
   21088:	29540004 	addi	r5,r5,20480
   2108c:	e13ffe17 	ldw	r4,-8(fp)
   21090:	00244cc0 	call	244cc <__gesf2>
   21094:	0080050e 	bge	zero,r2,210ac <_ZN15lmx2694_Handler19Program_PFD_DLY_SELEf+0xa8>
   21098:	01a0c114 	movui	r6,33540
   2109c:	01400944 	movi	r5,37
   210a0:	e13fff17 	ldw	r4,-4(fp)
   210a4:	00217600 	call	21760 <_ZN15lmx2694_Handler21Write_Single_RegisterEht>
   210a8:	00000e06 	br	210e4 <_ZN15lmx2694_Handler19Program_PFD_DLY_SELEf+0xe0>
   210ac:	01518734 	movhi	r5,17948
   210b0:	29500004 	addi	r5,r5,16384
   210b4:	e13ffe17 	ldw	r4,-8(fp)
   210b8:	00244cc0 	call	244cc <__gesf2>
   210bc:	0080050e 	bge	zero,r2,210d4 <_ZN15lmx2694_Handler19Program_PFD_DLY_SELEf+0xd0>
   210c0:	01a08114 	movui	r6,33284
   210c4:	01400944 	movi	r5,37
   210c8:	e13fff17 	ldw	r4,-4(fp)
   210cc:	00217600 	call	21760 <_ZN15lmx2694_Handler21Write_Single_RegisterEht>
   210d0:	00000406 	br	210e4 <_ZN15lmx2694_Handler19Program_PFD_DLY_SELEf+0xe0>
   210d4:	01a04114 	movui	r6,33028
   210d8:	01400944 	movi	r5,37
   210dc:	e13fff17 	ldw	r4,-4(fp)
   210e0:	00217600 	call	21760 <_ZN15lmx2694_Handler21Write_Single_RegisterEht>
   210e4:	0001883a 	nop
   210e8:	e0bfff17 	ldw	r2,-4(fp)
   210ec:	10800717 	ldw	r2,28(r2)
   210f0:	10801284 	addi	r2,r2,74
   210f4:	1080000b 	ldhu	r2,0(r2)
   210f8:	10bfffcc 	andi	r2,r2,65535
   210fc:	e037883a 	mov	sp,fp
   21100:	dfc00117 	ldw	ra,4(sp)
   21104:	df000017 	ldw	fp,0(sp)
   21108:	dec00204 	addi	sp,sp,8
   2110c:	f800283a 	ret

00021110 <_ZN15lmx2694_Handler19Program_PFD_DLY_SELEv>:
   21110:	defffc04 	addi	sp,sp,-16
   21114:	dfc00315 	stw	ra,12(sp)
   21118:	df000215 	stw	fp,8(sp)
   2111c:	dc000115 	stw	r16,4(sp)
   21120:	df000204 	addi	fp,sp,8
   21124:	e13ffe15 	stw	r4,-8(fp)
   21128:	e0bffe17 	ldw	r2,-8(fp)
   2112c:	10c01217 	ldw	r3,72(r2)
   21130:	01517b34 	movhi	r5,17900
   21134:	297c0004 	addi	r5,r5,-4096
   21138:	1809883a 	mov	r4,r3
   2113c:	00244cc0 	call	244cc <__gesf2>
   21140:	0080050e 	bge	zero,r2,21158 <_ZN15lmx2694_Handler19Program_PFD_DLY_SELEv+0x48>
   21144:	e0bffe17 	ldw	r2,-8(fp)
   21148:	10c01217 	ldw	r3,72(r2)
   2114c:	e0bffe17 	ldw	r2,-8(fp)
   21150:	10c01315 	stw	r3,76(r2)
   21154:	00000f06 	br	21194 <_ZN15lmx2694_Handler19Program_PFD_DLY_SELEv+0x84>
   21158:	e0bffe17 	ldw	r2,-8(fp)
   2115c:	14001217 	ldw	r16,72(r2)
   21160:	000b883a 	mov	r5,zero
   21164:	e13ffe17 	ldw	r4,-8(fp)
   21168:	00207bc0 	call	207bc <_ZN15lmx2694_Handler25Get_Channel_Divider_ValueEb>
   2116c:	1009883a 	mov	r4,r2
   21170:	0024f400 	call	24f40 <__floatsisf>
   21174:	1007883a 	mov	r3,r2
   21178:	180b883a 	mov	r5,r3
   2117c:	8009883a 	mov	r4,r16
   21180:	00246500 	call	24650 <__mulsf3>
   21184:	1009883a 	mov	r4,r2
   21188:	2007883a 	mov	r3,r4
   2118c:	e0bffe17 	ldw	r2,-8(fp)
   21190:	10c01315 	stw	r3,76(r2)
   21194:	e0bffe17 	ldw	r2,-8(fp)
   21198:	10c01317 	ldw	r3,76(r2)
   2119c:	180b883a 	mov	r5,r3
   211a0:	e13ffe17 	ldw	r4,-8(fp)
   211a4:	00210040 	call	21004 <_ZN15lmx2694_Handler19Program_PFD_DLY_SELEf>
   211a8:	0001883a 	nop
   211ac:	e6ffff04 	addi	sp,fp,-4
   211b0:	dfc00217 	ldw	ra,8(sp)
   211b4:	df000117 	ldw	fp,4(sp)
   211b8:	dc000017 	ldw	r16,0(sp)
   211bc:	dec00304 	addi	sp,sp,12
   211c0:	f800283a 	ret

000211c4 <_ZN15lmx2694_Handler18Calculate_FractionEf>:
   211c4:	defffb04 	addi	sp,sp,-20
   211c8:	dfc00415 	stw	ra,16(sp)
   211cc:	df000315 	stw	fp,12(sp)
   211d0:	dc000215 	stw	r16,8(sp)
   211d4:	df000304 	addi	fp,sp,12
   211d8:	e13ffe15 	stw	r4,-8(fp)
   211dc:	e17ffd15 	stw	r5,-12(fp)
   211e0:	0153e034 	movhi	r5,20352
   211e4:	e13ffd17 	ldw	r4,-12(fp)
   211e8:	00246500 	call	24650 <__mulsf3>
   211ec:	1007883a 	mov	r3,r2
   211f0:	1805883a 	mov	r2,r3
   211f4:	1009883a 	mov	r4,r2
   211f8:	0021e800 	call	21e80 <_ZSt5roundf>
   211fc:	1007883a 	mov	r3,r2
   21200:	1809883a 	mov	r4,r3
   21204:	0023a680 	call	23a68 <__fixunssfsi>
   21208:	01bfffc4 	movi	r6,-1
   2120c:	100b883a 	mov	r5,r2
   21210:	e13ffe17 	ldw	r4,-8(fp)
   21214:	0020a9c0 	call	20a9c <_ZN15lmx2694_Handler3GCDEmm>
   21218:	1007883a 	mov	r3,r2
   2121c:	e0bffe17 	ldw	r2,-8(fp)
   21220:	10c01115 	stw	r3,68(r2)
   21224:	0153e034 	movhi	r5,20352
   21228:	e13ffd17 	ldw	r4,-12(fp)
   2122c:	00246500 	call	24650 <__mulsf3>
   21230:	1007883a 	mov	r3,r2
   21234:	1805883a 	mov	r2,r3
   21238:	1009883a 	mov	r4,r2
   2123c:	0021e800 	call	21e80 <_ZSt5roundf>
   21240:	1021883a 	mov	r16,r2
   21244:	e0bffe17 	ldw	r2,-8(fp)
   21248:	10801117 	ldw	r2,68(r2)
   2124c:	1009883a 	mov	r4,r2
   21250:	00250640 	call	25064 <__floatunsisf>
   21254:	1007883a 	mov	r3,r2
   21258:	180b883a 	mov	r5,r3
   2125c:	8009883a 	mov	r4,r16
   21260:	00240d80 	call	240d8 <__divsf3>
   21264:	1007883a 	mov	r3,r2
   21268:	1805883a 	mov	r2,r3
   2126c:	1009883a 	mov	r4,r2
   21270:	0023a680 	call	23a68 <__fixunssfsi>
   21274:	1007883a 	mov	r3,r2
   21278:	e0bffe17 	ldw	r2,-8(fp)
   2127c:	10c00f15 	stw	r3,60(r2)
   21280:	e0bffe17 	ldw	r2,-8(fp)
   21284:	10801117 	ldw	r2,68(r2)
   21288:	100b883a 	mov	r5,r2
   2128c:	013fffc4 	movi	r4,-1
   21290:	0023bbc0 	call	23bbc <__udivsi3>
   21294:	1007883a 	mov	r3,r2
   21298:	e0bffe17 	ldw	r2,-8(fp)
   2129c:	10c01015 	stw	r3,64(r2)
   212a0:	0001883a 	nop
   212a4:	e6ffff04 	addi	sp,fp,-4
   212a8:	dfc00217 	ldw	ra,8(sp)
   212ac:	df000117 	ldw	fp,4(sp)
   212b0:	dc000017 	ldw	r16,0(sp)
   212b4:	dec00304 	addi	sp,sp,12
   212b8:	f800283a 	ret

000212bc <_ZN15lmx2694_Handler10Power_DownEv>:
   212bc:	defffd04 	addi	sp,sp,-12
   212c0:	dfc00215 	stw	ra,8(sp)
   212c4:	df000115 	stw	fp,4(sp)
   212c8:	df000104 	addi	fp,sp,4
   212cc:	e13fff15 	stw	r4,-4(fp)
   212d0:	e0bfff17 	ldw	r2,-4(fp)
   212d4:	10800817 	ldw	r2,32(r2)
   212d8:	000b883a 	mov	r5,zero
   212dc:	1009883a 	mov	r4,r2
   212e0:	00223a40 	call	223a4 <_ZN11SPI_Handler5SetCSEb>
   212e4:	01484644 	movi	r5,8473
   212e8:	e13fff17 	ldw	r4,-4(fp)
   212ec:	00215840 	call	21584 <_ZN15lmx2694_Handler15Get_Three_BytesEm>
   212f0:	e0bfff17 	ldw	r2,-4(fp)
   212f4:	10c00817 	ldw	r3,32(r2)
   212f8:	e0bfff17 	ldw	r2,-4(fp)
   212fc:	10800904 	addi	r2,r2,36
   21300:	018000c4 	movi	r6,3
   21304:	100b883a 	mov	r5,r2
   21308:	1809883a 	mov	r4,r3
   2130c:	0021dc80 	call	21dc8 <_ZN11SPI_Handler5WriteEPhm>
   21310:	1007883a 	mov	r3,r2
   21314:	e0bfff17 	ldw	r2,-4(fp)
   21318:	10c00b15 	stw	r3,44(r2)
   2131c:	e0bfff17 	ldw	r2,-4(fp)
   21320:	10800b17 	ldw	r2,44(r2)
   21324:	0084803a 	cmplt	r2,zero,r2
   21328:	1007883a 	mov	r3,r2
   2132c:	e0bfff17 	ldw	r2,-4(fp)
   21330:	10c00a85 	stb	r3,42(r2)
   21334:	e0bfff17 	ldw	r2,-4(fp)
   21338:	10800817 	ldw	r2,32(r2)
   2133c:	01400044 	movi	r5,1
   21340:	1009883a 	mov	r4,r2
   21344:	00223a40 	call	223a4 <_ZN11SPI_Handler5SetCSEb>
   21348:	e0bfff17 	ldw	r2,-4(fp)
   2134c:	10800a83 	ldbu	r2,42(r2)
   21350:	e037883a 	mov	sp,fp
   21354:	dfc00117 	ldw	ra,4(sp)
   21358:	df000017 	ldw	fp,0(sp)
   2135c:	dec00204 	addi	sp,sp,8
   21360:	f800283a 	ret

00021364 <_ZN15lmx2694_Handler13Write_FCAL_ENEb>:
   21364:	defffc04 	addi	sp,sp,-16
   21368:	dfc00315 	stw	ra,12(sp)
   2136c:	df000215 	stw	fp,8(sp)
   21370:	df000204 	addi	fp,sp,8
   21374:	e13fff15 	stw	r4,-4(fp)
   21378:	2805883a 	mov	r2,r5
   2137c:	e0bffe05 	stb	r2,-8(fp)
   21380:	e0bffe03 	ldbu	r2,-8(fp)
   21384:	10000826 	beq	r2,zero,213a8 <_ZN15lmx2694_Handler13Write_FCAL_ENEb+0x44>
   21388:	e0bfff17 	ldw	r2,-4(fp)
   2138c:	10800717 	ldw	r2,28(r2)
   21390:	1080000b 	ldhu	r2,0(r2)
   21394:	10800214 	ori	r2,r2,8
   21398:	1007883a 	mov	r3,r2
   2139c:	e0bfff17 	ldw	r2,-4(fp)
   213a0:	10c00c0d 	sth	r3,48(r2)
   213a4:	00000806 	br	213c8 <_ZN15lmx2694_Handler13Write_FCAL_ENEb+0x64>
   213a8:	e0bfff17 	ldw	r2,-4(fp)
   213ac:	10800717 	ldw	r2,28(r2)
   213b0:	10c0000b 	ldhu	r3,0(r2)
   213b4:	00bffdc4 	movi	r2,-9
   213b8:	1884703a 	and	r2,r3,r2
   213bc:	1007883a 	mov	r3,r2
   213c0:	e0bfff17 	ldw	r2,-4(fp)
   213c4:	10c00c0d 	sth	r3,48(r2)
   213c8:	e0bfff17 	ldw	r2,-4(fp)
   213cc:	10800c0b 	ldhu	r2,48(r2)
   213d0:	10bfffcc 	andi	r2,r2,65535
   213d4:	100d883a 	mov	r6,r2
   213d8:	000b883a 	mov	r5,zero
   213dc:	e13fff17 	ldw	r4,-4(fp)
   213e0:	00217600 	call	21760 <_ZN15lmx2694_Handler21Write_Single_RegisterEht>
   213e4:	1007883a 	mov	r3,r2
   213e8:	e0bfff17 	ldw	r2,-4(fp)
   213ec:	10c00b15 	stw	r3,44(r2)
   213f0:	e0bfff17 	ldw	r2,-4(fp)
   213f4:	10800b17 	ldw	r2,44(r2)
   213f8:	1004c03a 	cmpne	r2,r2,zero
   213fc:	e037883a 	mov	sp,fp
   21400:	dfc00117 	ldw	ra,4(sp)
   21404:	df000017 	ldw	fp,0(sp)
   21408:	dec00204 	addi	sp,sp,8
   2140c:	f800283a 	ret

00021410 <_ZN15lmx2694_Handler14Toggle_FCAL_ENEv>:
   21410:	defffd04 	addi	sp,sp,-12
   21414:	dfc00215 	stw	ra,8(sp)
   21418:	df000115 	stw	fp,4(sp)
   2141c:	df000104 	addi	fp,sp,4
   21420:	e13fff15 	stw	r4,-4(fp)
   21424:	000b883a 	mov	r5,zero
   21428:	e13fff17 	ldw	r4,-4(fp)
   2142c:	00213640 	call	21364 <_ZN15lmx2694_Handler13Write_FCAL_ENEb>
   21430:	010000b4 	movhi	r4,2
   21434:	2121a804 	addi	r4,r4,-31072
   21438:	00264f00 	call	264f0 <usleep>
   2143c:	01400044 	movi	r5,1
   21440:	e13fff17 	ldw	r4,-4(fp)
   21444:	00213640 	call	21364 <_ZN15lmx2694_Handler13Write_FCAL_ENEb>
   21448:	1007883a 	mov	r3,r2
   2144c:	e0bfff17 	ldw	r2,-4(fp)
   21450:	10c00a85 	stb	r3,42(r2)
   21454:	e0bfff17 	ldw	r2,-4(fp)
   21458:	10800a83 	ldbu	r2,42(r2)
   2145c:	e037883a 	mov	sp,fp
   21460:	dfc00117 	ldw	ra,4(sp)
   21464:	df000017 	ldw	fp,0(sp)
   21468:	dec00204 	addi	sp,sp,8
   2146c:	f800283a 	ret

00021470 <_ZN15lmx2694_Handler13Program_ResetEv>:
   21470:	defffd04 	addi	sp,sp,-12
   21474:	dfc00215 	stw	ra,8(sp)
   21478:	df000115 	stw	fp,4(sp)
   2147c:	df000104 	addi	fp,sp,4
   21480:	e13fff15 	stw	r4,-4(fp)
   21484:	e0bfff17 	ldw	r2,-4(fp)
   21488:	10800817 	ldw	r2,32(r2)
   2148c:	000b883a 	mov	r5,zero
   21490:	1009883a 	mov	r4,r2
   21494:	00223a40 	call	223a4 <_ZN11SPI_Handler5SetCSEb>
   21498:	01484784 	movi	r5,8478
   2149c:	e13fff17 	ldw	r4,-4(fp)
   214a0:	00215840 	call	21584 <_ZN15lmx2694_Handler15Get_Three_BytesEm>
   214a4:	e0bfff17 	ldw	r2,-4(fp)
   214a8:	10c00817 	ldw	r3,32(r2)
   214ac:	e0bfff17 	ldw	r2,-4(fp)
   214b0:	10800904 	addi	r2,r2,36
   214b4:	018000c4 	movi	r6,3
   214b8:	100b883a 	mov	r5,r2
   214bc:	1809883a 	mov	r4,r3
   214c0:	0021dc80 	call	21dc8 <_ZN11SPI_Handler5WriteEPhm>
   214c4:	1007883a 	mov	r3,r2
   214c8:	e0bfff17 	ldw	r2,-4(fp)
   214cc:	10c00b15 	stw	r3,44(r2)
   214d0:	e0bfff17 	ldw	r2,-4(fp)
   214d4:	10800817 	ldw	r2,32(r2)
   214d8:	01400044 	movi	r5,1
   214dc:	1009883a 	mov	r4,r2
   214e0:	00223a40 	call	223a4 <_ZN11SPI_Handler5SetCSEb>
   214e4:	010000b4 	movhi	r4,2
   214e8:	2121a804 	addi	r4,r4,-31072
   214ec:	00264f00 	call	264f0 <usleep>
   214f0:	e0bfff17 	ldw	r2,-4(fp)
   214f4:	10800817 	ldw	r2,32(r2)
   214f8:	000b883a 	mov	r5,zero
   214fc:	1009883a 	mov	r4,r2
   21500:	00223a40 	call	223a4 <_ZN11SPI_Handler5SetCSEb>
   21504:	01484704 	movi	r5,8476
   21508:	e13fff17 	ldw	r4,-4(fp)
   2150c:	00215840 	call	21584 <_ZN15lmx2694_Handler15Get_Three_BytesEm>
   21510:	e0bfff17 	ldw	r2,-4(fp)
   21514:	10c00817 	ldw	r3,32(r2)
   21518:	e0bfff17 	ldw	r2,-4(fp)
   2151c:	10800904 	addi	r2,r2,36
   21520:	018000c4 	movi	r6,3
   21524:	100b883a 	mov	r5,r2
   21528:	1809883a 	mov	r4,r3
   2152c:	0021dc80 	call	21dc8 <_ZN11SPI_Handler5WriteEPhm>
   21530:	1007883a 	mov	r3,r2
   21534:	e0bfff17 	ldw	r2,-4(fp)
   21538:	10c00b15 	stw	r3,44(r2)
   2153c:	e0bfff17 	ldw	r2,-4(fp)
   21540:	10800b17 	ldw	r2,44(r2)
   21544:	0084803a 	cmplt	r2,zero,r2
   21548:	1007883a 	mov	r3,r2
   2154c:	e0bfff17 	ldw	r2,-4(fp)
   21550:	10c00a85 	stb	r3,42(r2)
   21554:	e0bfff17 	ldw	r2,-4(fp)
   21558:	10800817 	ldw	r2,32(r2)
   2155c:	01400044 	movi	r5,1
   21560:	1009883a 	mov	r4,r2
   21564:	00223a40 	call	223a4 <_ZN11SPI_Handler5SetCSEb>
   21568:	e0bfff17 	ldw	r2,-4(fp)
   2156c:	10800a83 	ldbu	r2,42(r2)
   21570:	e037883a 	mov	sp,fp
   21574:	dfc00117 	ldw	ra,4(sp)
   21578:	df000017 	ldw	fp,0(sp)
   2157c:	dec00204 	addi	sp,sp,8
   21580:	f800283a 	ret

00021584 <_ZN15lmx2694_Handler15Get_Three_BytesEm>:
   21584:	defffc04 	addi	sp,sp,-16
   21588:	df000315 	stw	fp,12(sp)
   2158c:	df000304 	addi	fp,sp,12
   21590:	e13ffe15 	stw	r4,-8(fp)
   21594:	e17ffd15 	stw	r5,-12(fp)
   21598:	e03fff15 	stw	zero,-4(fp)
   2159c:	e0bfff17 	ldw	r2,-4(fp)
   215a0:	108000c8 	cmpgei	r2,r2,3
   215a4:	10000e1e 	bne	r2,zero,215e0 <_ZN15lmx2694_Handler15Get_Three_BytesEm+0x5c>
   215a8:	e0bfff17 	ldw	r2,-4(fp)
   215ac:	100490fa 	slli	r2,r2,3
   215b0:	e0fffd17 	ldw	r3,-12(fp)
   215b4:	1888d83a 	srl	r4,r3,r2
   215b8:	00c00084 	movi	r3,2
   215bc:	e0bfff17 	ldw	r2,-4(fp)
   215c0:	1885c83a 	sub	r2,r3,r2
   215c4:	e0fffe17 	ldw	r3,-8(fp)
   215c8:	1885883a 	add	r2,r3,r2
   215cc:	11000905 	stb	r4,36(r2)
   215d0:	e0bfff17 	ldw	r2,-4(fp)
   215d4:	10800044 	addi	r2,r2,1
   215d8:	e0bfff15 	stw	r2,-4(fp)
   215dc:	003fef06 	br	2159c <_ZN15lmx2694_Handler15Get_Three_BytesEm+0x18>
   215e0:	0001883a 	nop
   215e4:	e037883a 	mov	sp,fp
   215e8:	df000017 	ldw	fp,0(sp)
   215ec:	dec00104 	addi	sp,sp,4
   215f0:	f800283a 	ret

000215f4 <_ZN15lmx2694_Handler16Make_Three_BytesEht>:
   215f4:	defffb04 	addi	sp,sp,-20
   215f8:	df000415 	stw	fp,16(sp)
   215fc:	df000404 	addi	fp,sp,16
   21600:	e13ffe15 	stw	r4,-8(fp)
   21604:	2805883a 	mov	r2,r5
   21608:	3007883a 	mov	r3,r6
   2160c:	e0bffd05 	stb	r2,-12(fp)
   21610:	1805883a 	mov	r2,r3
   21614:	e0bffc0d 	sth	r2,-16(fp)
   21618:	e03fff15 	stw	zero,-4(fp)
   2161c:	e0bfff17 	ldw	r2,-4(fp)
   21620:	10800088 	cmpgei	r2,r2,2
   21624:	10000e1e 	bne	r2,zero,21660 <_ZN15lmx2694_Handler16Make_Three_BytesEht+0x6c>
   21628:	e0fffc0b 	ldhu	r3,-16(fp)
   2162c:	e0bfff17 	ldw	r2,-4(fp)
   21630:	100490fa 	slli	r2,r2,3
   21634:	1889d83a 	sra	r4,r3,r2
   21638:	00c00084 	movi	r3,2
   2163c:	e0bfff17 	ldw	r2,-4(fp)
   21640:	1885c83a 	sub	r2,r3,r2
   21644:	e0fffe17 	ldw	r3,-8(fp)
   21648:	1885883a 	add	r2,r3,r2
   2164c:	11000905 	stb	r4,36(r2)
   21650:	e0bfff17 	ldw	r2,-4(fp)
   21654:	10800044 	addi	r2,r2,1
   21658:	e0bfff15 	stw	r2,-4(fp)
   2165c:	003fef06 	br	2161c <_ZN15lmx2694_Handler16Make_Three_BytesEht+0x28>
   21660:	e0bffe17 	ldw	r2,-8(fp)
   21664:	e0fffd03 	ldbu	r3,-12(fp)
   21668:	10c00905 	stb	r3,36(r2)
   2166c:	0001883a 	nop
   21670:	e037883a 	mov	sp,fp
   21674:	df000017 	ldw	fp,0(sp)
   21678:	dec00104 	addi	sp,sp,4
   2167c:	f800283a 	ret

00021680 <_ZN15lmx2694_Handler18Initiate_RegistersEv>:
   21680:	defffb04 	addi	sp,sp,-20
   21684:	dfc00415 	stw	ra,16(sp)
   21688:	df000315 	stw	fp,12(sp)
   2168c:	df000304 	addi	fp,sp,12
   21690:	e13ffd15 	stw	r4,-12(fp)
   21694:	e03fff15 	stw	zero,-4(fp)
   21698:	e0bfff17 	ldw	r2,-4(fp)
   2169c:	10801cc8 	cmpgei	r2,r2,115
   216a0:	1000111e 	bne	r2,zero,216e8 <_ZN15lmx2694_Handler18Initiate_RegistersEv+0x68>
   216a4:	00c01c84 	movi	r3,114
   216a8:	e0bfff17 	ldw	r2,-4(fp)
   216ac:	1885c83a 	sub	r2,r3,r2
   216b0:	e0fffd17 	ldw	r3,-12(fp)
   216b4:	19000617 	ldw	r4,24(r3)
   216b8:	e0ffff17 	ldw	r3,-4(fp)
   216bc:	18c7883a 	add	r3,r3,r3
   216c0:	20c7883a 	add	r3,r4,r3
   216c4:	1089883a 	add	r4,r2,r2
   216c8:	008000f4 	movhi	r2,3
   216cc:	2085883a 	add	r2,r4,r2
   216d0:	10a1d20b 	ldhu	r2,-30904(r2)
   216d4:	1880000d 	sth	r2,0(r3)
   216d8:	e0bfff17 	ldw	r2,-4(fp)
   216dc:	10800044 	addi	r2,r2,1
   216e0:	e0bfff15 	stw	r2,-4(fp)
   216e4:	003fec06 	br	21698 <_ZN15lmx2694_Handler18Initiate_RegistersEv+0x18>
   216e8:	00801cc4 	movi	r2,115
   216ec:	e0bffe15 	stw	r2,-8(fp)
   216f0:	e0bffe17 	ldw	r2,-8(fp)
   216f4:	0080140e 	bge	zero,r2,21748 <_ZN15lmx2694_Handler18Initiate_RegistersEv+0xc8>
   216f8:	e0bffe17 	ldw	r2,-8(fp)
   216fc:	10bfffc4 	addi	r2,r2,-1
   21700:	11403fcc 	andi	r5,r2,255
   21704:	e0bffd17 	ldw	r2,-12(fp)
   21708:	10c00617 	ldw	r3,24(r2)
   2170c:	e13ffe17 	ldw	r4,-8(fp)
   21710:	00a00034 	movhi	r2,32768
   21714:	10bfffc4 	addi	r2,r2,-1
   21718:	2085883a 	add	r2,r4,r2
   2171c:	1085883a 	add	r2,r2,r2
   21720:	1885883a 	add	r2,r3,r2
   21724:	1080000b 	ldhu	r2,0(r2)
   21728:	10bfffcc 	andi	r2,r2,65535
   2172c:	100d883a 	mov	r6,r2
   21730:	e13ffd17 	ldw	r4,-12(fp)
   21734:	00217600 	call	21760 <_ZN15lmx2694_Handler21Write_Single_RegisterEht>
   21738:	e0bffe17 	ldw	r2,-8(fp)
   2173c:	10bfffc4 	addi	r2,r2,-1
   21740:	e0bffe15 	stw	r2,-8(fp)
   21744:	003fea06 	br	216f0 <_ZN15lmx2694_Handler18Initiate_RegistersEv+0x70>
   21748:	0001883a 	nop
   2174c:	e037883a 	mov	sp,fp
   21750:	dfc00117 	ldw	ra,4(sp)
   21754:	df000017 	ldw	fp,0(sp)
   21758:	dec00204 	addi	sp,sp,8
   2175c:	f800283a 	ret

00021760 <_ZN15lmx2694_Handler21Write_Single_RegisterEht>:
   21760:	defffb04 	addi	sp,sp,-20
   21764:	dfc00415 	stw	ra,16(sp)
   21768:	df000315 	stw	fp,12(sp)
   2176c:	df000304 	addi	fp,sp,12
   21770:	e13fff15 	stw	r4,-4(fp)
   21774:	2805883a 	mov	r2,r5
   21778:	3007883a 	mov	r3,r6
   2177c:	e0bffe05 	stb	r2,-8(fp)
   21780:	1805883a 	mov	r2,r3
   21784:	e0bffd0d 	sth	r2,-12(fp)
   21788:	e0bfff17 	ldw	r2,-4(fp)
   2178c:	10c00717 	ldw	r3,28(r2)
   21790:	e0bffe03 	ldbu	r2,-8(fp)
   21794:	1085883a 	add	r2,r2,r2
   21798:	1885883a 	add	r2,r3,r2
   2179c:	1080000b 	ldhu	r2,0(r2)
   217a0:	e0fffd0b 	ldhu	r3,-12(fp)
   217a4:	10bfffcc 	andi	r2,r2,65535
   217a8:	1885003a 	cmpeq	r2,r3,r2
   217ac:	10c03fcc 	andi	r3,r2,255
   217b0:	e0bfff17 	ldw	r2,-4(fp)
   217b4:	10800103 	ldbu	r2,4(r2)
   217b8:	10803fcc 	andi	r2,r2,255
   217bc:	1884703a 	and	r2,r3,r2
   217c0:	1000251e 	bne	r2,zero,21858 <_ZN15lmx2694_Handler21Write_Single_RegisterEht+0xf8>
   217c4:	e0bfff17 	ldw	r2,-4(fp)
   217c8:	10800817 	ldw	r2,32(r2)
   217cc:	000b883a 	mov	r5,zero
   217d0:	1009883a 	mov	r4,r2
   217d4:	00223a40 	call	223a4 <_ZN11SPI_Handler5SetCSEb>
   217d8:	e0bffe03 	ldbu	r2,-8(fp)
   217dc:	e0fffd0b 	ldhu	r3,-12(fp)
   217e0:	180d883a 	mov	r6,r3
   217e4:	100b883a 	mov	r5,r2
   217e8:	e13fff17 	ldw	r4,-4(fp)
   217ec:	00215f40 	call	215f4 <_ZN15lmx2694_Handler16Make_Three_BytesEht>
   217f0:	e0bfff17 	ldw	r2,-4(fp)
   217f4:	10c00817 	ldw	r3,32(r2)
   217f8:	e0bfff17 	ldw	r2,-4(fp)
   217fc:	10800904 	addi	r2,r2,36
   21800:	018000c4 	movi	r6,3
   21804:	100b883a 	mov	r5,r2
   21808:	1809883a 	mov	r4,r3
   2180c:	0021dc80 	call	21dc8 <_ZN11SPI_Handler5WriteEPhm>
   21810:	1007883a 	mov	r3,r2
   21814:	e0bfff17 	ldw	r2,-4(fp)
   21818:	10c00b15 	stw	r3,44(r2)
   2181c:	e0bfff17 	ldw	r2,-4(fp)
   21820:	10800b17 	ldw	r2,44(r2)
   21824:	0080070e 	bge	zero,r2,21844 <_ZN15lmx2694_Handler21Write_Single_RegisterEht+0xe4>
   21828:	e0bfff17 	ldw	r2,-4(fp)
   2182c:	10c00717 	ldw	r3,28(r2)
   21830:	e0bffe03 	ldbu	r2,-8(fp)
   21834:	1085883a 	add	r2,r2,r2
   21838:	1885883a 	add	r2,r3,r2
   2183c:	e0fffd0b 	ldhu	r3,-12(fp)
   21840:	10c0000d 	sth	r3,0(r2)
   21844:	e0bfff17 	ldw	r2,-4(fp)
   21848:	10800817 	ldw	r2,32(r2)
   2184c:	01400044 	movi	r5,1
   21850:	1009883a 	mov	r4,r2
   21854:	00223a40 	call	223a4 <_ZN11SPI_Handler5SetCSEb>
   21858:	e0bfff17 	ldw	r2,-4(fp)
   2185c:	10800b17 	ldw	r2,44(r2)
   21860:	e037883a 	mov	sp,fp
   21864:	dfc00117 	ldw	ra,4(sp)
   21868:	df000017 	ldw	fp,0(sp)
   2186c:	dec00204 	addi	sp,sp,8
   21870:	f800283a 	ret

00021874 <_ZN15lmx2694_Handler20Read_Single_RegisterEh>:
   21874:	defffc04 	addi	sp,sp,-16
   21878:	dfc00315 	stw	ra,12(sp)
   2187c:	df000215 	stw	fp,8(sp)
   21880:	df000204 	addi	fp,sp,8
   21884:	e13fff15 	stw	r4,-4(fp)
   21888:	2805883a 	mov	r2,r5
   2188c:	e0bffe05 	stb	r2,-8(fp)
   21890:	000b883a 	mov	r5,zero
   21894:	e13fff17 	ldw	r4,-4(fp)
   21898:	0021a040 	call	21a04 <_ZN15lmx2694_Handler19Set_MUXOUT_READBACKEb>
   2189c:	e0bfff17 	ldw	r2,-4(fp)
   218a0:	10000c0d 	sth	zero,48(r2)
   218a4:	e0bfff17 	ldw	r2,-4(fp)
   218a8:	10800c0b 	ldhu	r2,48(r2)
   218ac:	10bfffcc 	andi	r2,r2,65535
   218b0:	1005003a 	cmpeq	r2,r2,zero
   218b4:	1009883a 	mov	r4,r2
   218b8:	e0bfff17 	ldw	r2,-4(fp)
   218bc:	10800c0b 	ldhu	r2,48(r2)
   218c0:	10ffffcc 	andi	r3,r2,65535
   218c4:	00bfffd4 	movui	r2,65535
   218c8:	1885003a 	cmpeq	r2,r3,r2
   218cc:	2084b03a 	or	r2,r4,r2
   218d0:	10803fcc 	andi	r2,r2,255
   218d4:	10003926 	beq	r2,zero,219bc <_ZN15lmx2694_Handler20Read_Single_RegisterEh+0x148>
   218d8:	e0bfff17 	ldw	r2,-4(fp)
   218dc:	10800817 	ldw	r2,32(r2)
   218e0:	000b883a 	mov	r5,zero
   218e4:	1009883a 	mov	r4,r2
   218e8:	00223a40 	call	223a4 <_ZN11SPI_Handler5SetCSEb>
   218ec:	e0fffe03 	ldbu	r3,-8(fp)
   218f0:	00bfe004 	movi	r2,-128
   218f4:	1884b03a 	or	r2,r3,r2
   218f8:	1007883a 	mov	r3,r2
   218fc:	e0bfff17 	ldw	r2,-4(fp)
   21900:	10c00c85 	stb	r3,50(r2)
   21904:	e0bfff17 	ldw	r2,-4(fp)
   21908:	108009c4 	addi	r2,r2,39
   2190c:	018000c4 	movi	r6,3
   21910:	000b883a 	mov	r5,zero
   21914:	1009883a 	mov	r4,r2
   21918:	00259d80 	call	259d8 <memset>
   2191c:	e0bfff17 	ldw	r2,-4(fp)
   21920:	10c00817 	ldw	r3,32(r2)
   21924:	e0bfff17 	ldw	r2,-4(fp)
   21928:	10800c84 	addi	r2,r2,50
   2192c:	01800044 	movi	r6,1
   21930:	100b883a 	mov	r5,r2
   21934:	1809883a 	mov	r4,r3
   21938:	0021dc80 	call	21dc8 <_ZN11SPI_Handler5WriteEPhm>
   2193c:	1007883a 	mov	r3,r2
   21940:	e0bfff17 	ldw	r2,-4(fp)
   21944:	10c00b15 	stw	r3,44(r2)
   21948:	e0bfff17 	ldw	r2,-4(fp)
   2194c:	10c00817 	ldw	r3,32(r2)
   21950:	e0bfff17 	ldw	r2,-4(fp)
   21954:	108009c4 	addi	r2,r2,39
   21958:	01800084 	movi	r6,2
   2195c:	100b883a 	mov	r5,r2
   21960:	1809883a 	mov	r4,r3
   21964:	0021e080 	call	21e08 <_ZN11SPI_Handler4ReadEPhm>
   21968:	1007883a 	mov	r3,r2
   2196c:	e0bfff17 	ldw	r2,-4(fp)
   21970:	10c00b15 	stw	r3,44(r2)
   21974:	e0bfff17 	ldw	r2,-4(fp)
   21978:	108009c3 	ldbu	r2,39(r2)
   2197c:	10803fcc 	andi	r2,r2,255
   21980:	1004923a 	slli	r2,r2,8
   21984:	1007883a 	mov	r3,r2
   21988:	e0bfff17 	ldw	r2,-4(fp)
   2198c:	10800a03 	ldbu	r2,40(r2)
   21990:	10803fcc 	andi	r2,r2,255
   21994:	1885883a 	add	r2,r3,r2
   21998:	1007883a 	mov	r3,r2
   2199c:	e0bfff17 	ldw	r2,-4(fp)
   219a0:	10c00c0d 	sth	r3,48(r2)
   219a4:	e0bfff17 	ldw	r2,-4(fp)
   219a8:	10800817 	ldw	r2,32(r2)
   219ac:	01400044 	movi	r5,1
   219b0:	1009883a 	mov	r4,r2
   219b4:	00223a40 	call	223a4 <_ZN11SPI_Handler5SetCSEb>
   219b8:	003fba06 	br	218a4 <_ZN15lmx2694_Handler20Read_Single_RegisterEh+0x30>
   219bc:	e0bfff17 	ldw	r2,-4(fp)
   219c0:	10c00617 	ldw	r3,24(r2)
   219c4:	e0bffe03 	ldbu	r2,-8(fp)
   219c8:	1085883a 	add	r2,r2,r2
   219cc:	1885883a 	add	r2,r3,r2
   219d0:	e0ffff17 	ldw	r3,-4(fp)
   219d4:	18c00c0b 	ldhu	r3,48(r3)
   219d8:	10c0000d 	sth	r3,0(r2)
   219dc:	01400044 	movi	r5,1
   219e0:	e13fff17 	ldw	r4,-4(fp)
   219e4:	0021a040 	call	21a04 <_ZN15lmx2694_Handler19Set_MUXOUT_READBACKEb>
   219e8:	e0bfff17 	ldw	r2,-4(fp)
   219ec:	10800c0b 	ldhu	r2,48(r2)
   219f0:	e037883a 	mov	sp,fp
   219f4:	dfc00117 	ldw	ra,4(sp)
   219f8:	df000017 	ldw	fp,0(sp)
   219fc:	dec00204 	addi	sp,sp,8
   21a00:	f800283a 	ret

00021a04 <_ZN15lmx2694_Handler19Set_MUXOUT_READBACKEb>:
   21a04:	defffc04 	addi	sp,sp,-16
   21a08:	dfc00315 	stw	ra,12(sp)
   21a0c:	df000215 	stw	fp,8(sp)
   21a10:	df000204 	addi	fp,sp,8
   21a14:	e13fff15 	stw	r4,-4(fp)
   21a18:	2805883a 	mov	r2,r5
   21a1c:	e0bffe05 	stb	r2,-8(fp)
   21a20:	e0bffe03 	ldbu	r2,-8(fp)
   21a24:	10000826 	beq	r2,zero,21a48 <_ZN15lmx2694_Handler19Set_MUXOUT_READBACKEb+0x44>
   21a28:	e0bfff17 	ldw	r2,-4(fp)
   21a2c:	10800617 	ldw	r2,24(r2)
   21a30:	1080000b 	ldhu	r2,0(r2)
   21a34:	10800114 	ori	r2,r2,4
   21a38:	1007883a 	mov	r3,r2
   21a3c:	e0bfff17 	ldw	r2,-4(fp)
   21a40:	10c00c0d 	sth	r3,48(r2)
   21a44:	00000806 	br	21a68 <_ZN15lmx2694_Handler19Set_MUXOUT_READBACKEb+0x64>
   21a48:	e0bfff17 	ldw	r2,-4(fp)
   21a4c:	10800617 	ldw	r2,24(r2)
   21a50:	10c0000b 	ldhu	r3,0(r2)
   21a54:	00bffec4 	movi	r2,-5
   21a58:	1884703a 	and	r2,r3,r2
   21a5c:	1007883a 	mov	r3,r2
   21a60:	e0bfff17 	ldw	r2,-4(fp)
   21a64:	10c00c0d 	sth	r3,48(r2)
   21a68:	e0bfff17 	ldw	r2,-4(fp)
   21a6c:	10800c0b 	ldhu	r2,48(r2)
   21a70:	10bfffcc 	andi	r2,r2,65535
   21a74:	100d883a 	mov	r6,r2
   21a78:	000b883a 	mov	r5,zero
   21a7c:	e13fff17 	ldw	r4,-4(fp)
   21a80:	00217600 	call	21760 <_ZN15lmx2694_Handler21Write_Single_RegisterEht>
   21a84:	1007883a 	mov	r3,r2
   21a88:	e0bfff17 	ldw	r2,-4(fp)
   21a8c:	10c00b15 	stw	r3,44(r2)
   21a90:	e0bfff17 	ldw	r2,-4(fp)
   21a94:	10800b17 	ldw	r2,44(r2)
   21a98:	e037883a 	mov	sp,fp
   21a9c:	dfc00117 	ldw	ra,4(sp)
   21aa0:	df000017 	ldw	fp,0(sp)
   21aa4:	dec00204 	addi	sp,sp,8
   21aa8:	f800283a 	ret

00021aac <_ZN15lmx2694_Handler9Self_TestEv>:
   21aac:	defffc04 	addi	sp,sp,-16
   21ab0:	dfc00315 	stw	ra,12(sp)
   21ab4:	df000215 	stw	fp,8(sp)
   21ab8:	df000204 	addi	fp,sp,8
   21abc:	e13ffe15 	stw	r4,-8(fp)
   21ac0:	e0bffe17 	ldw	r2,-8(fp)
   21ac4:	10001705 	stb	zero,92(r2)
   21ac8:	e03fff15 	stw	zero,-4(fp)
   21acc:	e0bffe17 	ldw	r2,-8(fp)
   21ad0:	10801703 	ldbu	r2,92(r2)
   21ad4:	10803fcc 	andi	r2,r2,255
   21ad8:	10803fe0 	cmpeqi	r2,r2,255
   21adc:	10007f1e 	bne	r2,zero,21cdc <_ZN15lmx2694_Handler9Self_TestEv+0x230>
   21ae0:	e13ffe17 	ldw	r4,-8(fp)
   21ae4:	00206740 	call	20674 <_ZN15lmx2694_Handler10Got_LockedEv>
   21ae8:	10803fcc 	andi	r2,r2,255
   21aec:	10005126 	beq	r2,zero,21c34 <_ZN15lmx2694_Handler9Self_TestEv+0x188>
   21af0:	e0bffe17 	ldw	r2,-8(fp)
   21af4:	10801743 	ldbu	r2,93(r2)
   21af8:	10803fcc 	andi	r2,r2,255
   21afc:	10001126 	beq	r2,zero,21b44 <_ZN15lmx2694_Handler9Self_TestEv+0x98>
   21b00:	e0bffe17 	ldw	r2,-8(fp)
   21b04:	10c00517 	ldw	r3,20(r2)
   21b08:	e0bffe17 	ldw	r2,-8(fp)
   21b0c:	11001617 	ldw	r4,88(r2)
   21b10:	200b883a 	mov	r5,r4
   21b14:	1809883a 	mov	r4,r3
   21b18:	0023c7c0 	call	23c7c <__addsf3>
   21b1c:	1007883a 	mov	r3,r2
   21b20:	1805883a 	mov	r2,r3
   21b24:	015162b4 	movhi	r5,17802
   21b28:	29600004 	addi	r5,r5,-32768
   21b2c:	1009883a 	mov	r4,r2
   21b30:	00244cc0 	call	244cc <__gesf2>
   21b34:	0080130e 	bge	zero,r2,21b84 <_ZN15lmx2694_Handler9Self_TestEv+0xd8>
   21b38:	e0bffe17 	ldw	r2,-8(fp)
   21b3c:	10001745 	stb	zero,93(r2)
   21b40:	00001006 	br	21b84 <_ZN15lmx2694_Handler9Self_TestEv+0xd8>
   21b44:	e0bffe17 	ldw	r2,-8(fp)
   21b48:	10c00517 	ldw	r3,20(r2)
   21b4c:	e0bffe17 	ldw	r2,-8(fp)
   21b50:	11001617 	ldw	r4,88(r2)
   21b54:	200b883a 	mov	r5,r4
   21b58:	1809883a 	mov	r4,r3
   21b5c:	0024a4c0 	call	24a4c <__subsf3>
   21b60:	1007883a 	mov	r3,r2
   21b64:	1805883a 	mov	r2,r3
   21b68:	0150f234 	movhi	r5,17352
   21b6c:	1009883a 	mov	r4,r2
   21b70:	00245900 	call	24590 <__lesf2>
   21b74:	1000030e 	bge	r2,zero,21b84 <_ZN15lmx2694_Handler9Self_TestEv+0xd8>
   21b78:	e0bffe17 	ldw	r2,-8(fp)
   21b7c:	00c00044 	movi	r3,1
   21b80:	10c01745 	stb	r3,93(r2)
   21b84:	e0bffe17 	ldw	r2,-8(fp)
   21b88:	10801743 	ldbu	r2,93(r2)
   21b8c:	10803fcc 	andi	r2,r2,255
   21b90:	10000a26 	beq	r2,zero,21bbc <_ZN15lmx2694_Handler9Self_TestEv+0x110>
   21b94:	e0bffe17 	ldw	r2,-8(fp)
   21b98:	10c00517 	ldw	r3,20(r2)
   21b9c:	e0bffe17 	ldw	r2,-8(fp)
   21ba0:	11001617 	ldw	r4,88(r2)
   21ba4:	200b883a 	mov	r5,r4
   21ba8:	1809883a 	mov	r4,r3
   21bac:	0023c7c0 	call	23c7c <__addsf3>
   21bb0:	1007883a 	mov	r3,r2
   21bb4:	1805883a 	mov	r2,r3
   21bb8:	00000906 	br	21be0 <_ZN15lmx2694_Handler9Self_TestEv+0x134>
   21bbc:	e0bffe17 	ldw	r2,-8(fp)
   21bc0:	10c00517 	ldw	r3,20(r2)
   21bc4:	e0bffe17 	ldw	r2,-8(fp)
   21bc8:	11001617 	ldw	r4,88(r2)
   21bcc:	200b883a 	mov	r5,r4
   21bd0:	1809883a 	mov	r4,r3
   21bd4:	0024a4c0 	call	24a4c <__subsf3>
   21bd8:	1007883a 	mov	r3,r2
   21bdc:	1805883a 	mov	r2,r3
   21be0:	e0fffe17 	ldw	r3,-8(fp)
   21be4:	18801215 	stw	r2,72(r3)
   21be8:	e0bffe17 	ldw	r2,-8(fp)
   21bec:	10c01217 	ldw	r3,72(r2)
   21bf0:	180b883a 	mov	r5,r3
   21bf4:	e13ffe17 	ldw	r4,-8(fp)
   21bf8:	0020b400 	call	20b40 <_ZN15lmx2694_Handler20Set_Target_FrequencyEf>
   21bfc:	e0bffe17 	ldw	r2,-8(fp)
   21c00:	10001705 	stb	zero,92(r2)
   21c04:	e03fff15 	stw	zero,-4(fp)
   21c08:	e0bfff17 	ldw	r2,-4(fp)
   21c0c:	1080fa28 	cmpgeui	r2,r2,1000
   21c10:	103fae1e 	bne	r2,zero,21acc <_ZN15lmx2694_Handler9Self_TestEv+0x20>
   21c14:	e13ffe17 	ldw	r4,-8(fp)
   21c18:	00206740 	call	20674 <_ZN15lmx2694_Handler10Got_LockedEv>
   21c1c:	10803fcc 	andi	r2,r2,255
   21c20:	10002a1e 	bne	r2,zero,21ccc <_ZN15lmx2694_Handler9Self_TestEv+0x220>
   21c24:	e0bfff17 	ldw	r2,-4(fp)
   21c28:	10800044 	addi	r2,r2,1
   21c2c:	e0bfff15 	stw	r2,-4(fp)
   21c30:	003ff506 	br	21c08 <_ZN15lmx2694_Handler9Self_TestEv+0x15c>
   21c34:	e0bffe17 	ldw	r2,-8(fp)
   21c38:	10801703 	ldbu	r2,92(r2)
   21c3c:	10800044 	addi	r2,r2,1
   21c40:	1007883a 	mov	r3,r2
   21c44:	e0bffe17 	ldw	r2,-8(fp)
   21c48:	10c01705 	stb	r3,92(r2)
   21c4c:	e0bffe17 	ldw	r2,-8(fp)
   21c50:	10801703 	ldbu	r2,92(r2)
   21c54:	10c03fcc 	andi	r3,r2,255
   21c58:	1805883a 	mov	r2,r3
   21c5c:	100490ba 	slli	r2,r2,2
   21c60:	10c5883a 	add	r2,r2,r3
   21c64:	1085883a 	add	r2,r2,r2
   21c68:	10c01904 	addi	r3,r2,100
   21c6c:	1805883a 	mov	r2,r3
   21c70:	100490ba 	slli	r2,r2,2
   21c74:	10c5883a 	add	r2,r2,r3
   21c78:	1085883a 	add	r2,r2,r2
   21c7c:	1009883a 	mov	r4,r2
   21c80:	00264f00 	call	264f0 <usleep>
   21c84:	e0bffe17 	ldw	r2,-8(fp)
   21c88:	10c00517 	ldw	r3,20(r2)
   21c8c:	180b883a 	mov	r5,r3
   21c90:	e13ffe17 	ldw	r4,-8(fp)
   21c94:	0020b400 	call	20b40 <_ZN15lmx2694_Handler20Set_Target_FrequencyEf>
   21c98:	e03fff15 	stw	zero,-4(fp)
   21c9c:	e0ffff17 	ldw	r3,-4(fp)
   21ca0:	008000b4 	movhi	r2,2
   21ca4:	10a1a7c4 	addi	r2,r2,-31073
   21ca8:	10ff8836 	bltu	r2,r3,21acc <_ZN15lmx2694_Handler9Self_TestEv+0x20>
   21cac:	e13ffe17 	ldw	r4,-8(fp)
   21cb0:	00206740 	call	20674 <_ZN15lmx2694_Handler10Got_LockedEv>
   21cb4:	10803fcc 	andi	r2,r2,255
   21cb8:	1000061e 	bne	r2,zero,21cd4 <_ZN15lmx2694_Handler9Self_TestEv+0x228>
   21cbc:	e0bfff17 	ldw	r2,-4(fp)
   21cc0:	10800044 	addi	r2,r2,1
   21cc4:	e0bfff15 	stw	r2,-4(fp)
   21cc8:	003ff406 	br	21c9c <_ZN15lmx2694_Handler9Self_TestEv+0x1f0>
   21ccc:	0001883a 	nop
   21cd0:	003f7e06 	br	21acc <_ZN15lmx2694_Handler9Self_TestEv+0x20>
   21cd4:	0001883a 	nop
   21cd8:	003f7c06 	br	21acc <_ZN15lmx2694_Handler9Self_TestEv+0x20>
   21cdc:	0005883a 	mov	r2,zero
   21ce0:	e037883a 	mov	sp,fp
   21ce4:	dfc00117 	ldw	ra,4(sp)
   21ce8:	df000017 	ldw	fp,0(sp)
   21cec:	dec00204 	addi	sp,sp,8
   21cf0:	f800283a 	ret

00021cf4 <_Z41__static_initialization_and_destruction_0ii>:
   21cf4:	defffc04 	addi	sp,sp,-16
   21cf8:	dfc00315 	stw	ra,12(sp)
   21cfc:	df000215 	stw	fp,8(sp)
   21d00:	df000204 	addi	fp,sp,8
   21d04:	e13fff15 	stw	r4,-4(fp)
   21d08:	e17ffe15 	stw	r5,-8(fp)
   21d0c:	e0bfff17 	ldw	r2,-4(fp)
   21d10:	10800058 	cmpnei	r2,r2,1
   21d14:	1000061e 	bne	r2,zero,21d30 <_Z41__static_initialization_and_destruction_0ii+0x3c>
   21d18:	e0fffe17 	ldw	r3,-8(fp)
   21d1c:	00bfffd4 	movui	r2,65535
   21d20:	1880031e 	bne	r3,r2,21d30 <_Z41__static_initialization_and_destruction_0ii+0x3c>
   21d24:	010000f4 	movhi	r4,3
   21d28:	21304204 	addi	r4,r4,-16120
   21d2c:	00222300 	call	22230 <_ZN11SPI_HandlerC1Ev>
   21d30:	e0bfff17 	ldw	r2,-4(fp)
   21d34:	1000061e 	bne	r2,zero,21d50 <_Z41__static_initialization_and_destruction_0ii+0x5c>
   21d38:	e0fffe17 	ldw	r3,-8(fp)
   21d3c:	00bfffd4 	movui	r2,65535
   21d40:	1880031e 	bne	r3,r2,21d50 <_Z41__static_initialization_and_destruction_0ii+0x5c>
   21d44:	010000f4 	movhi	r4,3
   21d48:	21304204 	addi	r4,r4,-16120
   21d4c:	002227c0 	call	2227c <_ZN11SPI_HandlerD1Ev>
   21d50:	0001883a 	nop
   21d54:	e037883a 	mov	sp,fp
   21d58:	dfc00117 	ldw	ra,4(sp)
   21d5c:	df000017 	ldw	fp,0(sp)
   21d60:	dec00204 	addi	sp,sp,8
   21d64:	f800283a 	ret

00021d68 <_GLOBAL__sub_I__ZN15lmx2694_HandlerC2Ev>:
   21d68:	defffe04 	addi	sp,sp,-8
   21d6c:	dfc00115 	stw	ra,4(sp)
   21d70:	df000015 	stw	fp,0(sp)
   21d74:	d839883a 	mov	fp,sp
   21d78:	017fffd4 	movui	r5,65535
   21d7c:	01000044 	movi	r4,1
   21d80:	0021cf40 	call	21cf4 <_Z41__static_initialization_and_destruction_0ii>
   21d84:	e037883a 	mov	sp,fp
   21d88:	dfc00117 	ldw	ra,4(sp)
   21d8c:	df000017 	ldw	fp,0(sp)
   21d90:	dec00204 	addi	sp,sp,8
   21d94:	f800283a 	ret

00021d98 <_GLOBAL__sub_D__ZN15lmx2694_HandlerC2Ev>:
   21d98:	defffe04 	addi	sp,sp,-8
   21d9c:	dfc00115 	stw	ra,4(sp)
   21da0:	df000015 	stw	fp,0(sp)
   21da4:	d839883a 	mov	fp,sp
   21da8:	017fffd4 	movui	r5,65535
   21dac:	0009883a 	mov	r4,zero
   21db0:	0021cf40 	call	21cf4 <_Z41__static_initialization_and_destruction_0ii>
   21db4:	e037883a 	mov	sp,fp
   21db8:	dfc00117 	ldw	ra,4(sp)
   21dbc:	df000017 	ldw	fp,0(sp)
   21dc0:	dec00204 	addi	sp,sp,8
   21dc4:	f800283a 	ret

00021dc8 <_ZN11SPI_Handler5WriteEPhm>:
   21dc8:	defffb04 	addi	sp,sp,-20
   21dcc:	dfc00415 	stw	ra,16(sp)
   21dd0:	df000315 	stw	fp,12(sp)
   21dd4:	df000304 	addi	fp,sp,12
   21dd8:	e13fff15 	stw	r4,-4(fp)
   21ddc:	e17ffe15 	stw	r5,-8(fp)
   21de0:	e1bffd15 	stw	r6,-12(fp)
   21de4:	e1bffd17 	ldw	r6,-12(fp)
   21de8:	e17ffe17 	ldw	r5,-8(fp)
   21dec:	e13fff17 	ldw	r4,-4(fp)
   21df0:	00224080 	call	22408 <_ZN11SPI_Handler9WriteDataEPhm>
   21df4:	e037883a 	mov	sp,fp
   21df8:	dfc00117 	ldw	ra,4(sp)
   21dfc:	df000017 	ldw	fp,0(sp)
   21e00:	dec00204 	addi	sp,sp,8
   21e04:	f800283a 	ret

00021e08 <_ZN11SPI_Handler4ReadEPhm>:
   21e08:	defffb04 	addi	sp,sp,-20
   21e0c:	dfc00415 	stw	ra,16(sp)
   21e10:	df000315 	stw	fp,12(sp)
   21e14:	df000304 	addi	fp,sp,12
   21e18:	e13fff15 	stw	r4,-4(fp)
   21e1c:	e17ffe15 	stw	r5,-8(fp)
   21e20:	e1bffd15 	stw	r6,-12(fp)
   21e24:	e1bffd17 	ldw	r6,-12(fp)
   21e28:	e17ffe17 	ldw	r5,-8(fp)
   21e2c:	e13fff17 	ldw	r4,-4(fp)
   21e30:	00227980 	call	22798 <_ZN11SPI_Handler8ReadDataEPhm>
   21e34:	e037883a 	mov	sp,fp
   21e38:	dfc00117 	ldw	ra,4(sp)
   21e3c:	df000017 	ldw	fp,0(sp)
   21e40:	dec00204 	addi	sp,sp,8
   21e44:	f800283a 	ret

00021e48 <_ZSt5floorf>:
   21e48:	defffd04 	addi	sp,sp,-12
   21e4c:	dfc00215 	stw	ra,8(sp)
   21e50:	df000115 	stw	fp,4(sp)
   21e54:	df000104 	addi	fp,sp,4
   21e58:	e13fff15 	stw	r4,-4(fp)
   21e5c:	e13fff17 	ldw	r4,-4(fp)
   21e60:	00238f00 	call	238f0 <floorf>
   21e64:	1007883a 	mov	r3,r2
   21e68:	1805883a 	mov	r2,r3
   21e6c:	e037883a 	mov	sp,fp
   21e70:	dfc00117 	ldw	ra,4(sp)
   21e74:	df000017 	ldw	fp,0(sp)
   21e78:	dec00204 	addi	sp,sp,8
   21e7c:	f800283a 	ret

00021e80 <_ZSt5roundf>:
   21e80:	defffd04 	addi	sp,sp,-12
   21e84:	dfc00215 	stw	ra,8(sp)
   21e88:	df000115 	stw	fp,4(sp)
   21e8c:	df000104 	addi	fp,sp,4
   21e90:	e13fff15 	stw	r4,-4(fp)
   21e94:	e13fff17 	ldw	r4,-4(fp)
   21e98:	00239e40 	call	239e4 <roundf>
   21e9c:	1007883a 	mov	r3,r2
   21ea0:	1805883a 	mov	r2,r3
   21ea4:	e037883a 	mov	sp,fp
   21ea8:	dfc00117 	ldw	ra,4(sp)
   21eac:	df000017 	ldw	fp,0(sp)
   21eb0:	dec00204 	addi	sp,sp,8
   21eb4:	f800283a 	ret

00021eb8 <_ZN18PLL_LOCKED_CAPTUREC1Ev>:
   21eb8:	defffe04 	addi	sp,sp,-8
   21ebc:	df000115 	stw	fp,4(sp)
   21ec0:	df000104 	addi	fp,sp,4
   21ec4:	e13fff15 	stw	r4,-4(fp)
   21ec8:	008000f4 	movhi	r2,3
   21ecc:	10a22b04 	addi	r2,r2,-30548
   21ed0:	e0ffff17 	ldw	r3,-4(fp)
   21ed4:	18800015 	stw	r2,0(r3)
   21ed8:	e0ffff17 	ldw	r3,-4(fp)
   21edc:	00800134 	movhi	r2,4
   21ee0:	10841004 	addi	r2,r2,4160
   21ee4:	18800315 	stw	r2,12(r3)
   21ee8:	e0bfff17 	ldw	r2,-4(fp)
   21eec:	00c00044 	movi	r3,1
   21ef0:	10c00185 	stb	r3,6(r2)
   21ef4:	e0bfff17 	ldw	r2,-4(fp)
   21ef8:	100001c5 	stb	zero,7(r2)
   21efc:	e0bfff17 	ldw	r2,-4(fp)
   21f00:	10000105 	stb	zero,4(r2)
   21f04:	0001883a 	nop
   21f08:	e037883a 	mov	sp,fp
   21f0c:	df000017 	ldw	fp,0(sp)
   21f10:	dec00104 	addi	sp,sp,4
   21f14:	f800283a 	ret

00021f18 <_ZN18PLL_LOCKED_CAPTURED1Ev>:
   21f18:	defffe04 	addi	sp,sp,-8
   21f1c:	df000115 	stw	fp,4(sp)
   21f20:	df000104 	addi	fp,sp,4
   21f24:	e13fff15 	stw	r4,-4(fp)
   21f28:	008000f4 	movhi	r2,3
   21f2c:	10a22b04 	addi	r2,r2,-30548
   21f30:	e0ffff17 	ldw	r3,-4(fp)
   21f34:	18800015 	stw	r2,0(r3)
   21f38:	0001883a 	nop
   21f3c:	e037883a 	mov	sp,fp
   21f40:	df000017 	ldw	fp,0(sp)
   21f44:	dec00104 	addi	sp,sp,4
   21f48:	f800283a 	ret

00021f4c <_ZN18PLL_LOCKED_CAPTURED0Ev>:
   21f4c:	defffd04 	addi	sp,sp,-12
   21f50:	dfc00215 	stw	ra,8(sp)
   21f54:	df000115 	stw	fp,4(sp)
   21f58:	df000104 	addi	fp,sp,4
   21f5c:	e13fff15 	stw	r4,-4(fp)
   21f60:	e13fff17 	ldw	r4,-4(fp)
   21f64:	0021f180 	call	21f18 <_ZN18PLL_LOCKED_CAPTURED1Ev>
   21f68:	01400504 	movi	r5,20
   21f6c:	e13fff17 	ldw	r4,-4(fp)
   21f70:	0022be00 	call	22be0 <_ZdlPvj>
   21f74:	e037883a 	mov	sp,fp
   21f78:	dfc00117 	ldw	ra,4(sp)
   21f7c:	df000017 	ldw	fp,0(sp)
   21f80:	dec00204 	addi	sp,sp,8
   21f84:	f800283a 	ret

00021f88 <_ZL21handle_pll_interruptsPv>:
   21f88:	defffd04 	addi	sp,sp,-12
   21f8c:	df000215 	stw	fp,8(sp)
   21f90:	df000204 	addi	fp,sp,8
   21f94:	e13ffe15 	stw	r4,-8(fp)
   21f98:	e0bffe17 	ldw	r2,-8(fp)
   21f9c:	e0bfff15 	stw	r2,-4(fp)
   21fa0:	00800134 	movhi	r2,4
   21fa4:	10841337 	ldwio	r2,4172(r2)
   21fa8:	1007883a 	mov	r3,r2
   21fac:	e0bfff17 	ldw	r2,-4(fp)
   21fb0:	10c00005 	stb	r3,0(r2)
   21fb4:	0007883a 	mov	r3,zero
   21fb8:	00800134 	movhi	r2,4
   21fbc:	10c41335 	stwio	r3,4172(r2)
   21fc0:	00800134 	movhi	r2,4
   21fc4:	10841337 	ldwio	r2,4172(r2)
   21fc8:	0001883a 	nop
   21fcc:	e037883a 	mov	sp,fp
   21fd0:	df000017 	ldw	fp,0(sp)
   21fd4:	dec00104 	addi	sp,sp,4
   21fd8:	f800283a 	ret

00021fdc <_ZN18PLL_LOCKED_CAPTURE12init_pll_pioEv>:
   21fdc:	defffb04 	addi	sp,sp,-20
   21fe0:	dfc00415 	stw	ra,16(sp)
   21fe4:	df000315 	stw	fp,12(sp)
   21fe8:	df000304 	addi	fp,sp,12
   21fec:	e13ffe15 	stw	r4,-8(fp)
   21ff0:	e0bffe17 	ldw	r2,-8(fp)
   21ff4:	10800404 	addi	r2,r2,16
   21ff8:	e0bfff15 	stw	r2,-4(fp)
   21ffc:	e0bffe17 	ldw	r2,-8(fp)
   22000:	10800317 	ldw	r2,12(r2)
   22004:	10800204 	addi	r2,r2,8
   22008:	1007883a 	mov	r3,r2
   2200c:	00800084 	movi	r2,2
   22010:	18800035 	stwio	r2,0(r3)
   22014:	e0bffe17 	ldw	r2,-8(fp)
   22018:	10800317 	ldw	r2,12(r2)
   2201c:	10800304 	addi	r2,r2,12
   22020:	0007883a 	mov	r3,zero
   22024:	10c00035 	stwio	r3,0(r2)
   22028:	d8000015 	stw	zero,0(sp)
   2202c:	e1ffff17 	ldw	r7,-4(fp)
   22030:	018000b4 	movhi	r6,2
   22034:	3187e204 	addi	r6,r6,8072
   22038:	014000c4 	movi	r5,3
   2203c:	0009883a 	mov	r4,zero
   22040:	0025ff00 	call	25ff0 <alt_ic_isr_register>
   22044:	e0bffe17 	ldw	r2,-8(fp)
   22048:	00c00044 	movi	r3,1
   2204c:	10c001c5 	stb	r3,7(r2)
   22050:	e0bffe17 	ldw	r2,-8(fp)
   22054:	00ffffc4 	movi	r3,-1
   22058:	10c00205 	stb	r3,8(r2)
   2205c:	0001883a 	nop
   22060:	e037883a 	mov	sp,fp
   22064:	dfc00117 	ldw	ra,4(sp)
   22068:	df000017 	ldw	fp,0(sp)
   2206c:	dec00204 	addi	sp,sp,8
   22070:	f800283a 	ret

00022074 <_ZN18PLL_LOCKED_CAPTURE15disable_pll_pioEv>:
   22074:	defffc04 	addi	sp,sp,-16
   22078:	dfc00315 	stw	ra,12(sp)
   2207c:	df000215 	stw	fp,8(sp)
   22080:	df000204 	addi	fp,sp,8
   22084:	e13fff15 	stw	r4,-4(fp)
   22088:	e0bfff17 	ldw	r2,-4(fp)
   2208c:	10800317 	ldw	r2,12(r2)
   22090:	10800204 	addi	r2,r2,8
   22094:	0007883a 	mov	r3,zero
   22098:	10c00035 	stwio	r3,0(r2)
   2209c:	d8000015 	stw	zero,0(sp)
   220a0:	000f883a 	mov	r7,zero
   220a4:	000d883a 	mov	r6,zero
   220a8:	014000c4 	movi	r5,3
   220ac:	0009883a 	mov	r4,zero
   220b0:	0025ff00 	call	25ff0 <alt_ic_isr_register>
   220b4:	e0bfff17 	ldw	r2,-4(fp)
   220b8:	100001c5 	stb	zero,7(r2)
   220bc:	0001883a 	nop
   220c0:	e037883a 	mov	sp,fp
   220c4:	dfc00117 	ldw	ra,4(sp)
   220c8:	df000017 	ldw	fp,0(sp)
   220cc:	dec00204 	addi	sp,sp,8
   220d0:	f800283a 	ret

000220d4 <_ZN18PLL_LOCKED_CAPTURE9Is_LockedEv>:
   220d4:	defffd04 	addi	sp,sp,-12
   220d8:	dfc00215 	stw	ra,8(sp)
   220dc:	df000115 	stw	fp,4(sp)
   220e0:	df000104 	addi	fp,sp,4
   220e4:	e13fff15 	stw	r4,-4(fp)
   220e8:	e0bfff17 	ldw	r2,-4(fp)
   220ec:	10800317 	ldw	r2,12(r2)
   220f0:	10800037 	ldwio	r2,0(r2)
   220f4:	1080004c 	andi	r2,r2,1
   220f8:	0084803a 	cmplt	r2,zero,r2
   220fc:	1007883a 	mov	r3,r2
   22100:	e0bfff17 	ldw	r2,-4(fp)
   22104:	10c00185 	stb	r3,6(r2)
   22108:	e0bfff17 	ldw	r2,-4(fp)
   2210c:	10800183 	ldbu	r2,6(r2)
   22110:	10803fcc 	andi	r2,r2,255
   22114:	10000a1e 	bne	r2,zero,22140 <_ZN18PLL_LOCKED_CAPTURE9Is_LockedEv+0x6c>
   22118:	01000284 	movi	r4,10
   2211c:	00264f00 	call	264f0 <usleep>
   22120:	e0bfff17 	ldw	r2,-4(fp)
   22124:	10800317 	ldw	r2,12(r2)
   22128:	10800037 	ldwio	r2,0(r2)
   2212c:	1080004c 	andi	r2,r2,1
   22130:	0084803a 	cmplt	r2,zero,r2
   22134:	1007883a 	mov	r3,r2
   22138:	e0bfff17 	ldw	r2,-4(fp)
   2213c:	10c00185 	stb	r3,6(r2)
   22140:	e0bfff17 	ldw	r2,-4(fp)
   22144:	10800183 	ldbu	r2,6(r2)
   22148:	10803fcc 	andi	r2,r2,255
   2214c:	10000626 	beq	r2,zero,22168 <_ZN18PLL_LOCKED_CAPTURE9Is_LockedEv+0x94>
   22150:	e0bfff17 	ldw	r2,-4(fp)
   22154:	108001c3 	ldbu	r2,7(r2)
   22158:	10803fcc 	andi	r2,r2,255
   2215c:	10000226 	beq	r2,zero,22168 <_ZN18PLL_LOCKED_CAPTURE9Is_LockedEv+0x94>
   22160:	e13fff17 	ldw	r4,-4(fp)
   22164:	00220740 	call	22074 <_ZN18PLL_LOCKED_CAPTURE15disable_pll_pioEv>
   22168:	e0bfff17 	ldw	r2,-4(fp)
   2216c:	10c00183 	ldbu	r3,6(r2)
   22170:	e0bfff17 	ldw	r2,-4(fp)
   22174:	10c00105 	stb	r3,4(r2)
   22178:	e0bfff17 	ldw	r2,-4(fp)
   2217c:	10800103 	ldbu	r2,4(r2)
   22180:	e037883a 	mov	sp,fp
   22184:	dfc00117 	ldw	ra,4(sp)
   22188:	df000017 	ldw	fp,0(sp)
   2218c:	dec00204 	addi	sp,sp,8
   22190:	f800283a 	ret

00022194 <_ZN18PLL_LOCKED_CAPTURE17Capture_InterruptEv>:
   22194:	defffd04 	addi	sp,sp,-12
   22198:	dfc00215 	stw	ra,8(sp)
   2219c:	df000115 	stw	fp,4(sp)
   221a0:	df000104 	addi	fp,sp,4
   221a4:	e13fff15 	stw	r4,-4(fp)
   221a8:	e0bfff17 	ldw	r2,-4(fp)
   221ac:	10c00203 	ldbu	r3,8(r2)
   221b0:	e0bfff17 	ldw	r2,-4(fp)
   221b4:	10800403 	ldbu	r2,16(r2)
   221b8:	18c03fcc 	andi	r3,r3,255
   221bc:	10803fcc 	andi	r2,r2,255
   221c0:	1885003a 	cmpeq	r2,r3,r2
   221c4:	10803fcc 	andi	r2,r2,255
   221c8:	1000121e 	bne	r2,zero,22214 <_ZN18PLL_LOCKED_CAPTURE17Capture_InterruptEv+0x80>
   221cc:	e0bfff17 	ldw	r2,-4(fp)
   221d0:	10c00403 	ldbu	r3,16(r2)
   221d4:	e0bfff17 	ldw	r2,-4(fp)
   221d8:	10c00205 	stb	r3,8(r2)
   221dc:	e0bfff17 	ldw	r2,-4(fp)
   221e0:	10800403 	ldbu	r2,16(r2)
   221e4:	10803fcc 	andi	r2,r2,255
   221e8:	1080004c 	andi	r2,r2,1
   221ec:	0084803a 	cmplt	r2,zero,r2
   221f0:	1007883a 	mov	r3,r2
   221f4:	e0bfff17 	ldw	r2,-4(fp)
   221f8:	10c00105 	stb	r3,4(r2)
   221fc:	e0bfff17 	ldw	r2,-4(fp)
   22200:	10800103 	ldbu	r2,4(r2)
   22204:	10803fcc 	andi	r2,r2,255
   22208:	10000226 	beq	r2,zero,22214 <_ZN18PLL_LOCKED_CAPTURE17Capture_InterruptEv+0x80>
   2220c:	e13fff17 	ldw	r4,-4(fp)
   22210:	00220740 	call	22074 <_ZN18PLL_LOCKED_CAPTURE15disable_pll_pioEv>
   22214:	e0bfff17 	ldw	r2,-4(fp)
   22218:	10800103 	ldbu	r2,4(r2)
   2221c:	e037883a 	mov	sp,fp
   22220:	dfc00117 	ldw	ra,4(sp)
   22224:	df000017 	ldw	fp,0(sp)
   22228:	dec00204 	addi	sp,sp,8
   2222c:	f800283a 	ret

00022230 <_ZN11SPI_HandlerC1Ev>:
   22230:	defffe04 	addi	sp,sp,-8
   22234:	df000115 	stw	fp,4(sp)
   22238:	df000104 	addi	fp,sp,4
   2223c:	e13fff15 	stw	r4,-4(fp)
   22240:	008000f4 	movhi	r2,3
   22244:	10a23504 	addi	r2,r2,-30508
   22248:	e0ffff17 	ldw	r3,-4(fp)
   2224c:	18800015 	stw	r2,0(r3)
   22250:	e0bfff17 	ldw	r2,-4(fp)
   22254:	10000115 	stw	zero,4(r2)
   22258:	e0bfff17 	ldw	r2,-4(fp)
   2225c:	10000315 	stw	zero,12(r2)
   22260:	e0bfff17 	ldw	r2,-4(fp)
   22264:	10000215 	stw	zero,8(r2)
   22268:	0001883a 	nop
   2226c:	e037883a 	mov	sp,fp
   22270:	df000017 	ldw	fp,0(sp)
   22274:	dec00104 	addi	sp,sp,4
   22278:	f800283a 	ret

0002227c <_ZN11SPI_HandlerD1Ev>:
   2227c:	defffe04 	addi	sp,sp,-8
   22280:	df000115 	stw	fp,4(sp)
   22284:	df000104 	addi	fp,sp,4
   22288:	e13fff15 	stw	r4,-4(fp)
   2228c:	008000f4 	movhi	r2,3
   22290:	10a23504 	addi	r2,r2,-30508
   22294:	e0ffff17 	ldw	r3,-4(fp)
   22298:	18800015 	stw	r2,0(r3)
   2229c:	0001883a 	nop
   222a0:	e037883a 	mov	sp,fp
   222a4:	df000017 	ldw	fp,0(sp)
   222a8:	dec00104 	addi	sp,sp,4
   222ac:	f800283a 	ret

000222b0 <_ZN11SPI_HandlerD0Ev>:
   222b0:	defffd04 	addi	sp,sp,-12
   222b4:	dfc00215 	stw	ra,8(sp)
   222b8:	df000115 	stw	fp,4(sp)
   222bc:	df000104 	addi	fp,sp,4
   222c0:	e13fff15 	stw	r4,-4(fp)
   222c4:	e13fff17 	ldw	r4,-4(fp)
   222c8:	002227c0 	call	2227c <_ZN11SPI_HandlerD1Ev>
   222cc:	01401404 	movi	r5,80
   222d0:	e13fff17 	ldw	r4,-4(fp)
   222d4:	0022be00 	call	22be0 <_ZdlPvj>
   222d8:	e037883a 	mov	sp,fp
   222dc:	dfc00117 	ldw	ra,4(sp)
   222e0:	df000017 	ldw	fp,0(sp)
   222e4:	dec00204 	addi	sp,sp,8
   222e8:	f800283a 	ret

000222ec <_ZN11SPI_Handler4InitEmm>:
   222ec:	defffc04 	addi	sp,sp,-16
   222f0:	df000315 	stw	fp,12(sp)
   222f4:	df000304 	addi	fp,sp,12
   222f8:	e13fff15 	stw	r4,-4(fp)
   222fc:	e17ffe15 	stw	r5,-8(fp)
   22300:	e1bffd15 	stw	r6,-12(fp)
   22304:	e0bfff17 	ldw	r2,-4(fp)
   22308:	e0fffd17 	ldw	r3,-12(fp)
   2230c:	10c00215 	stw	r3,8(r2)
   22310:	e0bfff17 	ldw	r2,-4(fp)
   22314:	e0fffe17 	ldw	r3,-8(fp)
   22318:	10c00115 	stw	r3,4(r2)
   2231c:	00800044 	movi	r2,1
   22320:	e037883a 	mov	sp,fp
   22324:	df000017 	ldw	fp,0(sp)
   22328:	dec00104 	addi	sp,sp,4
   2232c:	f800283a 	ret

00022330 <_ZN11SPI_Handler4OpenEv>:
   22330:	defffe04 	addi	sp,sp,-8
   22334:	df000115 	stw	fp,4(sp)
   22338:	df000104 	addi	fp,sp,4
   2233c:	e13fff15 	stw	r4,-4(fp)
   22340:	e0bfff17 	ldw	r2,-4(fp)
   22344:	10800117 	ldw	r2,4(r2)
   22348:	10800304 	addi	r2,r2,12
   2234c:	1007883a 	mov	r3,r2
   22350:	00810004 	movi	r2,1024
   22354:	18800035 	stwio	r2,0(r3)
   22358:	0001883a 	nop
   2235c:	e037883a 	mov	sp,fp
   22360:	df000017 	ldw	fp,0(sp)
   22364:	dec00104 	addi	sp,sp,4
   22368:	f800283a 	ret

0002236c <_ZN11SPI_Handler5CloseEv>:
   2236c:	defffe04 	addi	sp,sp,-8
   22370:	df000115 	stw	fp,4(sp)
   22374:	df000104 	addi	fp,sp,4
   22378:	e13fff15 	stw	r4,-4(fp)
   2237c:	e0bfff17 	ldw	r2,-4(fp)
   22380:	10800117 	ldw	r2,4(r2)
   22384:	10800304 	addi	r2,r2,12
   22388:	0007883a 	mov	r3,zero
   2238c:	10c00035 	stwio	r3,0(r2)
   22390:	0001883a 	nop
   22394:	e037883a 	mov	sp,fp
   22398:	df000017 	ldw	fp,0(sp)
   2239c:	dec00104 	addi	sp,sp,4
   223a0:	f800283a 	ret

000223a4 <_ZN11SPI_Handler5SetCSEb>:
   223a4:	defffd04 	addi	sp,sp,-12
   223a8:	df000215 	stw	fp,8(sp)
   223ac:	df000204 	addi	fp,sp,8
   223b0:	e13fff15 	stw	r4,-4(fp)
   223b4:	2805883a 	mov	r2,r5
   223b8:	e0bffe05 	stb	r2,-8(fp)
   223bc:	e0bffe03 	ldbu	r2,-8(fp)
   223c0:	10000626 	beq	r2,zero,223dc <_ZN11SPI_Handler5SetCSEb+0x38>
   223c4:	e0bfff17 	ldw	r2,-4(fp)
   223c8:	10800117 	ldw	r2,4(r2)
   223cc:	10800304 	addi	r2,r2,12
   223d0:	0007883a 	mov	r3,zero
   223d4:	10c00035 	stwio	r3,0(r2)
   223d8:	00000606 	br	223f4 <_ZN11SPI_Handler5SetCSEb+0x50>
   223dc:	e0bfff17 	ldw	r2,-4(fp)
   223e0:	10800117 	ldw	r2,4(r2)
   223e4:	10800304 	addi	r2,r2,12
   223e8:	1007883a 	mov	r3,r2
   223ec:	00810004 	movi	r2,1024
   223f0:	18800035 	stwio	r2,0(r3)
   223f4:	0001883a 	nop
   223f8:	e037883a 	mov	sp,fp
   223fc:	df000017 	ldw	fp,0(sp)
   22400:	dec00104 	addi	sp,sp,4
   22404:	f800283a 	ret

00022408 <_ZN11SPI_Handler9WriteDataEPhm>:
   22408:	defff704 	addi	sp,sp,-36
   2240c:	df000815 	stw	fp,32(sp)
   22410:	df000804 	addi	fp,sp,32
   22414:	e13ffa15 	stw	r4,-24(fp)
   22418:	e17ff915 	stw	r5,-28(fp)
   2241c:	e1bff815 	stw	r6,-32(fp)
   22420:	e0fff917 	ldw	r3,-28(fp)
   22424:	e0bff817 	ldw	r2,-32(fp)
   22428:	1885883a 	add	r2,r3,r2
   2242c:	e0bffd15 	stw	r2,-12(fp)
   22430:	e0bffa17 	ldw	r2,-24(fp)
   22434:	10800404 	addi	r2,r2,16
   22438:	e0bffc15 	stw	r2,-16(fp)
   2243c:	e0bff817 	ldw	r2,-32(fp)
   22440:	e0bfff15 	stw	r2,-4(fp)
   22444:	00800044 	movi	r2,1
   22448:	e0bffe15 	stw	r2,-8(fp)
   2244c:	e0bffa17 	ldw	r2,-24(fp)
   22450:	10800117 	ldw	r2,4(r2)
   22454:	10800504 	addi	r2,r2,20
   22458:	1009883a 	mov	r4,r2
   2245c:	e0bffa17 	ldw	r2,-24(fp)
   22460:	10800217 	ldw	r2,8(r2)
   22464:	00c00044 	movi	r3,1
   22468:	1884983a 	sll	r2,r3,r2
   2246c:	20800035 	stwio	r2,0(r4)
   22470:	e0bffa17 	ldw	r2,-24(fp)
   22474:	10800117 	ldw	r2,4(r2)
   22478:	10800037 	ldwio	r2,0(r2)
   2247c:	e0bffa17 	ldw	r2,-24(fp)
   22480:	10800117 	ldw	r2,4(r2)
   22484:	10800204 	addi	r2,r2,8
   22488:	10800037 	ldwio	r2,0(r2)
   2248c:	e0bffb15 	stw	r2,-20(fp)
   22490:	e0bffb17 	ldw	r2,-20(fp)
   22494:	1080100c 	andi	r2,r2,64
   22498:	10000226 	beq	r2,zero,224a4 <_ZN11SPI_Handler9WriteDataEPhm+0x9c>
   2249c:	e0bffe17 	ldw	r2,-8(fp)
   224a0:	1000041e 	bne	r2,zero,224b4 <_ZN11SPI_Handler9WriteDataEPhm+0xac>
   224a4:	e0bffb17 	ldw	r2,-20(fp)
   224a8:	1080200c 	andi	r2,r2,128
   224ac:	1000011e 	bne	r2,zero,224b4 <_ZN11SPI_Handler9WriteDataEPhm+0xac>
   224b0:	003ff206 	br	2247c <_ZN11SPI_Handler9WriteDataEPhm+0x74>
   224b4:	e0bffb17 	ldw	r2,-20(fp)
   224b8:	1080100c 	andi	r2,r2,64
   224bc:	10001526 	beq	r2,zero,22514 <_ZN11SPI_Handler9WriteDataEPhm+0x10c>
   224c0:	e0bffe17 	ldw	r2,-8(fp)
   224c4:	0080130e 	bge	zero,r2,22514 <_ZN11SPI_Handler9WriteDataEPhm+0x10c>
   224c8:	e0bffe17 	ldw	r2,-8(fp)
   224cc:	10bfffc4 	addi	r2,r2,-1
   224d0:	e0bffe15 	stw	r2,-8(fp)
   224d4:	e0fff917 	ldw	r3,-28(fp)
   224d8:	e0bffd17 	ldw	r2,-12(fp)
   224dc:	18800b2e 	bgeu	r3,r2,2250c <_ZN11SPI_Handler9WriteDataEPhm+0x104>
   224e0:	e0bffa17 	ldw	r2,-24(fp)
   224e4:	10800117 	ldw	r2,4(r2)
   224e8:	10800104 	addi	r2,r2,4
   224ec:	1009883a 	mov	r4,r2
   224f0:	e0bff917 	ldw	r2,-28(fp)
   224f4:	10c00044 	addi	r3,r2,1
   224f8:	e0fff915 	stw	r3,-28(fp)
   224fc:	10800003 	ldbu	r2,0(r2)
   22500:	10803fcc 	andi	r2,r2,255
   22504:	20800035 	stwio	r2,0(r4)
   22508:	00000206 	br	22514 <_ZN11SPI_Handler9WriteDataEPhm+0x10c>
   2250c:	00bf0004 	movi	r2,-1024
   22510:	e0bffe15 	stw	r2,-8(fp)
   22514:	e0bffb17 	ldw	r2,-20(fp)
   22518:	1080200c 	andi	r2,r2,128
   2251c:	103fd726 	beq	r2,zero,2247c <_ZN11SPI_Handler9WriteDataEPhm+0x74>
   22520:	e0bfff17 	ldw	r2,-4(fp)
   22524:	10000326 	beq	r2,zero,22534 <_ZN11SPI_Handler9WriteDataEPhm+0x12c>
   22528:	e0bfff17 	ldw	r2,-4(fp)
   2252c:	10bfffc4 	addi	r2,r2,-1
   22530:	e0bfff15 	stw	r2,-4(fp)
   22534:	e0bffe17 	ldw	r2,-8(fp)
   22538:	10800044 	addi	r2,r2,1
   2253c:	e0bffe15 	stw	r2,-8(fp)
   22540:	e0bfff17 	ldw	r2,-4(fp)
   22544:	103fcd1e 	bne	r2,zero,2247c <_ZN11SPI_Handler9WriteDataEPhm+0x74>
   22548:	e0bffa17 	ldw	r2,-24(fp)
   2254c:	10800404 	addi	r2,r2,16
   22550:	e0fffc17 	ldw	r3,-16(fp)
   22554:	18bfc91e 	bne	r3,r2,2247c <_ZN11SPI_Handler9WriteDataEPhm+0x74>
   22558:	e0bffa17 	ldw	r2,-24(fp)
   2255c:	10800117 	ldw	r2,4(r2)
   22560:	10800204 	addi	r2,r2,8
   22564:	10800037 	ldwio	r2,0(r2)
   22568:	e0bffb15 	stw	r2,-20(fp)
   2256c:	e0bffb17 	ldw	r2,-20(fp)
   22570:	1080080c 	andi	r2,r2,32
   22574:	1000011e 	bne	r2,zero,2257c <_ZN11SPI_Handler9WriteDataEPhm+0x174>
   22578:	003ff706 	br	22558 <_ZN11SPI_Handler9WriteDataEPhm+0x150>
   2257c:	e0bff817 	ldw	r2,-32(fp)
   22580:	e037883a 	mov	sp,fp
   22584:	df000017 	ldw	fp,0(sp)
   22588:	dec00104 	addi	sp,sp,4
   2258c:	f800283a 	ret

00022590 <_ZN11SPI_Handler12TransferDataEPhm>:
   22590:	defff804 	addi	sp,sp,-32
   22594:	dfc00715 	stw	ra,28(sp)
   22598:	df000615 	stw	fp,24(sp)
   2259c:	df000604 	addi	fp,sp,24
   225a0:	e13fff15 	stw	r4,-4(fp)
   225a4:	e17ffe15 	stw	r5,-8(fp)
   225a8:	e1bffd15 	stw	r6,-12(fp)
   225ac:	e0bfff17 	ldw	r2,-4(fp)
   225b0:	11000117 	ldw	r4,4(r2)
   225b4:	e0bfff17 	ldw	r2,-4(fp)
   225b8:	11400217 	ldw	r5,8(r2)
   225bc:	e0bfff17 	ldw	r2,-4(fp)
   225c0:	10800404 	addi	r2,r2,16
   225c4:	00c00044 	movi	r3,1
   225c8:	d8c00215 	stw	r3,8(sp)
   225cc:	d8800115 	stw	r2,4(sp)
   225d0:	e0bffd17 	ldw	r2,-12(fp)
   225d4:	d8800015 	stw	r2,0(sp)
   225d8:	e1fffe17 	ldw	r7,-8(fp)
   225dc:	e1bffd17 	ldw	r6,-12(fp)
   225e0:	00270680 	call	27068 <alt_avalon_spi_command>
   225e4:	1007883a 	mov	r3,r2
   225e8:	e0bfff17 	ldw	r2,-4(fp)
   225ec:	10c00315 	stw	r3,12(r2)
   225f0:	e0bfff17 	ldw	r2,-4(fp)
   225f4:	10800317 	ldw	r2,12(r2)
   225f8:	e037883a 	mov	sp,fp
   225fc:	dfc00117 	ldw	ra,4(sp)
   22600:	df000017 	ldw	fp,0(sp)
   22604:	dec00204 	addi	sp,sp,8
   22608:	f800283a 	ret

0002260c <_ZN11SPI_Handler12TransferDataEPhS0_m>:
   2260c:	defff704 	addi	sp,sp,-36
   22610:	dfc00815 	stw	ra,32(sp)
   22614:	df000715 	stw	fp,28(sp)
   22618:	df000704 	addi	fp,sp,28
   2261c:	e13fff15 	stw	r4,-4(fp)
   22620:	e17ffe15 	stw	r5,-8(fp)
   22624:	e1bffd15 	stw	r6,-12(fp)
   22628:	e1fffc15 	stw	r7,-16(fp)
   2262c:	e0bfff17 	ldw	r2,-4(fp)
   22630:	10c00117 	ldw	r3,4(r2)
   22634:	e0bfff17 	ldw	r2,-4(fp)
   22638:	11000217 	ldw	r4,8(r2)
   2263c:	00800044 	movi	r2,1
   22640:	d8800215 	stw	r2,8(sp)
   22644:	e0bffd17 	ldw	r2,-12(fp)
   22648:	d8800115 	stw	r2,4(sp)
   2264c:	e0bffc17 	ldw	r2,-16(fp)
   22650:	d8800015 	stw	r2,0(sp)
   22654:	e1fffe17 	ldw	r7,-8(fp)
   22658:	e1bffc17 	ldw	r6,-16(fp)
   2265c:	200b883a 	mov	r5,r4
   22660:	1809883a 	mov	r4,r3
   22664:	00270680 	call	27068 <alt_avalon_spi_command>
   22668:	1007883a 	mov	r3,r2
   2266c:	e0bfff17 	ldw	r2,-4(fp)
   22670:	10c00315 	stw	r3,12(r2)
   22674:	e0bfff17 	ldw	r2,-4(fp)
   22678:	10800317 	ldw	r2,12(r2)
   2267c:	e037883a 	mov	sp,fp
   22680:	dfc00117 	ldw	ra,4(sp)
   22684:	df000017 	ldw	fp,0(sp)
   22688:	dec00204 	addi	sp,sp,8
   2268c:	f800283a 	ret

00022690 <_ZN11SPI_Handler12TransferDataEPhmS0_m>:
   22690:	defff704 	addi	sp,sp,-36
   22694:	dfc00815 	stw	ra,32(sp)
   22698:	df000715 	stw	fp,28(sp)
   2269c:	df000704 	addi	fp,sp,28
   226a0:	e13fff15 	stw	r4,-4(fp)
   226a4:	e17ffe15 	stw	r5,-8(fp)
   226a8:	e1bffd15 	stw	r6,-12(fp)
   226ac:	e1fffc15 	stw	r7,-16(fp)
   226b0:	e0bfff17 	ldw	r2,-4(fp)
   226b4:	10c00117 	ldw	r3,4(r2)
   226b8:	e0bfff17 	ldw	r2,-4(fp)
   226bc:	11000217 	ldw	r4,8(r2)
   226c0:	00800044 	movi	r2,1
   226c4:	d8800215 	stw	r2,8(sp)
   226c8:	e0bffc17 	ldw	r2,-16(fp)
   226cc:	d8800115 	stw	r2,4(sp)
   226d0:	e0800217 	ldw	r2,8(fp)
   226d4:	d8800015 	stw	r2,0(sp)
   226d8:	e1fffe17 	ldw	r7,-8(fp)
   226dc:	e1bffd17 	ldw	r6,-12(fp)
   226e0:	200b883a 	mov	r5,r4
   226e4:	1809883a 	mov	r4,r3
   226e8:	00270680 	call	27068 <alt_avalon_spi_command>
   226ec:	1007883a 	mov	r3,r2
   226f0:	e0bfff17 	ldw	r2,-4(fp)
   226f4:	10c00315 	stw	r3,12(r2)
   226f8:	e0bfff17 	ldw	r2,-4(fp)
   226fc:	10800317 	ldw	r2,12(r2)
   22700:	e037883a 	mov	sp,fp
   22704:	dfc00117 	ldw	ra,4(sp)
   22708:	df000017 	ldw	fp,0(sp)
   2270c:	dec00204 	addi	sp,sp,8
   22710:	f800283a 	ret

00022714 <_ZN11SPI_Handler8ReadDataEPhS0_m>:
   22714:	defff704 	addi	sp,sp,-36
   22718:	dfc00815 	stw	ra,32(sp)
   2271c:	df000715 	stw	fp,28(sp)
   22720:	df000704 	addi	fp,sp,28
   22724:	e13fff15 	stw	r4,-4(fp)
   22728:	e17ffe15 	stw	r5,-8(fp)
   2272c:	e1bffd15 	stw	r6,-12(fp)
   22730:	e1fffc15 	stw	r7,-16(fp)
   22734:	e0bfff17 	ldw	r2,-4(fp)
   22738:	10c00117 	ldw	r3,4(r2)
   2273c:	e0bfff17 	ldw	r2,-4(fp)
   22740:	11000217 	ldw	r4,8(r2)
   22744:	00800044 	movi	r2,1
   22748:	d8800215 	stw	r2,8(sp)
   2274c:	e0bffd17 	ldw	r2,-12(fp)
   22750:	d8800115 	stw	r2,4(sp)
   22754:	e0bffc17 	ldw	r2,-16(fp)
   22758:	d8800015 	stw	r2,0(sp)
   2275c:	e1fffe17 	ldw	r7,-8(fp)
   22760:	01800044 	movi	r6,1
   22764:	200b883a 	mov	r5,r4
   22768:	1809883a 	mov	r4,r3
   2276c:	00270680 	call	27068 <alt_avalon_spi_command>
   22770:	1007883a 	mov	r3,r2
   22774:	e0bfff17 	ldw	r2,-4(fp)
   22778:	10c00315 	stw	r3,12(r2)
   2277c:	e0bfff17 	ldw	r2,-4(fp)
   22780:	10800317 	ldw	r2,12(r2)
   22784:	e037883a 	mov	sp,fp
   22788:	dfc00117 	ldw	ra,4(sp)
   2278c:	df000017 	ldw	fp,0(sp)
   22790:	dec00204 	addi	sp,sp,8
   22794:	f800283a 	ret

00022798 <_ZN11SPI_Handler8ReadDataEPhm>:
   22798:	defff604 	addi	sp,sp,-40
   2279c:	df000915 	stw	fp,36(sp)
   227a0:	df000904 	addi	fp,sp,36
   227a4:	e13ff915 	stw	r4,-28(fp)
   227a8:	e17ff815 	stw	r5,-32(fp)
   227ac:	e1bff715 	stw	r6,-36(fp)
   227b0:	e0fff817 	ldw	r3,-32(fp)
   227b4:	e0bff717 	ldw	r2,-36(fp)
   227b8:	1885883a 	add	r2,r3,r2
   227bc:	e0bffc15 	stw	r2,-16(fp)
   227c0:	e0bff717 	ldw	r2,-36(fp)
   227c4:	e0bfff15 	stw	r2,-4(fp)
   227c8:	e03ffe15 	stw	zero,-8(fp)
   227cc:	00800044 	movi	r2,1
   227d0:	e0bffd15 	stw	r2,-12(fp)
   227d4:	e0bff917 	ldw	r2,-28(fp)
   227d8:	10800117 	ldw	r2,4(r2)
   227dc:	10800504 	addi	r2,r2,20
   227e0:	1009883a 	mov	r4,r2
   227e4:	e0bff917 	ldw	r2,-28(fp)
   227e8:	10800217 	ldw	r2,8(r2)
   227ec:	00c00044 	movi	r3,1
   227f0:	1884983a 	sll	r2,r3,r2
   227f4:	20800035 	stwio	r2,0(r4)
   227f8:	e0bff917 	ldw	r2,-28(fp)
   227fc:	10800117 	ldw	r2,4(r2)
   22800:	10800037 	ldwio	r2,0(r2)
   22804:	e0bff917 	ldw	r2,-28(fp)
   22808:	10800117 	ldw	r2,4(r2)
   2280c:	10800204 	addi	r2,r2,8
   22810:	10800037 	ldwio	r2,0(r2)
   22814:	e0bffb15 	stw	r2,-20(fp)
   22818:	e0bffb17 	ldw	r2,-20(fp)
   2281c:	1080100c 	andi	r2,r2,64
   22820:	10000226 	beq	r2,zero,2282c <_ZN11SPI_Handler8ReadDataEPhm+0x94>
   22824:	e0bffd17 	ldw	r2,-12(fp)
   22828:	1000041e 	bne	r2,zero,2283c <_ZN11SPI_Handler8ReadDataEPhm+0xa4>
   2282c:	e0bffb17 	ldw	r2,-20(fp)
   22830:	1080200c 	andi	r2,r2,128
   22834:	1000011e 	bne	r2,zero,2283c <_ZN11SPI_Handler8ReadDataEPhm+0xa4>
   22838:	003ff206 	br	22804 <_ZN11SPI_Handler8ReadDataEPhm+0x6c>
   2283c:	e0bffb17 	ldw	r2,-20(fp)
   22840:	1080100c 	andi	r2,r2,64
   22844:	10001226 	beq	r2,zero,22890 <_ZN11SPI_Handler8ReadDataEPhm+0xf8>
   22848:	e0bffd17 	ldw	r2,-12(fp)
   2284c:	0080100e 	bge	zero,r2,22890 <_ZN11SPI_Handler8ReadDataEPhm+0xf8>
   22850:	e0bffd17 	ldw	r2,-12(fp)
   22854:	10bfffc4 	addi	r2,r2,-1
   22858:	e0bffd15 	stw	r2,-12(fp)
   2285c:	e0bfff17 	ldw	r2,-4(fp)
   22860:	10000926 	beq	r2,zero,22888 <_ZN11SPI_Handler8ReadDataEPhm+0xf0>
   22864:	e0bfff17 	ldw	r2,-4(fp)
   22868:	10bfffc4 	addi	r2,r2,-1
   2286c:	e0bfff15 	stw	r2,-4(fp)
   22870:	e0bff917 	ldw	r2,-28(fp)
   22874:	10800117 	ldw	r2,4(r2)
   22878:	10800104 	addi	r2,r2,4
   2287c:	0007883a 	mov	r3,zero
   22880:	10c00035 	stwio	r3,0(r2)
   22884:	00000206 	br	22890 <_ZN11SPI_Handler8ReadDataEPhm+0xf8>
   22888:	00bf0004 	movi	r2,-1024
   2288c:	e0bffd15 	stw	r2,-12(fp)
   22890:	e0bffb17 	ldw	r2,-20(fp)
   22894:	1080200c 	andi	r2,r2,128
   22898:	103fda26 	beq	r2,zero,22804 <_ZN11SPI_Handler8ReadDataEPhm+0x6c>
   2289c:	e0bff917 	ldw	r2,-28(fp)
   228a0:	10800117 	ldw	r2,4(r2)
   228a4:	10800037 	ldwio	r2,0(r2)
   228a8:	e0bffa15 	stw	r2,-24(fp)
   228ac:	e0bffe17 	ldw	r2,-8(fp)
   228b0:	10000426 	beq	r2,zero,228c4 <_ZN11SPI_Handler8ReadDataEPhm+0x12c>
   228b4:	e0bffe17 	ldw	r2,-8(fp)
   228b8:	10bfffc4 	addi	r2,r2,-1
   228bc:	e0bffe15 	stw	r2,-8(fp)
   228c0:	00000506 	br	228d8 <_ZN11SPI_Handler8ReadDataEPhm+0x140>
   228c4:	e0bff817 	ldw	r2,-32(fp)
   228c8:	10c00044 	addi	r3,r2,1
   228cc:	e0fff815 	stw	r3,-32(fp)
   228d0:	e0fffa17 	ldw	r3,-24(fp)
   228d4:	10c00005 	stb	r3,0(r2)
   228d8:	e0bffd17 	ldw	r2,-12(fp)
   228dc:	10800044 	addi	r2,r2,1
   228e0:	e0bffd15 	stw	r2,-12(fp)
   228e4:	e0bffe17 	ldw	r2,-8(fp)
   228e8:	103fc61e 	bne	r2,zero,22804 <_ZN11SPI_Handler8ReadDataEPhm+0x6c>
   228ec:	e0fff817 	ldw	r3,-32(fp)
   228f0:	e0bffc17 	ldw	r2,-16(fp)
   228f4:	18bfc31e 	bne	r3,r2,22804 <_ZN11SPI_Handler8ReadDataEPhm+0x6c>
   228f8:	e0bff917 	ldw	r2,-28(fp)
   228fc:	10800117 	ldw	r2,4(r2)
   22900:	10800204 	addi	r2,r2,8
   22904:	10800037 	ldwio	r2,0(r2)
   22908:	e0bffb15 	stw	r2,-20(fp)
   2290c:	e0bffb17 	ldw	r2,-20(fp)
   22910:	1080080c 	andi	r2,r2,32
   22914:	1000011e 	bne	r2,zero,2291c <_ZN11SPI_Handler8ReadDataEPhm+0x184>
   22918:	003ff706 	br	228f8 <_ZN11SPI_Handler8ReadDataEPhm+0x160>
   2291c:	e0bff717 	ldw	r2,-36(fp)
   22920:	e037883a 	mov	sp,fp
   22924:	df000017 	ldw	fp,0(sp)
   22928:	dec00104 	addi	sp,sp,4
   2292c:	f800283a 	ret

00022930 <_ZNK10__cxxabiv117__class_type_info11__do_upcastEPKS0_PPv>:
   22930:	20800017 	ldw	r2,0(r4)
   22934:	defffa04 	addi	sp,sp,-24
   22938:	dc000415 	stw	r16,16(sp)
   2293c:	10800617 	ldw	r2,24(r2)
   22940:	3021883a 	mov	r16,r6
   22944:	31800017 	ldw	r6,0(r6)
   22948:	00c00404 	movi	r3,16
   2294c:	dfc00515 	stw	ra,20(sp)
   22950:	d8000015 	stw	zero,0(sp)
   22954:	d8000115 	stw	zero,4(sp)
   22958:	d8c00215 	stw	r3,8(sp)
   2295c:	d8000315 	stw	zero,12(sp)
   22960:	d80f883a 	mov	r7,sp
   22964:	103ee83a 	callr	r2
   22968:	d8800117 	ldw	r2,4(sp)
   2296c:	1080018c 	andi	r2,r2,6
   22970:	10800198 	cmpnei	r2,r2,6
   22974:	1000071e 	bne	r2,zero,22994 <_ZNK10__cxxabiv117__class_type_info11__do_upcastEPKS0_PPv+0x64>
   22978:	d8c00017 	ldw	r3,0(sp)
   2297c:	00800044 	movi	r2,1
   22980:	80c00015 	stw	r3,0(r16)
   22984:	dfc00517 	ldw	ra,20(sp)
   22988:	dc000417 	ldw	r16,16(sp)
   2298c:	dec00604 	addi	sp,sp,24
   22990:	f800283a 	ret
   22994:	0005883a 	mov	r2,zero
   22998:	dfc00517 	ldw	ra,20(sp)
   2299c:	dc000417 	ldw	r16,16(sp)
   229a0:	dec00604 	addi	sp,sp,24
   229a4:	f800283a 	ret

000229a8 <_ZNK10__cxxabiv117__class_type_info20__do_find_public_srcEiPKvPKS0_S2_>:
   229a8:	d8c00017 	ldw	r3,0(sp)
   229ac:	00800044 	movi	r2,1
   229b0:	19800126 	beq	r3,r6,229b8 <_ZNK10__cxxabiv117__class_type_info20__do_find_public_srcEiPKvPKS0_S2_+0x10>
   229b4:	f800283a 	ret
   229b8:	00800184 	movi	r2,6
   229bc:	f800283a 	ret

000229c0 <_ZN10__cxxabiv117__class_type_infoD1Ev>:
   229c0:	008000f4 	movhi	r2,3
   229c4:	10a24904 	addi	r2,r2,-30428
   229c8:	20800015 	stw	r2,0(r4)
   229cc:	0022eac1 	jmpi	22eac <_ZNSt9type_infoD1Ev>

000229d0 <_ZN10__cxxabiv117__class_type_infoD0Ev>:
   229d0:	defffe04 	addi	sp,sp,-8
   229d4:	008000f4 	movhi	r2,3
   229d8:	dc000015 	stw	r16,0(sp)
   229dc:	dfc00115 	stw	ra,4(sp)
   229e0:	10a24904 	addi	r2,r2,-30428
   229e4:	20800015 	stw	r2,0(r4)
   229e8:	2021883a 	mov	r16,r4
   229ec:	0022eac0 	call	22eac <_ZNSt9type_infoD1Ev>
   229f0:	01400204 	movi	r5,8
   229f4:	8009883a 	mov	r4,r16
   229f8:	dfc00117 	ldw	ra,4(sp)
   229fc:	dc000017 	ldw	r16,0(sp)
   22a00:	dec00204 	addi	sp,sp,8
   22a04:	0022be01 	jmpi	22be0 <_ZdlPvj>

00022a08 <_ZNK10__cxxabiv117__class_type_info12__do_dyncastEiNS0_10__sub_kindEPKS0_PKvS3_S5_RNS0_16__dyncast_resultE>:
   22a08:	defffa04 	addi	sp,sp,-24
   22a0c:	dc800415 	stw	r18,16(sp)
   22a10:	d8800817 	ldw	r2,32(sp)
   22a14:	dc800617 	ldw	r18,24(sp)
   22a18:	dc400315 	stw	r17,12(sp)
   22a1c:	dc000215 	stw	r16,8(sp)
   22a20:	dfc00515 	stw	ra,20(sp)
   22a24:	dc400917 	ldw	r17,36(sp)
   22a28:	21000117 	ldw	r4,4(r4)
   22a2c:	3021883a 	mov	r16,r6
   22a30:	90801226 	beq	r18,r2,22a7c <_ZNK10__cxxabiv117__class_type_info12__do_dyncastEiNS0_10__sub_kindEPKS0_PKvS3_S5_RNS0_16__dyncast_resultE+0x74>
   22a34:	39400117 	ldw	r5,4(r7)
   22a38:	29000526 	beq	r5,r4,22a50 <_ZNK10__cxxabiv117__class_type_info12__do_dyncastEiNS0_10__sub_kindEPKS0_PKvS3_S5_RNS0_16__dyncast_resultE+0x48>
   22a3c:	20800007 	ldb	r2,0(r4)
   22a40:	10800aa0 	cmpeqi	r2,r2,42
   22a44:	1000061e 	bne	r2,zero,22a60 <_ZNK10__cxxabiv117__class_type_info12__do_dyncastEiNS0_10__sub_kindEPKS0_PKvS3_S5_RNS0_16__dyncast_resultE+0x58>
   22a48:	0025b200 	call	25b20 <strcmp>
   22a4c:	1000041e 	bne	r2,zero,22a60 <_ZNK10__cxxabiv117__class_type_info12__do_dyncastEiNS0_10__sub_kindEPKS0_PKvS3_S5_RNS0_16__dyncast_resultE+0x58>
   22a50:	00800044 	movi	r2,1
   22a54:	8c800015 	stw	r18,0(r17)
   22a58:	8c000115 	stw	r16,4(r17)
   22a5c:	88800315 	stw	r2,12(r17)
   22a60:	0005883a 	mov	r2,zero
   22a64:	dfc00517 	ldw	ra,20(sp)
   22a68:	dc800417 	ldw	r18,16(sp)
   22a6c:	dc400317 	ldw	r17,12(sp)
   22a70:	dc000217 	ldw	r16,8(sp)
   22a74:	dec00604 	addi	sp,sp,24
   22a78:	f800283a 	ret
   22a7c:	d8800717 	ldw	r2,28(sp)
   22a80:	11400117 	ldw	r5,4(r2)
   22a84:	29000f26 	beq	r5,r4,22ac4 <_ZNK10__cxxabiv117__class_type_info12__do_dyncastEiNS0_10__sub_kindEPKS0_PKvS3_S5_RNS0_16__dyncast_resultE+0xbc>
   22a88:	20800007 	ldb	r2,0(r4)
   22a8c:	10800aa0 	cmpeqi	r2,r2,42
   22a90:	1000091e 	bne	r2,zero,22ab8 <_ZNK10__cxxabiv117__class_type_info12__do_dyncastEiNS0_10__sub_kindEPKS0_PKvS3_S5_RNS0_16__dyncast_resultE+0xb0>
   22a94:	d9c00115 	stw	r7,4(sp)
   22a98:	d9000015 	stw	r4,0(sp)
   22a9c:	0025b200 	call	25b20 <strcmp>
   22aa0:	10000826 	beq	r2,zero,22ac4 <_ZNK10__cxxabiv117__class_type_info12__do_dyncastEiNS0_10__sub_kindEPKS0_PKvS3_S5_RNS0_16__dyncast_resultE+0xbc>
   22aa4:	d9c00117 	ldw	r7,4(sp)
   22aa8:	d9000017 	ldw	r4,0(sp)
   22aac:	39400117 	ldw	r5,4(r7)
   22ab0:	217fe51e 	bne	r4,r5,22a48 <_ZNK10__cxxabiv117__class_type_info12__do_dyncastEiNS0_10__sub_kindEPKS0_PKvS3_S5_RNS0_16__dyncast_resultE+0x40>
   22ab4:	003fe606 	br	22a50 <_ZNK10__cxxabiv117__class_type_info12__do_dyncastEiNS0_10__sub_kindEPKS0_PKvS3_S5_RNS0_16__dyncast_resultE+0x48>
   22ab8:	38800117 	ldw	r2,4(r7)
   22abc:	113fe81e 	bne	r2,r4,22a60 <_ZNK10__cxxabiv117__class_type_info12__do_dyncastEiNS0_10__sub_kindEPKS0_PKvS3_S5_RNS0_16__dyncast_resultE+0x58>
   22ac0:	003fe306 	br	22a50 <_ZNK10__cxxabiv117__class_type_info12__do_dyncastEiNS0_10__sub_kindEPKS0_PKvS3_S5_RNS0_16__dyncast_resultE+0x48>
   22ac4:	8c000215 	stw	r16,8(r17)
   22ac8:	003fe506 	br	22a60 <_ZNK10__cxxabiv117__class_type_info12__do_dyncastEiNS0_10__sub_kindEPKS0_PKvS3_S5_RNS0_16__dyncast_resultE+0x58>

00022acc <_ZNK10__cxxabiv117__class_type_info11__do_upcastEPKS0_PKvRNS0_15__upcast_resultE>:
   22acc:	21000117 	ldw	r4,4(r4)
   22ad0:	29400117 	ldw	r5,4(r5)
   22ad4:	defffd04 	addi	sp,sp,-12
   22ad8:	dc400115 	stw	r17,4(sp)
   22adc:	dc000015 	stw	r16,0(sp)
   22ae0:	dfc00215 	stw	ra,8(sp)
   22ae4:	3023883a 	mov	r17,r6
   22ae8:	3821883a 	mov	r16,r7
   22aec:	21400726 	beq	r4,r5,22b0c <_ZNK10__cxxabiv117__class_type_info11__do_upcastEPKS0_PKvRNS0_15__upcast_resultE+0x40>
   22af0:	20800007 	ldb	r2,0(r4)
   22af4:	10800aa0 	cmpeqi	r2,r2,42
   22af8:	1000021e 	bne	r2,zero,22b04 <_ZNK10__cxxabiv117__class_type_info11__do_upcastEPKS0_PKvRNS0_15__upcast_resultE+0x38>
   22afc:	0025b200 	call	25b20 <strcmp>
   22b00:	10000226 	beq	r2,zero,22b0c <_ZNK10__cxxabiv117__class_type_info11__do_upcastEPKS0_PKvRNS0_15__upcast_resultE+0x40>
   22b04:	0005883a 	mov	r2,zero
   22b08:	00000606 	br	22b24 <_ZNK10__cxxabiv117__class_type_info11__do_upcastEPKS0_PKvRNS0_15__upcast_resultE+0x58>
   22b0c:	00800204 	movi	r2,8
   22b10:	80800315 	stw	r2,12(r16)
   22b14:	00800184 	movi	r2,6
   22b18:	80800115 	stw	r2,4(r16)
   22b1c:	84400015 	stw	r17,0(r16)
   22b20:	00800044 	movi	r2,1
   22b24:	dfc00217 	ldw	ra,8(sp)
   22b28:	dc400117 	ldw	r17,4(sp)
   22b2c:	dc000017 	ldw	r16,0(sp)
   22b30:	dec00304 	addi	sp,sp,12
   22b34:	f800283a 	ret

00022b38 <_ZNK10__cxxabiv117__class_type_info10__do_catchEPKSt9type_infoPPvj>:
   22b38:	defffb04 	addi	sp,sp,-20
   22b3c:	dc800215 	stw	r18,8(sp)
   22b40:	dc000015 	stw	r16,0(sp)
   22b44:	2025883a 	mov	r18,r4
   22b48:	2821883a 	mov	r16,r5
   22b4c:	21000117 	ldw	r4,4(r4)
   22b50:	29400117 	ldw	r5,4(r5)
   22b54:	dfc00415 	stw	ra,16(sp)
   22b58:	dcc00315 	stw	r19,12(sp)
   22b5c:	dc400115 	stw	r17,4(sp)
   22b60:	21401526 	beq	r4,r5,22bb8 <_ZNK10__cxxabiv117__class_type_info10__do_catchEPKSt9type_infoPPvj+0x80>
   22b64:	20800007 	ldb	r2,0(r4)
   22b68:	3027883a 	mov	r19,r6
   22b6c:	3823883a 	mov	r17,r7
   22b70:	10800aa0 	cmpeqi	r2,r2,42
   22b74:	1000021e 	bne	r2,zero,22b80 <_ZNK10__cxxabiv117__class_type_info10__do_catchEPKSt9type_infoPPvj+0x48>
   22b78:	0025b200 	call	25b20 <strcmp>
   22b7c:	10000e26 	beq	r2,zero,22bb8 <_ZNK10__cxxabiv117__class_type_info10__do_catchEPKSt9type_infoPPvj+0x80>
   22b80:	89c00128 	cmpgeui	r7,r17,4
   22b84:	3800141e 	bne	r7,zero,22bd8 <_ZNK10__cxxabiv117__class_type_info10__do_catchEPKSt9type_infoPPvj+0xa0>
   22b88:	80800017 	ldw	r2,0(r16)
   22b8c:	980d883a 	mov	r6,r19
   22b90:	900b883a 	mov	r5,r18
   22b94:	10800517 	ldw	r2,20(r2)
   22b98:	8009883a 	mov	r4,r16
   22b9c:	dfc00417 	ldw	ra,16(sp)
   22ba0:	dcc00317 	ldw	r19,12(sp)
   22ba4:	dc800217 	ldw	r18,8(sp)
   22ba8:	dc400117 	ldw	r17,4(sp)
   22bac:	dc000017 	ldw	r16,0(sp)
   22bb0:	dec00504 	addi	sp,sp,20
   22bb4:	1000683a 	jmp	r2
   22bb8:	00800044 	movi	r2,1
   22bbc:	dfc00417 	ldw	ra,16(sp)
   22bc0:	dcc00317 	ldw	r19,12(sp)
   22bc4:	dc800217 	ldw	r18,8(sp)
   22bc8:	dc400117 	ldw	r17,4(sp)
   22bcc:	dc000017 	ldw	r16,0(sp)
   22bd0:	dec00504 	addi	sp,sp,20
   22bd4:	f800283a 	ret
   22bd8:	0005883a 	mov	r2,zero
   22bdc:	003ff706 	br	22bbc <_ZNK10__cxxabiv117__class_type_info10__do_catchEPKSt9type_infoPPvj+0x84>

00022be0 <_ZdlPvj>:
   22be0:	00238ec1 	jmpi	238ec <_ZdlPv>

00022be4 <_ZN10__cxxabiv120__si_class_type_infoD1Ev>:
   22be4:	008000f4 	movhi	r2,3
   22be8:	10a26104 	addi	r2,r2,-30332
   22bec:	20800015 	stw	r2,0(r4)
   22bf0:	00229c01 	jmpi	229c0 <_ZN10__cxxabiv117__class_type_infoD1Ev>

00022bf4 <_ZN10__cxxabiv120__si_class_type_infoD0Ev>:
   22bf4:	defffe04 	addi	sp,sp,-8
   22bf8:	008000f4 	movhi	r2,3
   22bfc:	dc000015 	stw	r16,0(sp)
   22c00:	dfc00115 	stw	ra,4(sp)
   22c04:	10a26104 	addi	r2,r2,-30332
   22c08:	20800015 	stw	r2,0(r4)
   22c0c:	2021883a 	mov	r16,r4
   22c10:	00229c00 	call	229c0 <_ZN10__cxxabiv117__class_type_infoD1Ev>
   22c14:	01400304 	movi	r5,12
   22c18:	8009883a 	mov	r4,r16
   22c1c:	dfc00117 	ldw	ra,4(sp)
   22c20:	dc000017 	ldw	r16,0(sp)
   22c24:	dec00204 	addi	sp,sp,8
   22c28:	0022be01 	jmpi	22be0 <_ZdlPvj>

00022c2c <_ZNK10__cxxabiv120__si_class_type_info20__do_find_public_srcEiPKvPKNS_17__class_type_infoES2_>:
   22c2c:	defffa04 	addi	sp,sp,-24
   22c30:	dc800415 	stw	r18,16(sp)
   22c34:	dc800617 	ldw	r18,24(sp)
   22c38:	dc400315 	stw	r17,12(sp)
   22c3c:	dc000215 	stw	r16,8(sp)
   22c40:	dfc00515 	stw	ra,20(sp)
   22c44:	2021883a 	mov	r16,r4
   22c48:	2823883a 	mov	r17,r5
   22c4c:	91800b26 	beq	r18,r6,22c7c <_ZNK10__cxxabiv120__si_class_type_info20__do_find_public_srcEiPKvPKNS_17__class_type_infoES2_+0x50>
   22c50:	81000217 	ldw	r4,8(r16)
   22c54:	880b883a 	mov	r5,r17
   22c58:	20800017 	ldw	r2,0(r4)
   22c5c:	dc800615 	stw	r18,24(sp)
   22c60:	10800817 	ldw	r2,32(r2)
   22c64:	dfc00517 	ldw	ra,20(sp)
   22c68:	dc800417 	ldw	r18,16(sp)
   22c6c:	dc400317 	ldw	r17,12(sp)
   22c70:	dc000217 	ldw	r16,8(sp)
   22c74:	dec00604 	addi	sp,sp,24
   22c78:	1000683a 	jmp	r2
   22c7c:	21000117 	ldw	r4,4(r4)
   22c80:	39400117 	ldw	r5,4(r7)
   22c84:	21400926 	beq	r4,r5,22cac <_ZNK10__cxxabiv120__si_class_type_info20__do_find_public_srcEiPKvPKNS_17__class_type_infoES2_+0x80>
   22c88:	20800007 	ldb	r2,0(r4)
   22c8c:	10800aa0 	cmpeqi	r2,r2,42
   22c90:	103fef1e 	bne	r2,zero,22c50 <_ZNK10__cxxabiv120__si_class_type_info20__do_find_public_srcEiPKvPKNS_17__class_type_infoES2_+0x24>
   22c94:	d9c00115 	stw	r7,4(sp)
   22c98:	d9800015 	stw	r6,0(sp)
   22c9c:	0025b200 	call	25b20 <strcmp>
   22ca0:	d9800017 	ldw	r6,0(sp)
   22ca4:	d9c00117 	ldw	r7,4(sp)
   22ca8:	103fe91e 	bne	r2,zero,22c50 <_ZNK10__cxxabiv120__si_class_type_info20__do_find_public_srcEiPKvPKNS_17__class_type_infoES2_+0x24>
   22cac:	00800184 	movi	r2,6
   22cb0:	dfc00517 	ldw	ra,20(sp)
   22cb4:	dc800417 	ldw	r18,16(sp)
   22cb8:	dc400317 	ldw	r17,12(sp)
   22cbc:	dc000217 	ldw	r16,8(sp)
   22cc0:	dec00604 	addi	sp,sp,24
   22cc4:	f800283a 	ret

00022cc8 <_ZNK10__cxxabiv120__si_class_type_info12__do_dyncastEiNS_17__class_type_info10__sub_kindEPKS1_PKvS4_S6_RNS1_16__dyncast_resultE>:
   22cc8:	defff504 	addi	sp,sp,-44
   22ccc:	dcc00415 	stw	r19,16(sp)
   22cd0:	38800117 	ldw	r2,4(r7)
   22cd4:	24c00117 	ldw	r19,4(r4)
   22cd8:	df000915 	stw	fp,36(sp)
   22cdc:	ddc00815 	stw	r23,32(sp)
   22ce0:	dd800715 	stw	r22,28(sp)
   22ce4:	dd400615 	stw	r21,24(sp)
   22ce8:	dc000115 	stw	r16,4(sp)
   22cec:	dfc00a15 	stw	ra,40(sp)
   22cf0:	dd000515 	stw	r20,20(sp)
   22cf4:	dc800315 	stw	r18,12(sp)
   22cf8:	dc400215 	stw	r17,8(sp)
   22cfc:	dd800b17 	ldw	r22,44(sp)
   22d00:	df000c17 	ldw	fp,48(sp)
   22d04:	ddc00d17 	ldw	r23,52(sp)
   22d08:	dd400e17 	ldw	r21,56(sp)
   22d0c:	2821883a 	mov	r16,r5
   22d10:	98802126 	beq	r19,r2,22d98 <_ZNK10__cxxabiv120__si_class_type_info12__do_dyncastEiNS_17__class_type_info10__sub_kindEPKS1_PKvS4_S6_RNS1_16__dyncast_resultE+0xd0>
   22d14:	9d000007 	ldb	r20,0(r19)
   22d18:	2025883a 	mov	r18,r4
   22d1c:	3823883a 	mov	r17,r7
   22d20:	a0c00aa0 	cmpeqi	r3,r20,42
   22d24:	1800061e 	bne	r3,zero,22d40 <_ZNK10__cxxabiv120__si_class_type_info12__do_dyncastEiNS_17__class_type_info10__sub_kindEPKS1_PKvS4_S6_RNS1_16__dyncast_resultE+0x78>
   22d28:	100b883a 	mov	r5,r2
   22d2c:	9809883a 	mov	r4,r19
   22d30:	d9800015 	stw	r6,0(sp)
   22d34:	0025b200 	call	25b20 <strcmp>
   22d38:	d9800017 	ldw	r6,0(sp)
   22d3c:	10001626 	beq	r2,zero,22d98 <_ZNK10__cxxabiv120__si_class_type_info12__do_dyncastEiNS_17__class_type_info10__sub_kindEPKS1_PKvS4_S6_RNS1_16__dyncast_resultE+0xd0>
   22d40:	b5c02c26 	beq	r22,r23,22df4 <_ZNK10__cxxabiv120__si_class_type_info12__do_dyncastEiNS_17__class_type_info10__sub_kindEPKS1_PKvS4_S6_RNS1_16__dyncast_resultE+0x12c>
   22d44:	91000217 	ldw	r4,8(r18)
   22d48:	880f883a 	mov	r7,r17
   22d4c:	800b883a 	mov	r5,r16
   22d50:	20800017 	ldw	r2,0(r4)
   22d54:	dd400e15 	stw	r21,56(sp)
   22d58:	ddc00d15 	stw	r23,52(sp)
   22d5c:	df000c15 	stw	fp,48(sp)
   22d60:	dd800b15 	stw	r22,44(sp)
   22d64:	10800717 	ldw	r2,28(r2)
   22d68:	dfc00a17 	ldw	ra,40(sp)
   22d6c:	df000917 	ldw	fp,36(sp)
   22d70:	ddc00817 	ldw	r23,32(sp)
   22d74:	dd800717 	ldw	r22,28(sp)
   22d78:	dd400617 	ldw	r21,24(sp)
   22d7c:	dd000517 	ldw	r20,20(sp)
   22d80:	dcc00417 	ldw	r19,16(sp)
   22d84:	dc800317 	ldw	r18,12(sp)
   22d88:	dc400217 	ldw	r17,8(sp)
   22d8c:	dc000117 	ldw	r16,4(sp)
   22d90:	dec00b04 	addi	sp,sp,44
   22d94:	1000683a 	jmp	r2
   22d98:	ad800015 	stw	r22,0(r21)
   22d9c:	a9800115 	stw	r6,4(r21)
   22da0:	80001116 	blt	r16,zero,22de8 <_ZNK10__cxxabiv120__si_class_type_info12__do_dyncastEiNS_17__class_type_info10__sub_kindEPKS1_PKvS4_S6_RNS1_16__dyncast_resultE+0x120>
   22da4:	b421883a 	add	r16,r22,r16
   22da8:	bc001d26 	beq	r23,r16,22e20 <_ZNK10__cxxabiv120__si_class_type_info12__do_dyncastEiNS_17__class_type_info10__sub_kindEPKS1_PKvS4_S6_RNS1_16__dyncast_resultE+0x158>
   22dac:	00800044 	movi	r2,1
   22db0:	a8800315 	stw	r2,12(r21)
   22db4:	0005883a 	mov	r2,zero
   22db8:	dfc00a17 	ldw	ra,40(sp)
   22dbc:	df000917 	ldw	fp,36(sp)
   22dc0:	ddc00817 	ldw	r23,32(sp)
   22dc4:	dd800717 	ldw	r22,28(sp)
   22dc8:	dd400617 	ldw	r21,24(sp)
   22dcc:	dd000517 	ldw	r20,20(sp)
   22dd0:	dcc00417 	ldw	r19,16(sp)
   22dd4:	dc800317 	ldw	r18,12(sp)
   22dd8:	dc400217 	ldw	r17,8(sp)
   22ddc:	dc000117 	ldw	r16,4(sp)
   22de0:	dec00b04 	addi	sp,sp,44
   22de4:	f800283a 	ret
   22de8:	843fff98 	cmpnei	r16,r16,-2
   22dec:	803ff11e 	bne	r16,zero,22db4 <_ZNK10__cxxabiv120__si_class_type_info12__do_dyncastEiNS_17__class_type_info10__sub_kindEPKS1_PKvS4_S6_RNS1_16__dyncast_resultE+0xec>
   22df0:	003fee06 	br	22dac <_ZNK10__cxxabiv120__si_class_type_info12__do_dyncastEiNS_17__class_type_info10__sub_kindEPKS1_PKvS4_S6_RNS1_16__dyncast_resultE+0xe4>
   22df4:	e1400117 	ldw	r5,4(fp)
   22df8:	99400726 	beq	r19,r5,22e18 <_ZNK10__cxxabiv120__si_class_type_info12__do_dyncastEiNS_17__class_type_info10__sub_kindEPKS1_PKvS4_S6_RNS1_16__dyncast_resultE+0x150>
   22dfc:	a5000aa0 	cmpeqi	r20,r20,42
   22e00:	a03fd01e 	bne	r20,zero,22d44 <_ZNK10__cxxabiv120__si_class_type_info12__do_dyncastEiNS_17__class_type_info10__sub_kindEPKS1_PKvS4_S6_RNS1_16__dyncast_resultE+0x7c>
   22e04:	9809883a 	mov	r4,r19
   22e08:	d9800015 	stw	r6,0(sp)
   22e0c:	0025b200 	call	25b20 <strcmp>
   22e10:	d9800017 	ldw	r6,0(sp)
   22e14:	103fcb1e 	bne	r2,zero,22d44 <_ZNK10__cxxabiv120__si_class_type_info12__do_dyncastEiNS_17__class_type_info10__sub_kindEPKS1_PKvS4_S6_RNS1_16__dyncast_resultE+0x7c>
   22e18:	a9800215 	stw	r6,8(r21)
   22e1c:	003fe506 	br	22db4 <_ZNK10__cxxabiv120__si_class_type_info12__do_dyncastEiNS_17__class_type_info10__sub_kindEPKS1_PKvS4_S6_RNS1_16__dyncast_resultE+0xec>
   22e20:	00800184 	movi	r2,6
   22e24:	003fe206 	br	22db0 <_ZNK10__cxxabiv120__si_class_type_info12__do_dyncastEiNS_17__class_type_info10__sub_kindEPKS1_PKvS4_S6_RNS1_16__dyncast_resultE+0xe8>

00022e28 <_ZNK10__cxxabiv120__si_class_type_info11__do_upcastEPKNS_17__class_type_infoEPKvRNS1_15__upcast_resultE>:
   22e28:	defffb04 	addi	sp,sp,-20
   22e2c:	dcc00315 	stw	r19,12(sp)
   22e30:	dc800215 	stw	r18,8(sp)
   22e34:	dc400115 	stw	r17,4(sp)
   22e38:	dc000015 	stw	r16,0(sp)
   22e3c:	dfc00415 	stw	ra,16(sp)
   22e40:	2025883a 	mov	r18,r4
   22e44:	2827883a 	mov	r19,r5
   22e48:	3021883a 	mov	r16,r6
   22e4c:	3823883a 	mov	r17,r7
   22e50:	0022acc0 	call	22acc <_ZNK10__cxxabiv117__class_type_info11__do_upcastEPKS0_PKvRNS0_15__upcast_resultE>
   22e54:	10c03fcc 	andi	r3,r2,255
   22e58:	18000d1e 	bne	r3,zero,22e90 <_ZNK10__cxxabiv120__si_class_type_info11__do_upcastEPKNS_17__class_type_infoEPKvRNS1_15__upcast_resultE+0x68>
   22e5c:	91000217 	ldw	r4,8(r18)
   22e60:	880f883a 	mov	r7,r17
   22e64:	800d883a 	mov	r6,r16
   22e68:	20800017 	ldw	r2,0(r4)
   22e6c:	980b883a 	mov	r5,r19
   22e70:	10800617 	ldw	r2,24(r2)
   22e74:	dfc00417 	ldw	ra,16(sp)
   22e78:	dcc00317 	ldw	r19,12(sp)
   22e7c:	dc800217 	ldw	r18,8(sp)
   22e80:	dc400117 	ldw	r17,4(sp)
   22e84:	dc000017 	ldw	r16,0(sp)
   22e88:	dec00504 	addi	sp,sp,20
   22e8c:	1000683a 	jmp	r2
   22e90:	dfc00417 	ldw	ra,16(sp)
   22e94:	dcc00317 	ldw	r19,12(sp)
   22e98:	dc800217 	ldw	r18,8(sp)
   22e9c:	dc400117 	ldw	r17,4(sp)
   22ea0:	dc000017 	ldw	r16,0(sp)
   22ea4:	dec00504 	addi	sp,sp,20
   22ea8:	f800283a 	ret

00022eac <_ZNSt9type_infoD1Ev>:
   22eac:	f800283a 	ret

00022eb0 <_ZNKSt9type_info14__is_pointer_pEv>:
   22eb0:	0005883a 	mov	r2,zero
   22eb4:	f800283a 	ret

00022eb8 <_ZNKSt9type_info11__do_upcastEPKN10__cxxabiv117__class_type_infoEPPv>:
   22eb8:	0005883a 	mov	r2,zero
   22ebc:	f800283a 	ret

00022ec0 <_ZNSt9type_infoD0Ev>:
   22ec0:	01400204 	movi	r5,8
   22ec4:	0022be01 	jmpi	22be0 <_ZdlPvj>

00022ec8 <_ZNKSt9type_info10__do_catchEPKS_PPvj>:
   22ec8:	21000117 	ldw	r4,4(r4)
   22ecc:	29400117 	ldw	r5,4(r5)
   22ed0:	21400c26 	beq	r4,r5,22f04 <_ZNKSt9type_info10__do_catchEPKS_PPvj+0x3c>
   22ed4:	20800007 	ldb	r2,0(r4)
   22ed8:	10800aa0 	cmpeqi	r2,r2,42
   22edc:	1000071e 	bne	r2,zero,22efc <_ZNKSt9type_info10__do_catchEPKS_PPvj+0x34>
   22ee0:	deffff04 	addi	sp,sp,-4
   22ee4:	dfc00015 	stw	ra,0(sp)
   22ee8:	0025b200 	call	25b20 <strcmp>
   22eec:	1005003a 	cmpeq	r2,r2,zero
   22ef0:	dfc00017 	ldw	ra,0(sp)
   22ef4:	dec00104 	addi	sp,sp,4
   22ef8:	f800283a 	ret
   22efc:	0005883a 	mov	r2,zero
   22f00:	f800283a 	ret
   22f04:	00800044 	movi	r2,1
   22f08:	f800283a 	ret

00022f0c <_ZN10__cxxabiv121__vmi_class_type_infoD1Ev>:
   22f0c:	008000f4 	movhi	r2,3
   22f10:	10a28504 	addi	r2,r2,-30188
   22f14:	20800015 	stw	r2,0(r4)
   22f18:	00229c01 	jmpi	229c0 <_ZN10__cxxabiv117__class_type_infoD1Ev>

00022f1c <_ZN10__cxxabiv121__vmi_class_type_infoD0Ev>:
   22f1c:	defffe04 	addi	sp,sp,-8
   22f20:	008000f4 	movhi	r2,3
   22f24:	dc000015 	stw	r16,0(sp)
   22f28:	dfc00115 	stw	ra,4(sp)
   22f2c:	10a28504 	addi	r2,r2,-30188
   22f30:	20800015 	stw	r2,0(r4)
   22f34:	2021883a 	mov	r16,r4
   22f38:	00229c00 	call	229c0 <_ZN10__cxxabiv117__class_type_infoD1Ev>
   22f3c:	01400604 	movi	r5,24
   22f40:	8009883a 	mov	r4,r16
   22f44:	dfc00117 	ldw	ra,4(sp)
   22f48:	dc000017 	ldw	r16,0(sp)
   22f4c:	dec00204 	addi	sp,sp,8
   22f50:	0022be01 	jmpi	22be0 <_ZdlPvj>

00022f54 <_ZNK10__cxxabiv121__vmi_class_type_info20__do_find_public_srcEiPKvPKNS_17__class_type_infoES2_>:
   22f54:	defff604 	addi	sp,sp,-40
   22f58:	dc800315 	stw	r18,12(sp)
   22f5c:	dc800a17 	ldw	r18,40(sp)
   22f60:	ddc00815 	stw	r23,32(sp)
   22f64:	dd800715 	stw	r22,28(sp)
   22f68:	dd400615 	stw	r21,24(sp)
   22f6c:	dc000115 	stw	r16,4(sp)
   22f70:	dfc00915 	stw	ra,36(sp)
   22f74:	dd000515 	stw	r20,20(sp)
   22f78:	dcc00415 	stw	r19,16(sp)
   22f7c:	dc400215 	stw	r17,8(sp)
   22f80:	302f883a 	mov	r23,r6
   22f84:	2021883a 	mov	r16,r4
   22f88:	282b883a 	mov	r21,r5
   22f8c:	382d883a 	mov	r22,r7
   22f90:	34803026 	beq	r6,r18,23054 <_ZNK10__cxxabiv121__vmi_class_type_info20__do_find_public_srcEiPKvPKNS_17__class_type_infoES2_+0x100>
   22f94:	80800317 	ldw	r2,12(r16)
   22f98:	147fffc4 	addi	r17,r2,-1
   22f9c:	10001d26 	beq	r2,zero,23014 <_ZNK10__cxxabiv121__vmi_class_type_info20__do_find_public_srcEiPKvPKNS_17__class_type_infoES2_+0xc0>
   22fa0:	10800044 	addi	r2,r2,1
   22fa4:	100490fa 	slli	r2,r2,3
   22fa8:	acffff60 	cmpeqi	r19,r21,-3
   22fac:	80a1883a 	add	r16,r16,r2
   22fb0:	80800117 	ldw	r2,4(r16)
   22fb4:	b00f883a 	mov	r7,r22
   22fb8:	a80b883a 	mov	r5,r21
   22fbc:	1100008c 	andi	r4,r2,2
   22fc0:	8c7fffc4 	addi	r17,r17,-1
   22fc4:	10c0004c 	andi	r3,r2,1
   22fc8:	20000f26 	beq	r4,zero,23008 <_ZNK10__cxxabiv121__vmi_class_type_info20__do_find_public_srcEiPKvPKNS_17__class_type_infoES2_+0xb4>
   22fcc:	1005d23a 	srai	r2,r2,8
   22fd0:	1829883a 	mov	r20,r3
   22fd4:	18000426 	beq	r3,zero,22fe8 <_ZNK10__cxxabiv121__vmi_class_type_info20__do_find_public_srcEiPKvPKNS_17__class_type_infoES2_+0x94>
   22fd8:	98000b1e 	bne	r19,zero,23008 <_ZNK10__cxxabiv121__vmi_class_type_info20__do_find_public_srcEiPKvPKNS_17__class_type_infoES2_+0xb4>
   22fdc:	b9800017 	ldw	r6,0(r23)
   22fe0:	3085883a 	add	r2,r6,r2
   22fe4:	10800017 	ldw	r2,0(r2)
   22fe8:	81000017 	ldw	r4,0(r16)
   22fec:	b88d883a 	add	r6,r23,r2
   22ff0:	20800017 	ldw	r2,0(r4)
   22ff4:	dc800015 	stw	r18,0(sp)
   22ff8:	10800817 	ldw	r2,32(r2)
   22ffc:	103ee83a 	callr	r2
   23000:	10c00110 	cmplti	r3,r2,4
   23004:	18000f26 	beq	r3,zero,23044 <_ZNK10__cxxabiv121__vmi_class_type_info20__do_find_public_srcEiPKvPKNS_17__class_type_infoES2_+0xf0>
   23008:	88bfffe0 	cmpeqi	r2,r17,-1
   2300c:	843ffe04 	addi	r16,r16,-8
   23010:	103fe726 	beq	r2,zero,22fb0 <_ZNK10__cxxabiv121__vmi_class_type_info20__do_find_public_srcEiPKvPKNS_17__class_type_infoES2_+0x5c>
   23014:	00800044 	movi	r2,1
   23018:	dfc00917 	ldw	ra,36(sp)
   2301c:	ddc00817 	ldw	r23,32(sp)
   23020:	dd800717 	ldw	r22,28(sp)
   23024:	dd400617 	ldw	r21,24(sp)
   23028:	dd000517 	ldw	r20,20(sp)
   2302c:	dcc00417 	ldw	r19,16(sp)
   23030:	dc800317 	ldw	r18,12(sp)
   23034:	dc400217 	ldw	r17,8(sp)
   23038:	dc000117 	ldw	r16,4(sp)
   2303c:	dec00a04 	addi	sp,sp,40
   23040:	f800283a 	ret
   23044:	a5003fcc 	andi	r20,r20,255
   23048:	a03ff326 	beq	r20,zero,23018 <_ZNK10__cxxabiv121__vmi_class_type_info20__do_find_public_srcEiPKvPKNS_17__class_type_infoES2_+0xc4>
   2304c:	10800054 	ori	r2,r2,1
   23050:	003ff106 	br	23018 <_ZNK10__cxxabiv121__vmi_class_type_info20__do_find_public_srcEiPKvPKNS_17__class_type_infoES2_+0xc4>
   23054:	21000117 	ldw	r4,4(r4)
   23058:	39400117 	ldw	r5,4(r7)
   2305c:	21400526 	beq	r4,r5,23074 <_ZNK10__cxxabiv121__vmi_class_type_info20__do_find_public_srcEiPKvPKNS_17__class_type_infoES2_+0x120>
   23060:	20800007 	ldb	r2,0(r4)
   23064:	10800aa0 	cmpeqi	r2,r2,42
   23068:	103fca1e 	bne	r2,zero,22f94 <_ZNK10__cxxabiv121__vmi_class_type_info20__do_find_public_srcEiPKvPKNS_17__class_type_infoES2_+0x40>
   2306c:	0025b200 	call	25b20 <strcmp>
   23070:	103fc81e 	bne	r2,zero,22f94 <_ZNK10__cxxabiv121__vmi_class_type_info20__do_find_public_srcEiPKvPKNS_17__class_type_infoES2_+0x40>
   23074:	00800184 	movi	r2,6
   23078:	003fe706 	br	23018 <_ZNK10__cxxabiv121__vmi_class_type_info20__do_find_public_srcEiPKvPKNS_17__class_type_infoES2_+0xc4>

0002307c <_ZNK10__cxxabiv121__vmi_class_type_info12__do_dyncastEiNS_17__class_type_info10__sub_kindEPKS1_PKvS4_S6_RNS1_16__dyncast_resultE>:
   2307c:	deffe504 	addi	sp,sp,-108
   23080:	dc001115 	stw	r16,68(sp)
   23084:	dc001e17 	ldw	r16,120(sp)
   23088:	ddc01815 	stw	r23,96(sp)
   2308c:	dd401615 	stw	r21,88(sp)
   23090:	80800417 	ldw	r2,16(r16)
   23094:	dcc01415 	stw	r19,80(sp)
   23098:	dc401215 	stw	r17,72(sp)
   2309c:	dfc01a15 	stw	ra,104(sp)
   230a0:	df001915 	stw	fp,100(sp)
   230a4:	dd801715 	stw	r22,92(sp)
   230a8:	dd001515 	stw	r20,84(sp)
   230ac:	dc801315 	stw	r18,76(sp)
   230b0:	1080040c 	andi	r2,r2,16
   230b4:	d9000515 	stw	r4,20(sp)
   230b8:	dd401b17 	ldw	r21,108(sp)
   230bc:	282f883a 	mov	r23,r5
   230c0:	3023883a 	mov	r17,r6
   230c4:	3827883a 	mov	r19,r7
   230c8:	10000226 	beq	r2,zero,230d4 <_ZNK10__cxxabiv121__vmi_class_type_info12__do_dyncastEiNS_17__class_type_info10__sub_kindEPKS1_PKvS4_S6_RNS1_16__dyncast_resultE+0x58>
   230cc:	20800217 	ldw	r2,8(r4)
   230d0:	80800415 	stw	r2,16(r16)
   230d4:	d8800517 	ldw	r2,20(sp)
   230d8:	11000117 	ldw	r4,4(r2)
   230dc:	d8801d17 	ldw	r2,116(sp)
   230e0:	a8807826 	beq	r21,r2,232c4 <_ZNK10__cxxabiv121__vmi_class_type_info12__do_dyncastEiNS_17__class_type_info10__sub_kindEPKS1_PKvS4_S6_RNS1_16__dyncast_resultE+0x248>
   230e4:	99400117 	ldw	r5,4(r19)
   230e8:	29008226 	beq	r5,r4,232f4 <_ZNK10__cxxabiv121__vmi_class_type_info12__do_dyncastEiNS_17__class_type_info10__sub_kindEPKS1_PKvS4_S6_RNS1_16__dyncast_resultE+0x278>
   230ec:	20800007 	ldb	r2,0(r4)
   230f0:	10800aa0 	cmpeqi	r2,r2,42
   230f4:	1000021e 	bne	r2,zero,23100 <_ZNK10__cxxabiv121__vmi_class_type_info12__do_dyncastEiNS_17__class_type_info10__sub_kindEPKS1_PKvS4_S6_RNS1_16__dyncast_resultE+0x84>
   230f8:	0025b200 	call	25b20 <strcmp>
   230fc:	10007d26 	beq	r2,zero,232f4 <_ZNK10__cxxabiv121__vmi_class_type_info12__do_dyncastEiNS_17__class_type_info10__sub_kindEPKS1_PKvS4_S6_RNS1_16__dyncast_resultE+0x278>
   23100:	b8012b16 	blt	r23,zero,235b0 <_ZNK10__cxxabiv121__vmi_class_type_info12__do_dyncastEiNS_17__class_type_info10__sub_kindEPKS1_PKvS4_S6_RNS1_16__dyncast_resultE+0x534>
   23104:	d8801d17 	ldw	r2,116(sp)
   23108:	15edc83a 	sub	r22,r2,r23
   2310c:	00800084 	movi	r2,2
   23110:	d8800915 	stw	r2,36(sp)
   23114:	b8bfff98 	cmpnei	r2,r23,-2
   23118:	8825883a 	mov	r18,r17
   2311c:	0039883a 	mov	fp,zero
   23120:	8023883a 	mov	r17,r16
   23124:	d80007c5 	stb	zero,31(sp)
   23128:	b021883a 	mov	r16,r22
   2312c:	01000044 	movi	r4,1
   23130:	d8800615 	stw	r2,24(sp)
   23134:	a82d883a 	mov	r22,r21
   23138:	d8800517 	ldw	r2,20(sp)
   2313c:	12400317 	ldw	r9,12(r2)
   23140:	4d3fffc4 	addi	r20,r9,-1
   23144:	48009426 	beq	r9,zero,23398 <_ZNK10__cxxabiv121__vmi_class_type_info12__do_dyncastEiNS_17__class_type_info10__sub_kindEPKS1_PKvS4_S6_RNS1_16__dyncast_resultE+0x31c>
   23148:	4a400044 	addi	r9,r9,1
   2314c:	481290fa 	slli	r9,r9,3
   23150:	dd801b15 	stw	r22,108(sp)
   23154:	b8ffffa0 	cmpeqi	r3,r23,-2
   23158:	a02d883a 	mov	r22,r20
   2315c:	dd001b17 	ldw	r20,108(sp)
   23160:	126b883a 	add	r21,r2,r9
   23164:	d8c00815 	stw	r3,32(sp)
   23168:	b805883a 	mov	r2,r23
   2316c:	20c03fcc 	andi	r3,r4,255
   23170:	802f883a 	mov	r23,r16
   23174:	d8c00415 	stw	r3,16(sp)
   23178:	a821883a 	mov	r16,r21
   2317c:	102b883a 	mov	r21,r2
   23180:	80800117 	ldw	r2,4(r16)
   23184:	89c00417 	ldw	r7,16(r17)
   23188:	d8000c15 	stw	zero,48(sp)
   2318c:	d8000d15 	stw	zero,52(sp)
   23190:	d8000e15 	stw	zero,56(sp)
   23194:	d8000f15 	stw	zero,60(sp)
   23198:	d9c01015 	stw	r7,64(sp)
   2319c:	1180004c 	andi	r6,r2,1
   231a0:	1009d23a 	srai	r4,r2,8
   231a4:	3000a226 	beq	r6,zero,23430 <_ZNK10__cxxabiv121__vmi_class_type_info12__do_dyncastEiNS_17__class_type_info10__sub_kindEPKS1_PKvS4_S6_RNS1_16__dyncast_resultE+0x3b4>
   231a8:	a2000017 	ldw	r8,0(r20)
   231ac:	91800054 	ori	r6,r18,1
   231b0:	4109883a 	add	r4,r8,r4
   231b4:	21000017 	ldw	r4,0(r4)
   231b8:	a111883a 	add	r8,r20,r4
   231bc:	b8000326 	beq	r23,zero,231cc <_ZNK10__cxxabiv121__vmi_class_type_info12__do_dyncastEiNS_17__class_type_info10__sub_kindEPKS1_PKvS4_S6_RNS1_16__dyncast_resultE+0x150>
   231c0:	d8c00417 	ldw	r3,16(sp)
   231c4:	ba09803a 	cmpltu	r4,r23,r8
   231c8:	1900a126 	beq	r3,r4,23450 <_ZNK10__cxxabiv121__vmi_class_type_info12__do_dyncastEiNS_17__class_type_info10__sub_kindEPKS1_PKvS4_S6_RNS1_16__dyncast_resultE+0x3d4>
   231cc:	1080008c 	andi	r2,r2,2
   231d0:	1000041e 	bne	r2,zero,231e4 <_ZNK10__cxxabiv121__vmi_class_type_info12__do_dyncastEiNS_17__class_type_info10__sub_kindEPKS1_PKvS4_S6_RNS1_16__dyncast_resultE+0x168>
   231d4:	d8800617 	ldw	r2,24(sp)
   231d8:	10009a26 	beq	r2,zero,23444 <_ZNK10__cxxabiv121__vmi_class_type_info12__do_dyncastEiNS_17__class_type_info10__sub_kindEPKS1_PKvS4_S6_RNS1_16__dyncast_resultE+0x3c8>
   231dc:	00bfff44 	movi	r2,-3
   231e0:	308c703a 	and	r6,r6,r2
   231e4:	81000017 	ldw	r4,0(r16)
   231e8:	d8c00c04 	addi	r3,sp,48
   231ec:	980f883a 	mov	r7,r19
   231f0:	20800017 	ldw	r2,0(r4)
   231f4:	d8c00315 	stw	r3,12(sp)
   231f8:	d8c01d17 	ldw	r3,116(sp)
   231fc:	da000015 	stw	r8,0(sp)
   23200:	a80b883a 	mov	r5,r21
   23204:	d8c00215 	stw	r3,8(sp)
   23208:	d8c01c17 	ldw	r3,112(sp)
   2320c:	d8c00115 	stw	r3,4(sp)
   23210:	10800717 	ldw	r2,28(r2)
   23214:	103ee83a 	callr	r2
   23218:	89800217 	ldw	r6,8(r17)
   2321c:	d9000e17 	ldw	r4,56(sp)
   23220:	da000f17 	ldw	r8,60(sp)
   23224:	3108b03a 	or	r4,r6,r4
   23228:	89000215 	stw	r4,8(r17)
   2322c:	41800198 	cmpnei	r6,r8,6
   23230:	3000e926 	beq	r6,zero,235d8 <_ZNK10__cxxabiv121__vmi_class_type_info12__do_dyncastEiNS_17__class_type_info10__sub_kindEPKS1_PKvS4_S6_RNS1_16__dyncast_resultE+0x55c>
   23234:	d9800c17 	ldw	r6,48(sp)
   23238:	42800098 	cmpnei	r10,r8,2
   2323c:	300f883a 	mov	r7,r6
   23240:	5000ee26 	beq	r10,zero,235fc <_ZNK10__cxxabiv121__vmi_class_type_info12__do_dyncastEiNS_17__class_type_info10__sub_kindEPKS1_PKvS4_S6_RNS1_16__dyncast_resultE+0x580>
   23244:	e1c03fcc 	andi	r7,fp,255
   23248:	8bc00017 	ldw	r15,0(r17)
   2324c:	38007a1e 	bne	r7,zero,23438 <_ZNK10__cxxabiv121__vmi_class_type_info12__do_dyncastEiNS_17__class_type_info10__sub_kindEPKS1_PKvS4_S6_RNS1_16__dyncast_resultE+0x3bc>
   23250:	78003e26 	beq	r15,zero,2334c <_ZNK10__cxxabiv121__vmi_class_type_info12__do_dyncastEiNS_17__class_type_info10__sub_kindEPKS1_PKvS4_S6_RNS1_16__dyncast_resultE+0x2d0>
   23254:	79808126 	beq	r15,r6,2345c <_ZNK10__cxxabiv121__vmi_class_type_info12__do_dyncastEiNS_17__class_type_info10__sub_kindEPKS1_PKvS4_S6_RNS1_16__dyncast_resultE+0x3e0>
   23258:	30008526 	beq	r6,zero,23470 <_ZNK10__cxxabiv121__vmi_class_type_info12__do_dyncastEiNS_17__class_type_info10__sub_kindEPKS1_PKvS4_S6_RNS1_16__dyncast_resultE+0x3f4>
   2325c:	20800110 	cmplti	r2,r4,4
   23260:	8b000317 	ldw	r12,12(r17)
   23264:	1000551e 	bne	r2,zero,233bc <_ZNK10__cxxabiv121__vmi_class_type_info12__do_dyncastEiNS_17__class_type_info10__sub_kindEPKS1_PKvS4_S6_RNS1_16__dyncast_resultE+0x340>
   23268:	2080004c 	andi	r2,r4,1
   2326c:	10000326 	beq	r2,zero,2327c <_ZNK10__cxxabiv121__vmi_class_type_info12__do_dyncastEiNS_17__class_type_info10__sub_kindEPKS1_PKvS4_S6_RNS1_16__dyncast_resultE+0x200>
   23270:	88800417 	ldw	r2,16(r17)
   23274:	1080008c 	andi	r2,r2,2
   23278:	1000501e 	bne	r2,zero,233bc <_ZNK10__cxxabiv121__vmi_class_type_info12__do_dyncastEiNS_17__class_type_info10__sub_kindEPKS1_PKvS4_S6_RNS1_16__dyncast_resultE+0x340>
   2327c:	6000011e 	bne	r12,zero,23284 <_ZNK10__cxxabiv121__vmi_class_type_info12__do_dyncastEiNS_17__class_type_info10__sub_kindEPKS1_PKvS4_S6_RNS1_16__dyncast_resultE+0x208>
   23280:	03000044 	movi	r12,1
   23284:	4000011e 	bne	r8,zero,2328c <_ZNK10__cxxabiv121__vmi_class_type_info12__do_dyncastEiNS_17__class_type_info10__sub_kindEPKS1_PKvS4_S6_RNS1_16__dyncast_resultE+0x210>
   23288:	02000044 	movi	r8,1
   2328c:	6015883a 	mov	r10,r12
   23290:	4284f03a 	xor	r2,r8,r10
   23294:	10800110 	cmplti	r2,r2,4
   23298:	401d883a 	mov	r14,r8
   2329c:	10004e26 	beq	r2,zero,233d8 <_ZNK10__cxxabiv121__vmi_class_type_info12__do_dyncastEiNS_17__class_type_info10__sub_kindEPKS1_PKvS4_S6_RNS1_16__dyncast_resultE+0x35c>
   232a0:	7294703a 	and	r10,r14,r10
   232a4:	52800110 	cmplti	r10,r10,4
   232a8:	5000eb26 	beq	r10,zero,23658 <_ZNK10__cxxabiv121__vmi_class_type_info12__do_dyncastEiNS_17__class_type_info10__sub_kindEPKS1_PKvS4_S6_RNS1_16__dyncast_resultE+0x5dc>
   232ac:	89000217 	ldw	r4,8(r17)
   232b0:	00800044 	movi	r2,1
   232b4:	88000015 	stw	zero,0(r17)
   232b8:	88800315 	stw	r2,12(r17)
   232bc:	07000044 	movi	fp,1
   232c0:	00002c06 	br	23374 <_ZNK10__cxxabiv121__vmi_class_type_info12__do_dyncastEiNS_17__class_type_info10__sub_kindEPKS1_PKvS4_S6_RNS1_16__dyncast_resultE+0x2f8>
   232c4:	d8801c17 	ldw	r2,112(sp)
   232c8:	11400117 	ldw	r5,4(r2)
   232cc:	2900bf26 	beq	r5,r4,235cc <_ZNK10__cxxabiv121__vmi_class_type_info12__do_dyncastEiNS_17__class_type_info10__sub_kindEPKS1_PKvS4_S6_RNS1_16__dyncast_resultE+0x550>
   232d0:	20800007 	ldb	r2,0(r4)
   232d4:	10800aa0 	cmpeqi	r2,r2,42
   232d8:	1000b21e 	bne	r2,zero,235a4 <_ZNK10__cxxabiv121__vmi_class_type_info12__do_dyncastEiNS_17__class_type_info10__sub_kindEPKS1_PKvS4_S6_RNS1_16__dyncast_resultE+0x528>
   232dc:	d9000415 	stw	r4,16(sp)
   232e0:	0025b200 	call	25b20 <strcmp>
   232e4:	1000b926 	beq	r2,zero,235cc <_ZNK10__cxxabiv121__vmi_class_type_info12__do_dyncastEiNS_17__class_type_info10__sub_kindEPKS1_PKvS4_S6_RNS1_16__dyncast_resultE+0x550>
   232e8:	d9000417 	ldw	r4,16(sp)
   232ec:	99400117 	ldw	r5,4(r19)
   232f0:	293f811e 	bne	r5,r4,230f8 <_ZNK10__cxxabiv121__vmi_class_type_info12__do_dyncastEiNS_17__class_type_info10__sub_kindEPKS1_PKvS4_S6_RNS1_16__dyncast_resultE+0x7c>
   232f4:	85400015 	stw	r21,0(r16)
   232f8:	84400115 	stw	r17,4(r16)
   232fc:	b800ae16 	blt	r23,zero,235b8 <_ZNK10__cxxabiv121__vmi_class_type_info12__do_dyncastEiNS_17__class_type_info10__sub_kindEPKS1_PKvS4_S6_RNS1_16__dyncast_resultE+0x53c>
   23300:	d8801d17 	ldw	r2,116(sp)
   23304:	add3883a 	add	r9,r21,r23
   23308:	1240a426 	beq	r2,r9,2359c <_ZNK10__cxxabiv121__vmi_class_type_info12__do_dyncastEiNS_17__class_type_info10__sub_kindEPKS1_PKvS4_S6_RNS1_16__dyncast_resultE+0x520>
   2330c:	00800044 	movi	r2,1
   23310:	80800315 	stw	r2,12(r16)
   23314:	0039883a 	mov	fp,zero
   23318:	e005883a 	mov	r2,fp
   2331c:	dfc01a17 	ldw	ra,104(sp)
   23320:	df001917 	ldw	fp,100(sp)
   23324:	ddc01817 	ldw	r23,96(sp)
   23328:	dd801717 	ldw	r22,92(sp)
   2332c:	dd401617 	ldw	r21,88(sp)
   23330:	dd001517 	ldw	r20,84(sp)
   23334:	dcc01417 	ldw	r19,80(sp)
   23338:	dc801317 	ldw	r18,76(sp)
   2333c:	dc401217 	ldw	r17,72(sp)
   23340:	dc001117 	ldw	r16,68(sp)
   23344:	dec01b04 	addi	sp,sp,108
   23348:	f800283a 	ret
   2334c:	d9c00d17 	ldw	r7,52(sp)
   23350:	89800015 	stw	r6,0(r17)
   23354:	89c00115 	stw	r7,4(r17)
   23358:	30009a26 	beq	r6,zero,235c4 <_ZNK10__cxxabiv121__vmi_class_type_info12__do_dyncastEiNS_17__class_type_info10__sub_kindEPKS1_PKvS4_S6_RNS1_16__dyncast_resultE+0x548>
   2335c:	20007826 	beq	r4,zero,23540 <_ZNK10__cxxabiv121__vmi_class_type_info12__do_dyncastEiNS_17__class_type_info10__sub_kindEPKS1_PKvS4_S6_RNS1_16__dyncast_resultE+0x4c4>
   23360:	d8c00517 	ldw	r3,20(sp)
   23364:	1039883a 	mov	fp,r2
   23368:	19800217 	ldw	r6,8(r3)
   2336c:	3180004c 	andi	r6,r6,1
   23370:	303fe926 	beq	r6,zero,23318 <_ZNK10__cxxabiv121__vmi_class_type_info12__do_dyncastEiNS_17__class_type_info10__sub_kindEPKS1_PKvS4_S6_RNS1_16__dyncast_resultE+0x29c>
   23374:	21000120 	cmpeqi	r4,r4,4
   23378:	203fe71e 	bne	r4,zero,23318 <_ZNK10__cxxabiv121__vmi_class_type_info12__do_dyncastEiNS_17__class_type_info10__sub_kindEPKS1_PKvS4_S6_RNS1_16__dyncast_resultE+0x29c>
   2337c:	b5bfffc4 	addi	r22,r22,-1
   23380:	b0bfffe0 	cmpeqi	r2,r22,-1
   23384:	843ffe04 	addi	r16,r16,-8
   23388:	103f7d26 	beq	r2,zero,23180 <_ZNK10__cxxabiv121__vmi_class_type_info12__do_dyncastEiNS_17__class_type_info10__sub_kindEPKS1_PKvS4_S6_RNS1_16__dyncast_resultE+0x104>
   2338c:	b821883a 	mov	r16,r23
   23390:	a02d883a 	mov	r22,r20
   23394:	a82f883a 	mov	r23,r21
   23398:	d88007c3 	ldbu	r2,31(sp)
   2339c:	103fde26 	beq	r2,zero,23318 <_ZNK10__cxxabiv121__vmi_class_type_info12__do_dyncastEiNS_17__class_type_info10__sub_kindEPKS1_PKvS4_S6_RNS1_16__dyncast_resultE+0x29c>
   233a0:	d8800917 	ldw	r2,36(sp)
   233a4:	0009883a 	mov	r4,zero
   233a8:	10800058 	cmpnei	r2,r2,1
   233ac:	103fda26 	beq	r2,zero,23318 <_ZNK10__cxxabiv121__vmi_class_type_info12__do_dyncastEiNS_17__class_type_info10__sub_kindEPKS1_PKvS4_S6_RNS1_16__dyncast_resultE+0x29c>
   233b0:	00800044 	movi	r2,1
   233b4:	d8800915 	stw	r2,36(sp)
   233b8:	003f5f06 	br	23138 <_ZNK10__cxxabiv121__vmi_class_type_info12__do_dyncastEiNS_17__class_type_info10__sub_kindEPKS1_PKvS4_S6_RNS1_16__dyncast_resultE+0xbc>
   233bc:	6015883a 	mov	r10,r12
   233c0:	401d883a 	mov	r14,r8
   233c4:	0300120e 	bge	zero,r12,23410 <_ZNK10__cxxabiv121__vmi_class_type_info12__do_dyncastEiNS_17__class_type_info10__sub_kindEPKS1_PKvS4_S6_RNS1_16__dyncast_resultE+0x394>
   233c8:	02002c0e 	bge	zero,r8,2347c <_ZNK10__cxxabiv121__vmi_class_type_info12__do_dyncastEiNS_17__class_type_info10__sub_kindEPKS1_PKvS4_S6_RNS1_16__dyncast_resultE+0x400>
   233cc:	4284f03a 	xor	r2,r8,r10
   233d0:	10800110 	cmplti	r2,r2,4
   233d4:	103fb21e 	bne	r2,zero,232a0 <_ZNK10__cxxabiv121__vmi_class_type_info12__do_dyncastEiNS_17__class_type_info10__sub_kindEPKS1_PKvS4_S6_RNS1_16__dyncast_resultE+0x224>
   233d8:	40800108 	cmpgei	r2,r8,4
   233dc:	10005526 	beq	r2,zero,23534 <_ZNK10__cxxabiv121__vmi_class_type_info12__do_dyncastEiNS_17__class_type_info10__sub_kindEPKS1_PKvS4_S6_RNS1_16__dyncast_resultE+0x4b8>
   233e0:	d9800c17 	ldw	r6,48(sp)
   233e4:	4280008c 	andi	r10,r8,2
   233e8:	d8800d17 	ldw	r2,52(sp)
   233ec:	89800015 	stw	r6,0(r17)
   233f0:	0039883a 	mov	fp,zero
   233f4:	88800115 	stw	r2,4(r17)
   233f8:	8a000315 	stw	r8,12(r17)
   233fc:	503fc51e 	bne	r10,zero,23314 <_ZNK10__cxxabiv121__vmi_class_type_info12__do_dyncastEiNS_17__class_type_info10__sub_kindEPKS1_PKvS4_S6_RNS1_16__dyncast_resultE+0x298>
   23400:	4080004c 	andi	r2,r8,1
   23404:	10009926 	beq	r2,zero,2366c <_ZNK10__cxxabiv121__vmi_class_type_info12__do_dyncastEiNS_17__class_type_info10__sub_kindEPKS1_PKvS4_S6_RNS1_16__dyncast_resultE+0x5f0>
   23408:	89000217 	ldw	r4,8(r17)
   2340c:	003fd906 	br	23374 <_ZNK10__cxxabiv121__vmi_class_type_info12__do_dyncastEiNS_17__class_type_info10__sub_kindEPKS1_PKvS4_S6_RNS1_16__dyncast_resultE+0x2f8>
   23410:	40800110 	cmplti	r2,r8,4
   23414:	1000381e 	bne	r2,zero,234f8 <_ZNK10__cxxabiv121__vmi_class_type_info12__do_dyncastEiNS_17__class_type_info10__sub_kindEPKS1_PKvS4_S6_RNS1_16__dyncast_resultE+0x47c>
   23418:	4080004c 	andi	r2,r8,1
   2341c:	1000321e 	bne	r2,zero,234e8 <_ZNK10__cxxabiv121__vmi_class_type_info12__do_dyncastEiNS_17__class_type_info10__sub_kindEPKS1_PKvS4_S6_RNS1_16__dyncast_resultE+0x46c>
   23420:	4080005c 	xori	r2,r8,1
   23424:	10800108 	cmpgei	r2,r2,4
   23428:	103fee1e 	bne	r2,zero,233e4 <_ZNK10__cxxabiv121__vmi_class_type_info12__do_dyncastEiNS_17__class_type_info10__sub_kindEPKS1_PKvS4_S6_RNS1_16__dyncast_resultE+0x368>
   2342c:	003fa006 	br	232b0 <_ZNK10__cxxabiv121__vmi_class_type_info12__do_dyncastEiNS_17__class_type_info10__sub_kindEPKS1_PKvS4_S6_RNS1_16__dyncast_resultE+0x234>
   23430:	900d883a 	mov	r6,r18
   23434:	003f6006 	br	231b8 <_ZNK10__cxxabiv121__vmi_class_type_info12__do_dyncastEiNS_17__class_type_info10__sub_kindEPKS1_PKvS4_S6_RNS1_16__dyncast_resultE+0x13c>
   23438:	783f861e 	bne	r15,zero,23254 <_ZNK10__cxxabiv121__vmi_class_type_info12__do_dyncastEiNS_17__class_type_info10__sub_kindEPKS1_PKvS4_S6_RNS1_16__dyncast_resultE+0x1d8>
   2343c:	303f871e 	bne	r6,zero,2325c <_ZNK10__cxxabiv121__vmi_class_type_info12__do_dyncastEiNS_17__class_type_info10__sub_kindEPKS1_PKvS4_S6_RNS1_16__dyncast_resultE+0x1e0>
   23440:	003fcc06 	br	23374 <_ZNK10__cxxabiv121__vmi_class_type_info12__do_dyncastEiNS_17__class_type_info10__sub_kindEPKS1_PKvS4_S6_RNS1_16__dyncast_resultE+0x2f8>
   23444:	39c000cc 	andi	r7,r7,3
   23448:	383f641e 	bne	r7,zero,231dc <_ZNK10__cxxabiv121__vmi_class_type_info12__do_dyncastEiNS_17__class_type_info10__sub_kindEPKS1_PKvS4_S6_RNS1_16__dyncast_resultE+0x160>
   2344c:	003fcb06 	br	2337c <_ZNK10__cxxabiv121__vmi_class_type_info12__do_dyncastEiNS_17__class_type_info10__sub_kindEPKS1_PKvS4_S6_RNS1_16__dyncast_resultE+0x300>
   23450:	00800044 	movi	r2,1
   23454:	d88007c5 	stb	r2,31(sp)
   23458:	003fc806 	br	2337c <_ZNK10__cxxabiv121__vmi_class_type_info12__do_dyncastEiNS_17__class_type_info10__sub_kindEPKS1_PKvS4_S6_RNS1_16__dyncast_resultE+0x300>
   2345c:	88800117 	ldw	r2,4(r17)
   23460:	d9800d17 	ldw	r6,52(sp)
   23464:	1184b03a 	or	r2,r2,r6
   23468:	88800115 	stw	r2,4(r17)
   2346c:	003fc106 	br	23374 <_ZNK10__cxxabiv121__vmi_class_type_info12__do_dyncastEiNS_17__class_type_info10__sub_kindEPKS1_PKvS4_S6_RNS1_16__dyncast_resultE+0x2f8>
   23470:	10803fcc 	andi	r2,r2,255
   23474:	103f791e 	bne	r2,zero,2325c <_ZNK10__cxxabiv121__vmi_class_type_info12__do_dyncastEiNS_17__class_type_info10__sub_kindEPKS1_PKvS4_S6_RNS1_16__dyncast_resultE+0x1e0>
   23478:	003fbe06 	br	23374 <_ZNK10__cxxabiv121__vmi_class_type_info12__do_dyncastEiNS_17__class_type_info10__sub_kindEPKS1_PKvS4_S6_RNS1_16__dyncast_resultE+0x2f8>
   2347c:	60800108 	cmpgei	r2,r12,4
   23480:	10000626 	beq	r2,zero,2349c <_ZNK10__cxxabiv121__vmi_class_type_info12__do_dyncastEiNS_17__class_type_info10__sub_kindEPKS1_PKvS4_S6_RNS1_16__dyncast_resultE+0x420>
   23484:	6080004c 	andi	r2,r12,1
   23488:	10004126 	beq	r2,zero,23590 <_ZNK10__cxxabiv121__vmi_class_type_info12__do_dyncastEiNS_17__class_type_info10__sub_kindEPKS1_PKvS4_S6_RNS1_16__dyncast_resultE+0x514>
   2348c:	d8800517 	ldw	r2,20(sp)
   23490:	10800217 	ldw	r2,8(r2)
   23494:	1080008c 	andi	r2,r2,2
   23498:	10003d26 	beq	r2,zero,23590 <_ZNK10__cxxabiv121__vmi_class_type_info12__do_dyncastEiNS_17__class_type_info10__sub_kindEPKS1_PKvS4_S6_RNS1_16__dyncast_resultE+0x514>
   2349c:	d9800c17 	ldw	r6,48(sp)
   234a0:	a800590e 	bge	r21,zero,23608 <_ZNK10__cxxabiv121__vmi_class_type_info12__do_dyncastEiNS_17__class_type_info10__sub_kindEPKS1_PKvS4_S6_RNS1_16__dyncast_resultE+0x58c>
   234a4:	d8800617 	ldw	r2,24(sp)
   234a8:	10005a26 	beq	r2,zero,23614 <_ZNK10__cxxabiv121__vmi_class_type_info12__do_dyncastEiNS_17__class_type_info10__sub_kindEPKS1_PKvS4_S6_RNS1_16__dyncast_resultE+0x598>
   234ac:	d8c01d17 	ldw	r3,116(sp)
   234b0:	98800017 	ldw	r2,0(r19)
   234b4:	d9c01c17 	ldw	r7,112(sp)
   234b8:	d8c00015 	stw	r3,0(sp)
   234bc:	10800817 	ldw	r2,32(r2)
   234c0:	da800b15 	stw	r10,44(sp)
   234c4:	db000a15 	stw	r12,40(sp)
   234c8:	a80b883a 	mov	r5,r21
   234cc:	9809883a 	mov	r4,r19
   234d0:	103ee83a 	callr	r2
   234d4:	db000a17 	ldw	r12,40(sp)
   234d8:	da800b17 	ldw	r10,44(sp)
   234dc:	1011883a 	mov	r8,r2
   234e0:	101d883a 	mov	r14,r2
   234e4:	003fb906 	br	233cc <_ZNK10__cxxabiv121__vmi_class_type_info12__do_dyncastEiNS_17__class_type_info10__sub_kindEPKS1_PKvS4_S6_RNS1_16__dyncast_resultE+0x350>
   234e8:	d8800517 	ldw	r2,20(sp)
   234ec:	10800217 	ldw	r2,8(r2)
   234f0:	1080008c 	andi	r2,r2,2
   234f4:	103fca26 	beq	r2,zero,23420 <_ZNK10__cxxabiv121__vmi_class_type_info12__do_dyncastEiNS_17__class_type_info10__sub_kindEPKS1_PKvS4_S6_RNS1_16__dyncast_resultE+0x3a4>
   234f8:	a8001316 	blt	r21,zero,23548 <_ZNK10__cxxabiv121__vmi_class_type_info12__do_dyncastEiNS_17__class_type_info10__sub_kindEPKS1_PKvS4_S6_RNS1_16__dyncast_resultE+0x4cc>
   234fc:	d8801d17 	ldw	r2,116(sp)
   23500:	7d5f883a 	add	r15,r15,r21
   23504:	13c04a26 	beq	r2,r15,23630 <_ZNK10__cxxabiv121__vmi_class_type_info12__do_dyncastEiNS_17__class_type_info10__sub_kindEPKS1_PKvS4_S6_RNS1_16__dyncast_resultE+0x5b4>
   23508:	02004e16 	blt	zero,r8,23644 <_ZNK10__cxxabiv121__vmi_class_type_info12__do_dyncastEiNS_17__class_type_info10__sub_kindEPKS1_PKvS4_S6_RNS1_16__dyncast_resultE+0x5c8>
   2350c:	d8c01d17 	ldw	r3,116(sp)
   23510:	3545883a 	add	r2,r6,r21
   23514:	18805726 	beq	r3,r2,23674 <_ZNK10__cxxabiv121__vmi_class_type_info12__do_dyncastEiNS_17__class_type_info10__sub_kindEPKS1_PKvS4_S6_RNS1_16__dyncast_resultE+0x5f8>
   23518:	02800044 	movi	r10,1
   2351c:	02000044 	movi	r8,1
   23520:	5080005c 	xori	r2,r10,1
   23524:	10800108 	cmpgei	r2,r2,4
   23528:	103f6026 	beq	r2,zero,232ac <_ZNK10__cxxabiv121__vmi_class_type_info12__do_dyncastEiNS_17__class_type_info10__sub_kindEPKS1_PKvS4_S6_RNS1_16__dyncast_resultE+0x230>
   2352c:	5280008c 	andi	r10,r10,2
   23530:	003fb106 	br	233f8 <_ZNK10__cxxabiv121__vmi_class_type_info12__do_dyncastEiNS_17__class_type_info10__sub_kindEPKS1_PKvS4_S6_RNS1_16__dyncast_resultE+0x37c>
   23534:	6280008c 	andi	r10,r12,2
   23538:	6011883a 	mov	r8,r12
   2353c:	003fae06 	br	233f8 <_ZNK10__cxxabiv121__vmi_class_type_info12__do_dyncastEiNS_17__class_type_info10__sub_kindEPKS1_PKvS4_S6_RNS1_16__dyncast_resultE+0x37c>
   23540:	1039883a 	mov	fp,r2
   23544:	003f8d06 	br	2337c <_ZNK10__cxxabiv121__vmi_class_type_info12__do_dyncastEiNS_17__class_type_info10__sub_kindEPKS1_PKvS4_S6_RNS1_16__dyncast_resultE+0x300>
   23548:	d8800817 	ldw	r2,32(sp)
   2354c:	db800a15 	stw	r14,40(sp)
   23550:	10003b1e 	bne	r2,zero,23640 <_ZNK10__cxxabiv121__vmi_class_type_info12__do_dyncastEiNS_17__class_type_info10__sub_kindEPKS1_PKvS4_S6_RNS1_16__dyncast_resultE+0x5c4>
   23554:	d8c01d17 	ldw	r3,116(sp)
   23558:	98800017 	ldw	r2,0(r19)
   2355c:	d9c01c17 	ldw	r7,112(sp)
   23560:	d8c00015 	stw	r3,0(sp)
   23564:	10800817 	ldw	r2,32(r2)
   23568:	da000b15 	stw	r8,44(sp)
   2356c:	780d883a 	mov	r6,r15
   23570:	a80b883a 	mov	r5,r21
   23574:	9809883a 	mov	r4,r19
   23578:	103ee83a 	callr	r2
   2357c:	db800a17 	ldw	r14,40(sp)
   23580:	da000b17 	ldw	r8,44(sp)
   23584:	1019883a 	mov	r12,r2
   23588:	1015883a 	mov	r10,r2
   2358c:	003f8e06 	br	233c8 <_ZNK10__cxxabiv121__vmi_class_type_info12__do_dyncastEiNS_17__class_type_info10__sub_kindEPKS1_PKvS4_S6_RNS1_16__dyncast_resultE+0x34c>
   23590:	6080005c 	xori	r2,r12,1
   23594:	6011883a 	mov	r8,r12
   23598:	003fe206 	br	23524 <_ZNK10__cxxabiv121__vmi_class_type_info12__do_dyncastEiNS_17__class_type_info10__sub_kindEPKS1_PKvS4_S6_RNS1_16__dyncast_resultE+0x4a8>
   2359c:	00800184 	movi	r2,6
   235a0:	003f5b06 	br	23310 <_ZNK10__cxxabiv121__vmi_class_type_info12__do_dyncastEiNS_17__class_type_info10__sub_kindEPKS1_PKvS4_S6_RNS1_16__dyncast_resultE+0x294>
   235a4:	98800117 	ldw	r2,4(r19)
   235a8:	20bf5226 	beq	r4,r2,232f4 <_ZNK10__cxxabiv121__vmi_class_type_info12__do_dyncastEiNS_17__class_type_info10__sub_kindEPKS1_PKvS4_S6_RNS1_16__dyncast_resultE+0x278>
   235ac:	b83ed50e 	bge	r23,zero,23104 <_ZNK10__cxxabiv121__vmi_class_type_info12__do_dyncastEiNS_17__class_type_info10__sub_kindEPKS1_PKvS4_S6_RNS1_16__dyncast_resultE+0x88>
   235b0:	002d883a 	mov	r22,zero
   235b4:	003ed506 	br	2310c <_ZNK10__cxxabiv121__vmi_class_type_info12__do_dyncastEiNS_17__class_type_info10__sub_kindEPKS1_PKvS4_S6_RNS1_16__dyncast_resultE+0x90>
   235b8:	ba7fff98 	cmpnei	r9,r23,-2
   235bc:	483f551e 	bne	r9,zero,23314 <_ZNK10__cxxabiv121__vmi_class_type_info12__do_dyncastEiNS_17__class_type_info10__sub_kindEPKS1_PKvS4_S6_RNS1_16__dyncast_resultE+0x298>
   235c0:	003f5206 	br	2330c <_ZNK10__cxxabiv121__vmi_class_type_info12__do_dyncastEiNS_17__class_type_info10__sub_kindEPKS1_PKvS4_S6_RNS1_16__dyncast_resultE+0x290>
   235c4:	1039883a 	mov	fp,r2
   235c8:	003f6a06 	br	23374 <_ZNK10__cxxabiv121__vmi_class_type_info12__do_dyncastEiNS_17__class_type_info10__sub_kindEPKS1_PKvS4_S6_RNS1_16__dyncast_resultE+0x2f8>
   235cc:	84400215 	stw	r17,8(r16)
   235d0:	0039883a 	mov	fp,zero
   235d4:	003f5006 	br	23318 <_ZNK10__cxxabiv121__vmi_class_type_info12__do_dyncastEiNS_17__class_type_info10__sub_kindEPKS1_PKvS4_S6_RNS1_16__dyncast_resultE+0x29c>
   235d8:	d9c00c17 	ldw	r7,48(sp)
   235dc:	8821883a 	mov	r16,r17
   235e0:	4023883a 	mov	r17,r8
   235e4:	d8c00d17 	ldw	r3,52(sp)
   235e8:	81c00015 	stw	r7,0(r16)
   235ec:	84400315 	stw	r17,12(r16)
   235f0:	80c00115 	stw	r3,4(r16)
   235f4:	1039883a 	mov	fp,r2
   235f8:	003f4706 	br	23318 <_ZNK10__cxxabiv121__vmi_class_type_info12__do_dyncastEiNS_17__class_type_info10__sub_kindEPKS1_PKvS4_S6_RNS1_16__dyncast_resultE+0x29c>
   235fc:	8821883a 	mov	r16,r17
   23600:	4023883a 	mov	r17,r8
   23604:	003ff706 	br	235e4 <_ZNK10__cxxabiv121__vmi_class_type_info12__do_dyncastEiNS_17__class_type_info10__sub_kindEPKS1_PKvS4_S6_RNS1_16__dyncast_resultE+0x568>
   23608:	d8c01d17 	ldw	r3,116(sp)
   2360c:	3545883a 	add	r2,r6,r21
   23610:	18800226 	beq	r3,r2,2361c <_ZNK10__cxxabiv121__vmi_class_type_info12__do_dyncastEiNS_17__class_type_info10__sub_kindEPKS1_PKvS4_S6_RNS1_16__dyncast_resultE+0x5a0>
   23614:	6011883a 	mov	r8,r12
   23618:	003fc106 	br	23520 <_ZNK10__cxxabiv121__vmi_class_type_info12__do_dyncastEiNS_17__class_type_info10__sub_kindEPKS1_PKvS4_S6_RNS1_16__dyncast_resultE+0x4a4>
   2361c:	6080019c 	xori	r2,r12,6
   23620:	10800108 	cmpgei	r2,r2,4
   23624:	1000131e 	bne	r2,zero,23674 <_ZNK10__cxxabiv121__vmi_class_type_info12__do_dyncastEiNS_17__class_type_info10__sub_kindEPKS1_PKvS4_S6_RNS1_16__dyncast_resultE+0x5f8>
   23628:	03800184 	movi	r14,6
   2362c:	003f1c06 	br	232a0 <_ZNK10__cxxabiv121__vmi_class_type_info12__do_dyncastEiNS_17__class_type_info10__sub_kindEPKS1_PKvS4_S6_RNS1_16__dyncast_resultE+0x224>
   23630:	02800184 	movi	r10,6
   23634:	0200120e 	bge	zero,r8,23680 <_ZNK10__cxxabiv121__vmi_class_type_info12__do_dyncastEiNS_17__class_type_info10__sub_kindEPKS1_PKvS4_S6_RNS1_16__dyncast_resultE+0x604>
   23638:	03000184 	movi	r12,6
   2363c:	003f6306 	br	233cc <_ZNK10__cxxabiv121__vmi_class_type_info12__do_dyncastEiNS_17__class_type_info10__sub_kindEPKS1_PKvS4_S6_RNS1_16__dyncast_resultE+0x350>
   23640:	023fb50e 	bge	zero,r8,23518 <_ZNK10__cxxabiv121__vmi_class_type_info12__do_dyncastEiNS_17__class_type_info10__sub_kindEPKS1_PKvS4_S6_RNS1_16__dyncast_resultE+0x49c>
   23644:	4080005c 	xori	r2,r8,1
   23648:	10800108 	cmpgei	r2,r2,4
   2364c:	103f1826 	beq	r2,zero,232b0 <_ZNK10__cxxabiv121__vmi_class_type_info12__do_dyncastEiNS_17__class_type_info10__sub_kindEPKS1_PKvS4_S6_RNS1_16__dyncast_resultE+0x234>
   23650:	03000044 	movi	r12,1
   23654:	003f6006 	br	233d8 <_ZNK10__cxxabiv121__vmi_class_type_info12__do_dyncastEiNS_17__class_type_info10__sub_kindEPKS1_PKvS4_S6_RNS1_16__dyncast_resultE+0x35c>
   23658:	00800084 	movi	r2,2
   2365c:	88000015 	stw	zero,0(r17)
   23660:	88800315 	stw	r2,12(r17)
   23664:	07000044 	movi	fp,1
   23668:	003f2b06 	br	23318 <_ZNK10__cxxabiv121__vmi_class_type_info12__do_dyncastEiNS_17__class_type_info10__sub_kindEPKS1_PKvS4_S6_RNS1_16__dyncast_resultE+0x29c>
   2366c:	1039883a 	mov	fp,r2
   23670:	003f2906 	br	23318 <_ZNK10__cxxabiv121__vmi_class_type_info12__do_dyncastEiNS_17__class_type_info10__sub_kindEPKS1_PKvS4_S6_RNS1_16__dyncast_resultE+0x29c>
   23674:	02800084 	movi	r10,2
   23678:	02000184 	movi	r8,6
   2367c:	003f5a06 	br	233e8 <_ZNK10__cxxabiv121__vmi_class_type_info12__do_dyncastEiNS_17__class_type_info10__sub_kindEPKS1_PKvS4_S6_RNS1_16__dyncast_resultE+0x36c>
   23680:	02000184 	movi	r8,6
   23684:	003fa906 	br	2352c <_ZNK10__cxxabiv121__vmi_class_type_info12__do_dyncastEiNS_17__class_type_info10__sub_kindEPKS1_PKvS4_S6_RNS1_16__dyncast_resultE+0x4b0>

00023688 <_ZNK10__cxxabiv121__vmi_class_type_info11__do_upcastEPKNS_17__class_type_infoEPKvRNS1_15__upcast_resultE>:
   23688:	defff004 	addi	sp,sp,-64
   2368c:	dd800c15 	stw	r22,48(sp)
   23690:	dd400b15 	stw	r21,44(sp)
   23694:	dd000a15 	stw	r20,40(sp)
   23698:	dc800815 	stw	r18,32(sp)
   2369c:	dc000615 	stw	r16,24(sp)
   236a0:	dfc00f15 	stw	ra,60(sp)
   236a4:	df000e15 	stw	fp,56(sp)
   236a8:	ddc00d15 	stw	r23,52(sp)
   236ac:	dcc00915 	stw	r19,36(sp)
   236b0:	dc400715 	stw	r17,28(sp)
   236b4:	2021883a 	mov	r16,r4
   236b8:	d9000115 	stw	r4,4(sp)
   236bc:	2825883a 	mov	r18,r5
   236c0:	3029883a 	mov	r20,r6
   236c4:	382b883a 	mov	r21,r7
   236c8:	0022acc0 	call	22acc <_ZNK10__cxxabiv117__class_type_info11__do_upcastEPKS0_PKvRNS0_15__upcast_resultE>
   236cc:	102d883a 	mov	r22,r2
   236d0:	10803fcc 	andi	r2,r2,255
   236d4:	1000551e 	bne	r2,zero,2382c <_ZNK10__cxxabiv121__vmi_class_type_info11__do_upcastEPKNS_17__class_type_infoEPKvRNS1_15__upcast_resultE+0x1a4>
   236d8:	ac400217 	ldw	r17,8(r21)
   236dc:	8880040c 	andi	r2,r17,16
   236e0:	10007c1e 	bne	r2,zero,238d4 <_ZNK10__cxxabiv121__vmi_class_type_info11__do_upcastEPKNS_17__class_type_infoEPKvRNS1_15__upcast_resultE+0x24c>
   236e4:	d8800117 	ldw	r2,4(sp)
   236e8:	14000317 	ldw	r16,12(r2)
   236ec:	85ffffc4 	addi	r23,r16,-1
   236f0:	80007526 	beq	r16,zero,238c8 <_ZNK10__cxxabiv121__vmi_class_type_info11__do_upcastEPKNS_17__class_type_infoEPKvRNS1_15__upcast_resultE+0x240>
   236f4:	84000044 	addi	r16,r16,1
   236f8:	802090fa 	slli	r16,r16,3
   236fc:	88c0004c 	andi	r3,r17,1
   23700:	d8c00015 	stw	r3,0(sp)
   23704:	1421883a 	add	r16,r2,r16
   23708:	00002706 	br	237a8 <_ZNK10__cxxabiv121__vmi_class_type_info11__do_upcastEPKNS_17__class_type_infoEPKvRNS1_15__upcast_resultE+0x120>
   2370c:	1005d23a 	srai	r2,r2,8
   23710:	98000326 	beq	r19,zero,23720 <_ZNK10__cxxabiv121__vmi_class_type_info11__do_upcastEPKNS_17__class_type_infoEPKvRNS1_15__upcast_resultE+0x98>
   23714:	a1800017 	ldw	r6,0(r20)
   23718:	3085883a 	add	r2,r6,r2
   2371c:	10800017 	ldw	r2,0(r2)
   23720:	a08d883a 	add	r6,r20,r2
   23724:	81000017 	ldw	r4,0(r16)
   23728:	d9c00204 	addi	r7,sp,8
   2372c:	900b883a 	mov	r5,r18
   23730:	20800017 	ldw	r2,0(r4)
   23734:	10800617 	ldw	r2,24(r2)
   23738:	103ee83a 	callr	r2
   2373c:	102d883a 	mov	r22,r2
   23740:	10803fcc 	andi	r2,r2,255
   23744:	10001426 	beq	r2,zero,23798 <_ZNK10__cxxabiv121__vmi_class_type_info11__do_upcastEPKNS_17__class_type_infoEPKvRNS1_15__upcast_resultE+0x110>
   23748:	d8800517 	ldw	r2,20(sp)
   2374c:	10800218 	cmpnei	r2,r2,8
   23750:	10002226 	beq	r2,zero,237dc <_ZNK10__cxxabiv121__vmi_class_type_info11__do_upcastEPKNS_17__class_type_infoEPKvRNS1_15__upcast_resultE+0x154>
   23754:	d8800317 	ldw	r2,12(sp)
   23758:	11000110 	cmplti	r4,r2,4
   2375c:	2000041e 	bne	r4,zero,23770 <_ZNK10__cxxabiv121__vmi_class_type_info11__do_upcastEPKNS_17__class_type_infoEPKvRNS1_15__upcast_resultE+0xe8>
   23760:	e000031e 	bne	fp,zero,23770 <_ZNK10__cxxabiv121__vmi_class_type_info11__do_upcastEPKNS_17__class_type_infoEPKvRNS1_15__upcast_resultE+0xe8>
   23764:	00ffff44 	movi	r3,-3
   23768:	10c4703a 	and	r2,r2,r3
   2376c:	d8800315 	stw	r2,12(sp)
   23770:	a8800317 	ldw	r2,12(r21)
   23774:	10001d26 	beq	r2,zero,237ec <_ZNK10__cxxabiv121__vmi_class_type_info11__do_upcastEPKNS_17__class_type_infoEPKvRNS1_15__upcast_resultE+0x164>
   23778:	a9000017 	ldw	r4,0(r21)
   2377c:	d9400217 	ldw	r5,8(sp)
   23780:	2140561e 	bne	r4,r5,238dc <_ZNK10__cxxabiv121__vmi_class_type_info11__do_upcastEPKNS_17__class_type_infoEPKvRNS1_15__upcast_resultE+0x254>
   23784:	20003626 	beq	r4,zero,23860 <_ZNK10__cxxabiv121__vmi_class_type_info11__do_upcastEPKNS_17__class_type_infoEPKvRNS1_15__upcast_resultE+0x1d8>
   23788:	a8800117 	ldw	r2,4(r21)
   2378c:	d9000317 	ldw	r4,12(sp)
   23790:	1104b03a 	or	r2,r2,r4
   23794:	a8800115 	stw	r2,4(r21)
   23798:	bdffffc4 	addi	r23,r23,-1
   2379c:	b8bfffd8 	cmpnei	r2,r23,-1
   237a0:	843ffe04 	addi	r16,r16,-8
   237a4:	10004826 	beq	r2,zero,238c8 <_ZNK10__cxxabiv121__vmi_class_type_info11__do_upcastEPKNS_17__class_type_infoEPKvRNS1_15__upcast_resultE+0x240>
   237a8:	80800117 	ldw	r2,4(r16)
   237ac:	d8c00017 	ldw	r3,0(sp)
   237b0:	d8000215 	stw	zero,8(sp)
   237b4:	1700008c 	andi	fp,r2,2
   237b8:	d8000315 	stw	zero,12(sp)
   237bc:	dc400415 	stw	r17,16(sp)
   237c0:	d8000515 	stw	zero,20(sp)
   237c4:	e0c8b03a 	or	r4,fp,r3
   237c8:	14c0004c 	andi	r19,r2,1
   237cc:	203ff226 	beq	r4,zero,23798 <_ZNK10__cxxabiv121__vmi_class_type_info11__do_upcastEPKNS_17__class_type_infoEPKvRNS1_15__upcast_resultE+0x110>
   237d0:	a03fce1e 	bne	r20,zero,2370c <_ZNK10__cxxabiv121__vmi_class_type_info11__do_upcastEPKNS_17__class_type_infoEPKvRNS1_15__upcast_resultE+0x84>
   237d4:	000d883a 	mov	r6,zero
   237d8:	003fd206 	br	23724 <_ZNK10__cxxabiv121__vmi_class_type_info11__do_upcastEPKNS_17__class_type_infoEPKvRNS1_15__upcast_resultE+0x9c>
   237dc:	983fdd26 	beq	r19,zero,23754 <_ZNK10__cxxabiv121__vmi_class_type_info11__do_upcastEPKNS_17__class_type_infoEPKvRNS1_15__upcast_resultE+0xcc>
   237e0:	80800017 	ldw	r2,0(r16)
   237e4:	d8800515 	stw	r2,20(sp)
   237e8:	003fda06 	br	23754 <_ZNK10__cxxabiv121__vmi_class_type_info11__do_upcastEPKNS_17__class_type_infoEPKvRNS1_15__upcast_resultE+0xcc>
   237ec:	d9000217 	ldw	r4,8(sp)
   237f0:	d8800317 	ldw	r2,12(sp)
   237f4:	a9000015 	stw	r4,0(r21)
   237f8:	d9000417 	ldw	r4,16(sp)
   237fc:	a8800115 	stw	r2,4(r21)
   23800:	a9000215 	stw	r4,8(r21)
   23804:	d9000517 	ldw	r4,20(sp)
   23808:	a9000315 	stw	r4,12(r21)
   2380c:	11000110 	cmplti	r4,r2,4
   23810:	2000061e 	bne	r4,zero,2382c <_ZNK10__cxxabiv121__vmi_class_type_info11__do_upcastEPKNS_17__class_type_infoEPKvRNS1_15__upcast_resultE+0x1a4>
   23814:	1100008c 	andi	r4,r2,2
   23818:	20002126 	beq	r4,zero,238a0 <_ZNK10__cxxabiv121__vmi_class_type_info11__do_upcastEPKNS_17__class_type_infoEPKvRNS1_15__upcast_resultE+0x218>
   2381c:	d8800117 	ldw	r2,4(sp)
   23820:	10800217 	ldw	r2,8(r2)
   23824:	1080004c 	andi	r2,r2,1
   23828:	103fdb1e 	bne	r2,zero,23798 <_ZNK10__cxxabiv121__vmi_class_type_info11__do_upcastEPKNS_17__class_type_infoEPKvRNS1_15__upcast_resultE+0x110>
   2382c:	b005883a 	mov	r2,r22
   23830:	dfc00f17 	ldw	ra,60(sp)
   23834:	df000e17 	ldw	fp,56(sp)
   23838:	ddc00d17 	ldw	r23,52(sp)
   2383c:	dd800c17 	ldw	r22,48(sp)
   23840:	dd400b17 	ldw	r21,44(sp)
   23844:	dd000a17 	ldw	r20,40(sp)
   23848:	dcc00917 	ldw	r19,36(sp)
   2384c:	dc800817 	ldw	r18,32(sp)
   23850:	dc400717 	ldw	r17,28(sp)
   23854:	dc000617 	ldw	r16,24(sp)
   23858:	dec01004 	addi	sp,sp,64
   2385c:	f800283a 	ret
   23860:	d9000517 	ldw	r4,20(sp)
   23864:	21400220 	cmpeqi	r5,r4,8
   23868:	28000a1e 	bne	r5,zero,23894 <_ZNK10__cxxabiv121__vmi_class_type_info11__do_upcastEPKNS_17__class_type_infoEPKvRNS1_15__upcast_resultE+0x20c>
   2386c:	11400220 	cmpeqi	r5,r2,8
   23870:	2800081e 	bne	r5,zero,23894 <_ZNK10__cxxabiv121__vmi_class_type_info11__do_upcastEPKNS_17__class_type_infoEPKvRNS1_15__upcast_resultE+0x20c>
   23874:	21000117 	ldw	r4,4(r4)
   23878:	11400117 	ldw	r5,4(r2)
   2387c:	217fc226 	beq	r4,r5,23788 <_ZNK10__cxxabiv121__vmi_class_type_info11__do_upcastEPKNS_17__class_type_infoEPKvRNS1_15__upcast_resultE+0x100>
   23880:	20800007 	ldb	r2,0(r4)
   23884:	10800aa0 	cmpeqi	r2,r2,42
   23888:	1000021e 	bne	r2,zero,23894 <_ZNK10__cxxabiv121__vmi_class_type_info11__do_upcastEPKNS_17__class_type_infoEPKvRNS1_15__upcast_resultE+0x20c>
   2388c:	0025b200 	call	25b20 <strcmp>
   23890:	103fbd26 	beq	r2,zero,23788 <_ZNK10__cxxabiv121__vmi_class_type_info11__do_upcastEPKNS_17__class_type_infoEPKvRNS1_15__upcast_resultE+0x100>
   23894:	00800084 	movi	r2,2
   23898:	a8800115 	stw	r2,4(r21)
   2389c:	003fe306 	br	2382c <_ZNK10__cxxabiv121__vmi_class_type_info11__do_upcastEPKNS_17__class_type_infoEPKvRNS1_15__upcast_resultE+0x1a4>
   238a0:	1080004c 	andi	r2,r2,1
   238a4:	103fe126 	beq	r2,zero,2382c <_ZNK10__cxxabiv121__vmi_class_type_info11__do_upcastEPKNS_17__class_type_infoEPKvRNS1_15__upcast_resultE+0x1a4>
   238a8:	d8800117 	ldw	r2,4(sp)
   238ac:	10800217 	ldw	r2,8(r2)
   238b0:	1080008c 	andi	r2,r2,2
   238b4:	103fdd26 	beq	r2,zero,2382c <_ZNK10__cxxabiv121__vmi_class_type_info11__do_upcastEPKNS_17__class_type_infoEPKvRNS1_15__upcast_resultE+0x1a4>
   238b8:	bdffffc4 	addi	r23,r23,-1
   238bc:	b8bfffd8 	cmpnei	r2,r23,-1
   238c0:	843ffe04 	addi	r16,r16,-8
   238c4:	103fb81e 	bne	r2,zero,237a8 <_ZNK10__cxxabiv121__vmi_class_type_info11__do_upcastEPKNS_17__class_type_infoEPKvRNS1_15__upcast_resultE+0x120>
   238c8:	ad800117 	ldw	r22,4(r21)
   238cc:	b02cc03a 	cmpne	r22,r22,zero
   238d0:	003fd606 	br	2382c <_ZNK10__cxxabiv121__vmi_class_type_info11__do_upcastEPKNS_17__class_type_infoEPKvRNS1_15__upcast_resultE+0x1a4>
   238d4:	84400217 	ldw	r17,8(r16)
   238d8:	003f8206 	br	236e4 <_ZNK10__cxxabiv121__vmi_class_type_info11__do_upcastEPKNS_17__class_type_infoEPKvRNS1_15__upcast_resultE+0x5c>
   238dc:	00800084 	movi	r2,2
   238e0:	a8000015 	stw	zero,0(r21)
   238e4:	a8800115 	stw	r2,4(r21)
   238e8:	003fd006 	br	2382c <_ZNK10__cxxabiv121__vmi_class_type_info11__do_upcastEPKNS_17__class_type_infoEPKvRNS1_15__upcast_resultE+0x1a4>

000238ec <_ZdlPv>:
   238ec:	00251e81 	jmpi	251e8 <free>

000238f0 <floorf>:
   238f0:	00a00034 	movhi	r2,32768
   238f4:	defffb04 	addi	sp,sp,-20
   238f8:	10bfffc4 	addi	r2,r2,-1
   238fc:	dc400115 	stw	r17,4(sp)
   23900:	1122703a 	and	r17,r2,r4
   23904:	dc800215 	stw	r18,8(sp)
   23908:	8824d5fa 	srli	r18,r17,23
   2390c:	dc000015 	stw	r16,0(sp)
   23910:	dfc00415 	stw	ra,16(sp)
   23914:	94bfe044 	addi	r18,r18,-127
   23918:	dcc00315 	stw	r19,12(sp)
   2391c:	908005c8 	cmpgei	r2,r18,23
   23920:	2021883a 	mov	r16,r4
   23924:	1000151e 	bne	r2,zero,2397c <floorf+0x8c>
   23928:	2027883a 	mov	r19,r4
   2392c:	90002016 	blt	r18,zero,239b0 <floorf+0xc0>
   23930:	00802034 	movhi	r2,128
   23934:	10bfffc4 	addi	r2,r2,-1
   23938:	14a3d83a 	sra	r17,r2,r18
   2393c:	8904703a 	and	r2,r17,r4
   23940:	10001026 	beq	r2,zero,23984 <floorf+0x94>
   23944:	015c52b4 	movhi	r5,29002
   23948:	297cb284 	addi	r5,r5,-3382
   2394c:	0023c7c0 	call	23c7c <__addsf3>
   23950:	000b883a 	mov	r5,zero
   23954:	1009883a 	mov	r4,r2
   23958:	00244cc0 	call	244cc <__gesf2>
   2395c:	0080090e 	bge	zero,r2,23984 <floorf+0x94>
   23960:	8000030e 	bge	r16,zero,23970 <floorf+0x80>
   23964:	00802034 	movhi	r2,128
   23968:	1485d83a 	sra	r2,r2,r18
   2396c:	1427883a 	add	r19,r2,r16
   23970:	0460303a 	nor	r16,zero,r17
   23974:	84c4703a 	and	r2,r16,r19
   23978:	00000306 	br	23988 <floorf+0x98>
   2397c:	009fe034 	movhi	r2,32640
   23980:	8880082e 	bgeu	r17,r2,239a4 <floorf+0xb4>
   23984:	8005883a 	mov	r2,r16
   23988:	dfc00417 	ldw	ra,16(sp)
   2398c:	dcc00317 	ldw	r19,12(sp)
   23990:	dc800217 	ldw	r18,8(sp)
   23994:	dc400117 	ldw	r17,4(sp)
   23998:	dc000017 	ldw	r16,0(sp)
   2399c:	dec00504 	addi	sp,sp,20
   239a0:	f800283a 	ret
   239a4:	200b883a 	mov	r5,r4
   239a8:	0023c7c0 	call	23c7c <__addsf3>
   239ac:	003ff606 	br	23988 <floorf+0x98>
   239b0:	015c52b4 	movhi	r5,29002
   239b4:	297cb284 	addi	r5,r5,-3382
   239b8:	0023c7c0 	call	23c7c <__addsf3>
   239bc:	000b883a 	mov	r5,zero
   239c0:	1009883a 	mov	r4,r2
   239c4:	00244cc0 	call	244cc <__gesf2>
   239c8:	00bfee0e 	bge	zero,r2,23984 <floorf+0x94>
   239cc:	80000216 	blt	r16,zero,239d8 <floorf+0xe8>
   239d0:	0005883a 	mov	r2,zero
   239d4:	003fec06 	br	23988 <floorf+0x98>
   239d8:	883fea26 	beq	r17,zero,23984 <floorf+0x94>
   239dc:	00afe034 	movhi	r2,49024
   239e0:	003fe906 	br	23988 <floorf+0x98>

000239e4 <roundf>:
   239e4:	2006d5fa 	srli	r3,r4,23
   239e8:	2005883a 	mov	r2,r4
   239ec:	18c03fcc 	andi	r3,r3,255
   239f0:	18ffe044 	addi	r3,r3,-127
   239f4:	194005c8 	cmpgei	r5,r3,23
   239f8:	28000c1e 	bne	r5,zero,23a2c <roundf+0x48>
   239fc:	18000e16 	blt	r3,zero,23a38 <roundf+0x54>
   23a00:	01002034 	movhi	r4,128
   23a04:	213fffc4 	addi	r4,r4,-1
   23a08:	20c9d83a 	sra	r4,r4,r3
   23a0c:	208a703a 	and	r5,r4,r2
   23a10:	28000826 	beq	r5,zero,23a34 <roundf+0x50>
   23a14:	01401034 	movhi	r5,64
   23a18:	28c7d83a 	sra	r3,r5,r3
   23a1c:	0108303a 	nor	r4,zero,r4
   23a20:	1885883a 	add	r2,r3,r2
   23a24:	2084703a 	and	r2,r4,r2
   23a28:	f800283a 	ret
   23a2c:	18c02018 	cmpnei	r3,r3,128
   23a30:	18000626 	beq	r3,zero,23a4c <roundf+0x68>
   23a34:	f800283a 	ret
   23a38:	18ffffd8 	cmpnei	r3,r3,-1
   23a3c:	20a0002c 	andhi	r2,r4,32768
   23a40:	183ffc1e 	bne	r3,zero,23a34 <roundf+0x50>
   23a44:	108fe034 	orhi	r2,r2,16256
   23a48:	f800283a 	ret
   23a4c:	deffff04 	addi	sp,sp,-4
   23a50:	200b883a 	mov	r5,r4
   23a54:	dfc00015 	stw	ra,0(sp)
   23a58:	0023c7c0 	call	23c7c <__addsf3>
   23a5c:	dfc00017 	ldw	ra,0(sp)
   23a60:	dec00104 	addi	sp,sp,4
   23a64:	f800283a 	ret

00023a68 <__fixunssfsi>:
   23a68:	defffe04 	addi	sp,sp,-8
   23a6c:	0153c034 	movhi	r5,20224
   23a70:	dc000015 	stw	r16,0(sp)
   23a74:	dfc00115 	stw	ra,4(sp)
   23a78:	2021883a 	mov	r16,r4
   23a7c:	00244cc0 	call	244cc <__gesf2>
   23a80:	1000060e 	bge	r2,zero,23a9c <__fixunssfsi+0x34>
   23a84:	8009883a 	mov	r4,r16
   23a88:	0024ed00 	call	24ed0 <__fixsfsi>
   23a8c:	dfc00117 	ldw	ra,4(sp)
   23a90:	dc000017 	ldw	r16,0(sp)
   23a94:	dec00204 	addi	sp,sp,8
   23a98:	f800283a 	ret
   23a9c:	0153c034 	movhi	r5,20224
   23aa0:	8009883a 	mov	r4,r16
   23aa4:	0024a4c0 	call	24a4c <__subsf3>
   23aa8:	1009883a 	mov	r4,r2
   23aac:	0024ed00 	call	24ed0 <__fixsfsi>
   23ab0:	00e00034 	movhi	r3,32768
   23ab4:	10c5883a 	add	r2,r2,r3
   23ab8:	dfc00117 	ldw	ra,4(sp)
   23abc:	dc000017 	ldw	r16,0(sp)
   23ac0:	dec00204 	addi	sp,sp,8
   23ac4:	f800283a 	ret

00023ac8 <__divsi3>:
   23ac8:	20001a16 	blt	r4,zero,23b34 <__divsi3+0x6c>
   23acc:	000f883a 	mov	r7,zero
   23ad0:	2800020e 	bge	r5,zero,23adc <__divsi3+0x14>
   23ad4:	014bc83a 	sub	r5,zero,r5
   23ad8:	39c0005c 	xori	r7,r7,1
   23adc:	200d883a 	mov	r6,r4
   23ae0:	00c00044 	movi	r3,1
   23ae4:	2900092e 	bgeu	r5,r4,23b0c <__divsi3+0x44>
   23ae8:	00800804 	movi	r2,32
   23aec:	00c00044 	movi	r3,1
   23af0:	00000106 	br	23af8 <__divsi3+0x30>
   23af4:	10001226 	beq	r2,zero,23b40 <__divsi3+0x78>
   23af8:	294b883a 	add	r5,r5,r5
   23afc:	10bfffc4 	addi	r2,r2,-1
   23b00:	18c7883a 	add	r3,r3,r3
   23b04:	293ffb36 	bltu	r5,r4,23af4 <__divsi3+0x2c>
   23b08:	18000d26 	beq	r3,zero,23b40 <__divsi3+0x78>
   23b0c:	0005883a 	mov	r2,zero
   23b10:	31400236 	bltu	r6,r5,23b1c <__divsi3+0x54>
   23b14:	314dc83a 	sub	r6,r6,r5
   23b18:	10c4b03a 	or	r2,r2,r3
   23b1c:	1806d07a 	srli	r3,r3,1
   23b20:	280ad07a 	srli	r5,r5,1
   23b24:	183ffa1e 	bne	r3,zero,23b10 <__divsi3+0x48>
   23b28:	38000126 	beq	r7,zero,23b30 <__divsi3+0x68>
   23b2c:	0085c83a 	sub	r2,zero,r2
   23b30:	f800283a 	ret
   23b34:	0109c83a 	sub	r4,zero,r4
   23b38:	01c00044 	movi	r7,1
   23b3c:	003fe406 	br	23ad0 <__divsi3+0x8>
   23b40:	0005883a 	mov	r2,zero
   23b44:	003ff806 	br	23b28 <__divsi3+0x60>

00023b48 <__modsi3>:
   23b48:	20001916 	blt	r4,zero,23bb0 <__modsi3+0x68>
   23b4c:	000f883a 	mov	r7,zero
   23b50:	2005883a 	mov	r2,r4
   23b54:	2800010e 	bge	r5,zero,23b5c <__modsi3+0x14>
   23b58:	014bc83a 	sub	r5,zero,r5
   23b5c:	00c00044 	movi	r3,1
   23b60:	2900092e 	bgeu	r5,r4,23b88 <__modsi3+0x40>
   23b64:	01800804 	movi	r6,32
   23b68:	00c00044 	movi	r3,1
   23b6c:	00000106 	br	23b74 <__modsi3+0x2c>
   23b70:	30000d26 	beq	r6,zero,23ba8 <__modsi3+0x60>
   23b74:	294b883a 	add	r5,r5,r5
   23b78:	31bfffc4 	addi	r6,r6,-1
   23b7c:	18c7883a 	add	r3,r3,r3
   23b80:	293ffb36 	bltu	r5,r4,23b70 <__modsi3+0x28>
   23b84:	18000826 	beq	r3,zero,23ba8 <__modsi3+0x60>
   23b88:	1806d07a 	srli	r3,r3,1
   23b8c:	11400136 	bltu	r2,r5,23b94 <__modsi3+0x4c>
   23b90:	1145c83a 	sub	r2,r2,r5
   23b94:	280ad07a 	srli	r5,r5,1
   23b98:	183ffb1e 	bne	r3,zero,23b88 <__modsi3+0x40>
   23b9c:	38000126 	beq	r7,zero,23ba4 <__modsi3+0x5c>
   23ba0:	0085c83a 	sub	r2,zero,r2
   23ba4:	f800283a 	ret
   23ba8:	2005883a 	mov	r2,r4
   23bac:	003ffb06 	br	23b9c <__modsi3+0x54>
   23bb0:	0109c83a 	sub	r4,zero,r4
   23bb4:	01c00044 	movi	r7,1
   23bb8:	003fe506 	br	23b50 <__modsi3+0x8>

00023bbc <__udivsi3>:
   23bbc:	200d883a 	mov	r6,r4
   23bc0:	2900152e 	bgeu	r5,r4,23c18 <__udivsi3+0x5c>
   23bc4:	28001416 	blt	r5,zero,23c18 <__udivsi3+0x5c>
   23bc8:	00800804 	movi	r2,32
   23bcc:	00c00044 	movi	r3,1
   23bd0:	00000206 	br	23bdc <__udivsi3+0x20>
   23bd4:	10000e26 	beq	r2,zero,23c10 <__udivsi3+0x54>
   23bd8:	28000516 	blt	r5,zero,23bf0 <__udivsi3+0x34>
   23bdc:	294b883a 	add	r5,r5,r5
   23be0:	10bfffc4 	addi	r2,r2,-1
   23be4:	18c7883a 	add	r3,r3,r3
   23be8:	293ffa36 	bltu	r5,r4,23bd4 <__udivsi3+0x18>
   23bec:	18000826 	beq	r3,zero,23c10 <__udivsi3+0x54>
   23bf0:	0005883a 	mov	r2,zero
   23bf4:	31400236 	bltu	r6,r5,23c00 <__udivsi3+0x44>
   23bf8:	314dc83a 	sub	r6,r6,r5
   23bfc:	10c4b03a 	or	r2,r2,r3
   23c00:	1806d07a 	srli	r3,r3,1
   23c04:	280ad07a 	srli	r5,r5,1
   23c08:	183ffa1e 	bne	r3,zero,23bf4 <__udivsi3+0x38>
   23c0c:	f800283a 	ret
   23c10:	0005883a 	mov	r2,zero
   23c14:	f800283a 	ret
   23c18:	00c00044 	movi	r3,1
   23c1c:	003ff406 	br	23bf0 <__udivsi3+0x34>

00023c20 <__umodsi3>:
   23c20:	2005883a 	mov	r2,r4
   23c24:	2900132e 	bgeu	r5,r4,23c74 <__umodsi3+0x54>
   23c28:	28001216 	blt	r5,zero,23c74 <__umodsi3+0x54>
   23c2c:	01800804 	movi	r6,32
   23c30:	00c00044 	movi	r3,1
   23c34:	00000206 	br	23c40 <__umodsi3+0x20>
   23c38:	30000c26 	beq	r6,zero,23c6c <__umodsi3+0x4c>
   23c3c:	28000516 	blt	r5,zero,23c54 <__umodsi3+0x34>
   23c40:	294b883a 	add	r5,r5,r5
   23c44:	31bfffc4 	addi	r6,r6,-1
   23c48:	18c7883a 	add	r3,r3,r3
   23c4c:	293ffa36 	bltu	r5,r4,23c38 <__umodsi3+0x18>
   23c50:	18000626 	beq	r3,zero,23c6c <__umodsi3+0x4c>
   23c54:	1806d07a 	srli	r3,r3,1
   23c58:	11400136 	bltu	r2,r5,23c60 <__umodsi3+0x40>
   23c5c:	1145c83a 	sub	r2,r2,r5
   23c60:	280ad07a 	srli	r5,r5,1
   23c64:	183ffb1e 	bne	r3,zero,23c54 <__umodsi3+0x34>
   23c68:	f800283a 	ret
   23c6c:	2005883a 	mov	r2,r4
   23c70:	f800283a 	ret
   23c74:	00c00044 	movi	r3,1
   23c78:	003ff606 	br	23c54 <__umodsi3+0x34>

00023c7c <__addsf3>:
   23c7c:	280cd5fa 	srli	r6,r5,23
   23c80:	2006d5fa 	srli	r3,r4,23
   23c84:	2010d7fa 	srli	r8,r4,31
   23c88:	01c02034 	movhi	r7,128
   23c8c:	2818d7fa 	srli	r12,r5,31
   23c90:	defffc04 	addi	sp,sp,-16
   23c94:	39ffffc4 	addi	r7,r7,-1
   23c98:	3914703a 	and	r10,r7,r4
   23c9c:	32403fcc 	andi	r9,r6,255
   23ca0:	dc800215 	stw	r18,8(sp)
   23ca4:	dc400115 	stw	r17,4(sp)
   23ca8:	395a703a 	and	r13,r7,r5
   23cac:	1c403fcc 	andi	r17,r3,255
   23cb0:	dfc00315 	stw	ra,12(sp)
   23cb4:	dc000015 	stw	r16,0(sp)
   23cb8:	501c90fa 	slli	r14,r10,3
   23cbc:	681690fa 	slli	r11,r13,3
   23cc0:	500d883a 	mov	r6,r10
   23cc4:	4025883a 	mov	r18,r8
   23cc8:	8a45c83a 	sub	r2,r17,r9
   23ccc:	43004b26 	beq	r8,r12,23dfc <__addsf3+0x180>
   23cd0:	0080390e 	bge	zero,r2,23db8 <__addsf3+0x13c>
   23cd4:	48006326 	beq	r9,zero,23e64 <__addsf3+0x1e8>
   23cd8:	88c03fe0 	cmpeqi	r3,r17,255
   23cdc:	1800401e 	bne	r3,zero,23de0 <__addsf3+0x164>
   23ce0:	5ac10034 	orhi	r11,r11,1024
   23ce4:	10c00708 	cmpgei	r3,r2,28
   23ce8:	1800ab1e 	bne	r3,zero,23f98 <__addsf3+0x31c>
   23cec:	01000804 	movi	r4,32
   23cf0:	2089c83a 	sub	r4,r4,r2
   23cf4:	5908983a 	sll	r4,r11,r4
   23cf8:	5884d83a 	srl	r2,r11,r2
   23cfc:	2008c03a 	cmpne	r4,r4,zero
   23d00:	1104b03a 	or	r2,r2,r4
   23d04:	7085c83a 	sub	r2,r14,r2
   23d08:	10c1002c 	andhi	r3,r2,1024
   23d0c:	18008526 	beq	r3,zero,23f24 <__addsf3+0x2a8>
   23d10:	04010034 	movhi	r16,1024
   23d14:	843fffc4 	addi	r16,r16,-1
   23d18:	1420703a 	and	r16,r2,r16
   23d1c:	8009883a 	mov	r4,r16
   23d20:	002515c0 	call	2515c <__clzsi2>
   23d24:	10fffec4 	addi	r3,r2,-5
   23d28:	80c4983a 	sll	r2,r16,r3
   23d2c:	1c409516 	blt	r3,r17,23f84 <__addsf3+0x308>
   23d30:	1c47c83a 	sub	r3,r3,r17
   23d34:	1c000044 	addi	r16,r3,1
   23d38:	01000804 	movi	r4,32
   23d3c:	2409c83a 	sub	r4,r4,r16
   23d40:	1108983a 	sll	r4,r2,r4
   23d44:	1404d83a 	srl	r2,r2,r16
   23d48:	0023883a 	mov	r17,zero
   23d4c:	2008c03a 	cmpne	r4,r4,zero
   23d50:	1104b03a 	or	r2,r2,r4
   23d54:	10c001cc 	andi	r3,r2,7
   23d58:	18000426 	beq	r3,zero,23d6c <__addsf3+0xf0>
   23d5c:	10c003cc 	andi	r3,r2,15
   23d60:	18c00120 	cmpeqi	r3,r3,4
   23d64:	1800011e 	bne	r3,zero,23d6c <__addsf3+0xf0>
   23d68:	10800104 	addi	r2,r2,4
   23d6c:	10c1002c 	andhi	r3,r2,1024
   23d70:	18006e26 	beq	r3,zero,23f2c <__addsf3+0x2b0>
   23d74:	88c00044 	addi	r3,r17,1
   23d78:	19003fe0 	cmpeqi	r4,r3,255
   23d7c:	20006d1e 	bne	r4,zero,23f34 <__addsf3+0x2b8>
   23d80:	100491ba 	slli	r2,r2,6
   23d84:	100cd27a 	srli	r6,r2,9
   23d88:	18803fcc 	andi	r2,r3,255
   23d8c:	100495fa 	slli	r2,r2,23
   23d90:	94803fcc 	andi	r18,r18,255
   23d94:	902497fa 	slli	r18,r18,31
   23d98:	1184b03a 	or	r2,r2,r6
   23d9c:	1484b03a 	or	r2,r2,r18
   23da0:	dfc00317 	ldw	ra,12(sp)
   23da4:	dc800217 	ldw	r18,8(sp)
   23da8:	dc400117 	ldw	r17,4(sp)
   23dac:	dc000017 	ldw	r16,0(sp)
   23db0:	dec00404 	addi	sp,sp,16
   23db4:	f800283a 	ret
   23db8:	10003026 	beq	r2,zero,23e7c <__addsf3+0x200>
   23dbc:	4c49c83a 	sub	r4,r9,r17
   23dc0:	88007f1e 	bne	r17,zero,23fc0 <__addsf3+0x344>
   23dc4:	70003f26 	beq	r14,zero,23ec4 <__addsf3+0x248>
   23dc8:	213fffc4 	addi	r4,r4,-1
   23dcc:	2000b326 	beq	r4,zero,2409c <__addsf3+0x420>
   23dd0:	48803fe0 	cmpeqi	r2,r9,255
   23dd4:	10007d26 	beq	r2,zero,23fcc <__addsf3+0x350>
   23dd8:	6025883a 	mov	r18,r12
   23ddc:	6815883a 	mov	r10,r13
   23de0:	50005426 	beq	r10,zero,23f34 <__addsf3+0x2b8>
   23de4:	00802034 	movhi	r2,128
   23de8:	51801034 	orhi	r6,r10,64
   23dec:	10bfffc4 	addi	r2,r2,-1
   23df0:	308c703a 	and	r6,r6,r2
   23df4:	00ffffc4 	movi	r3,-1
   23df8:	003fe306 	br	23d88 <__addsf3+0x10c>
   23dfc:	0080500e 	bge	zero,r2,23f40 <__addsf3+0x2c4>
   23e00:	48002a26 	beq	r9,zero,23eac <__addsf3+0x230>
   23e04:	88c03fe0 	cmpeqi	r3,r17,255
   23e08:	183ff51e 	bne	r3,zero,23de0 <__addsf3+0x164>
   23e0c:	5ac10034 	orhi	r11,r11,1024
   23e10:	10c00708 	cmpgei	r3,r2,28
   23e14:	1800741e 	bne	r3,zero,23fe8 <__addsf3+0x36c>
   23e18:	00c00804 	movi	r3,32
   23e1c:	1887c83a 	sub	r3,r3,r2
   23e20:	58c6983a 	sll	r3,r11,r3
   23e24:	5884d83a 	srl	r2,r11,r2
   23e28:	1806c03a 	cmpne	r3,r3,zero
   23e2c:	10c4b03a 	or	r2,r2,r3
   23e30:	1385883a 	add	r2,r2,r14
   23e34:	10c1002c 	andhi	r3,r2,1024
   23e38:	18003a26 	beq	r3,zero,23f24 <__addsf3+0x2a8>
   23e3c:	8c400044 	addi	r17,r17,1
   23e40:	88c03fe0 	cmpeqi	r3,r17,255
   23e44:	18003b1e 	bne	r3,zero,23f34 <__addsf3+0x2b8>
   23e48:	1008d07a 	srli	r4,r2,1
   23e4c:	00df8034 	movhi	r3,32256
   23e50:	18ffffc4 	addi	r3,r3,-1
   23e54:	1080004c 	andi	r2,r2,1
   23e58:	20c8703a 	and	r4,r4,r3
   23e5c:	2084b03a 	or	r2,r4,r2
   23e60:	003fbc06 	br	23d54 <__addsf3+0xd8>
   23e64:	58001a26 	beq	r11,zero,23ed0 <__addsf3+0x254>
   23e68:	10bfffc4 	addi	r2,r2,-1
   23e6c:	10007c26 	beq	r2,zero,24060 <__addsf3+0x3e4>
   23e70:	88c03fe0 	cmpeqi	r3,r17,255
   23e74:	183f9b26 	beq	r3,zero,23ce4 <__addsf3+0x68>
   23e78:	003fd906 	br	23de0 <__addsf3+0x164>
   23e7c:	88800044 	addi	r2,r17,1
   23e80:	10803f8c 	andi	r2,r2,254
   23e84:	1000461e 	bne	r2,zero,23fa0 <__addsf3+0x324>
   23e88:	88006e1e 	bne	r17,zero,24044 <__addsf3+0x3c8>
   23e8c:	70007f26 	beq	r14,zero,2408c <__addsf3+0x410>
   23e90:	583fbd26 	beq	r11,zero,23d88 <__addsf3+0x10c>
   23e94:	72c5c83a 	sub	r2,r14,r11
   23e98:	1101002c 	andhi	r4,r2,1024
   23e9c:	20008326 	beq	r4,zero,240ac <__addsf3+0x430>
   23ea0:	5b85c83a 	sub	r2,r11,r14
   23ea4:	6025883a 	mov	r18,r12
   23ea8:	003faa06 	br	23d54 <__addsf3+0xd8>
   23eac:	58000826 	beq	r11,zero,23ed0 <__addsf3+0x254>
   23eb0:	10bfffc4 	addi	r2,r2,-1
   23eb4:	10006826 	beq	r2,zero,24058 <__addsf3+0x3dc>
   23eb8:	88c03fe0 	cmpeqi	r3,r17,255
   23ebc:	183fd426 	beq	r3,zero,23e10 <__addsf3+0x194>
   23ec0:	003fc706 	br	23de0 <__addsf3+0x164>
   23ec4:	6025883a 	mov	r18,r12
   23ec8:	6815883a 	mov	r10,r13
   23ecc:	4823883a 	mov	r17,r9
   23ed0:	88803fe0 	cmpeqi	r2,r17,255
   23ed4:	103fc21e 	bne	r2,zero,23de0 <__addsf3+0x164>
   23ed8:	00802034 	movhi	r2,128
   23edc:	10bfffc4 	addi	r2,r2,-1
   23ee0:	508c703a 	and	r6,r10,r2
   23ee4:	8807883a 	mov	r3,r17
   23ee8:	003fa706 	br	23d88 <__addsf3+0x10c>
   23eec:	881f883a 	mov	r15,r17
   23ef0:	8c400044 	addi	r17,r17,1
   23ef4:	88803f8c 	andi	r2,r17,254
   23ef8:	10004a1e 	bne	r2,zero,24024 <__addsf3+0x3a8>
   23efc:	78005a1e 	bne	r15,zero,24068 <__addsf3+0x3ec>
   23f00:	70006e26 	beq	r14,zero,240bc <__addsf3+0x440>
   23f04:	583fa026 	beq	r11,zero,23d88 <__addsf3+0x10c>
   23f08:	72c5883a 	add	r2,r14,r11
   23f0c:	10c1002c 	andhi	r3,r2,1024
   23f10:	18006f26 	beq	r3,zero,240d0 <__addsf3+0x454>
   23f14:	00ff0034 	movhi	r3,64512
   23f18:	18ffffc4 	addi	r3,r3,-1
   23f1c:	10c4703a 	and	r2,r2,r3
   23f20:	04400044 	movi	r17,1
   23f24:	10c001cc 	andi	r3,r2,7
   23f28:	183f8c1e 	bne	r3,zero,23d5c <__addsf3+0xe0>
   23f2c:	1014d0fa 	srli	r10,r2,3
   23f30:	003fe706 	br	23ed0 <__addsf3+0x254>
   23f34:	00ffffc4 	movi	r3,-1
   23f38:	000d883a 	mov	r6,zero
   23f3c:	003f9206 	br	23d88 <__addsf3+0x10c>
   23f40:	103fea26 	beq	r2,zero,23eec <__addsf3+0x270>
   23f44:	4c49c83a 	sub	r4,r9,r17
   23f48:	88003026 	beq	r17,zero,2400c <__addsf3+0x390>
   23f4c:	48803fe0 	cmpeqi	r2,r9,255
   23f50:	103fa21e 	bne	r2,zero,23ddc <__addsf3+0x160>
   23f54:	73810034 	orhi	r14,r14,1024
   23f58:	20800708 	cmpgei	r2,r4,28
   23f5c:	1000491e 	bne	r2,zero,24084 <__addsf3+0x408>
   23f60:	00800804 	movi	r2,32
   23f64:	1105c83a 	sub	r2,r2,r4
   23f68:	7084983a 	sll	r2,r14,r2
   23f6c:	7108d83a 	srl	r4,r14,r4
   23f70:	1004c03a 	cmpne	r2,r2,zero
   23f74:	2088b03a 	or	r4,r4,r2
   23f78:	22c5883a 	add	r2,r4,r11
   23f7c:	4823883a 	mov	r17,r9
   23f80:	003fac06 	br	23e34 <__addsf3+0x1b8>
   23f84:	013f0034 	movhi	r4,64512
   23f88:	213fffc4 	addi	r4,r4,-1
   23f8c:	88e3c83a 	sub	r17,r17,r3
   23f90:	1104703a 	and	r2,r2,r4
   23f94:	003f6f06 	br	23d54 <__addsf3+0xd8>
   23f98:	00800044 	movi	r2,1
   23f9c:	003f5906 	br	23d04 <__addsf3+0x88>
   23fa0:	72e1c83a 	sub	r16,r14,r11
   23fa4:	8081002c 	andhi	r2,r16,1024
   23fa8:	1000231e 	bne	r2,zero,24038 <__addsf3+0x3bc>
   23fac:	803f5b1e 	bne	r16,zero,23d1c <__addsf3+0xa0>
   23fb0:	0025883a 	mov	r18,zero
   23fb4:	0007883a 	mov	r3,zero
   23fb8:	000d883a 	mov	r6,zero
   23fbc:	003f7206 	br	23d88 <__addsf3+0x10c>
   23fc0:	48803fe0 	cmpeqi	r2,r9,255
   23fc4:	103f841e 	bne	r2,zero,23dd8 <__addsf3+0x15c>
   23fc8:	73810034 	orhi	r14,r14,1024
   23fcc:	20800708 	cmpgei	r2,r4,28
   23fd0:	10000726 	beq	r2,zero,23ff0 <__addsf3+0x374>
   23fd4:	01000044 	movi	r4,1
   23fd8:	5905c83a 	sub	r2,r11,r4
   23fdc:	6025883a 	mov	r18,r12
   23fe0:	4823883a 	mov	r17,r9
   23fe4:	003f4806 	br	23d08 <__addsf3+0x8c>
   23fe8:	00800044 	movi	r2,1
   23fec:	003f9006 	br	23e30 <__addsf3+0x1b4>
   23ff0:	00800804 	movi	r2,32
   23ff4:	1105c83a 	sub	r2,r2,r4
   23ff8:	7084983a 	sll	r2,r14,r2
   23ffc:	7108d83a 	srl	r4,r14,r4
   24000:	1004c03a 	cmpne	r2,r2,zero
   24004:	2088b03a 	or	r4,r4,r2
   24008:	003ff306 	br	23fd8 <__addsf3+0x35c>
   2400c:	703fae26 	beq	r14,zero,23ec8 <__addsf3+0x24c>
   24010:	213fffc4 	addi	r4,r4,-1
   24014:	20002b26 	beq	r4,zero,240c4 <__addsf3+0x448>
   24018:	48803fe0 	cmpeqi	r2,r9,255
   2401c:	103fce26 	beq	r2,zero,23f58 <__addsf3+0x2dc>
   24020:	003f6e06 	br	23ddc <__addsf3+0x160>
   24024:	88803fe0 	cmpeqi	r2,r17,255
   24028:	103fc21e 	bne	r2,zero,23f34 <__addsf3+0x2b8>
   2402c:	72c5883a 	add	r2,r14,r11
   24030:	1004d07a 	srli	r2,r2,1
   24034:	003fbb06 	br	23f24 <__addsf3+0x2a8>
   24038:	5ba1c83a 	sub	r16,r11,r14
   2403c:	6025883a 	mov	r18,r12
   24040:	003f3606 	br	23d1c <__addsf3+0xa0>
   24044:	7000091e 	bne	r14,zero,2406c <__addsf3+0x3f0>
   24048:	583f631e 	bne	r11,zero,23dd8 <__addsf3+0x15c>
   2404c:	0025883a 	mov	r18,zero
   24050:	380d883a 	mov	r6,r7
   24054:	003f6706 	br	23df4 <__addsf3+0x178>
   24058:	72c5883a 	add	r2,r14,r11
   2405c:	003f7506 	br	23e34 <__addsf3+0x1b8>
   24060:	72c5c83a 	sub	r2,r14,r11
   24064:	003f2806 	br	23d08 <__addsf3+0x8c>
   24068:	703f5c26 	beq	r14,zero,23ddc <__addsf3+0x160>
   2406c:	583f5c26 	beq	r11,zero,23de0 <__addsf3+0x164>
   24070:	20c0102c 	andhi	r3,r4,64
   24074:	183f5a26 	beq	r3,zero,23de0 <__addsf3+0x164>
   24078:	2940102c 	andhi	r5,r5,64
   2407c:	283f581e 	bne	r5,zero,23de0 <__addsf3+0x164>
   24080:	003f5506 	br	23dd8 <__addsf3+0x15c>
   24084:	01000044 	movi	r4,1
   24088:	003fbb06 	br	23f78 <__addsf3+0x2fc>
   2408c:	58000826 	beq	r11,zero,240b0 <__addsf3+0x434>
   24090:	6025883a 	mov	r18,r12
   24094:	680d883a 	mov	r6,r13
   24098:	003f3b06 	br	23d88 <__addsf3+0x10c>
   2409c:	5b85c83a 	sub	r2,r11,r14
   240a0:	6025883a 	mov	r18,r12
   240a4:	4823883a 	mov	r17,r9
   240a8:	003f1706 	br	23d08 <__addsf3+0x8c>
   240ac:	103f9d1e 	bne	r2,zero,23f24 <__addsf3+0x2a8>
   240b0:	0025883a 	mov	r18,zero
   240b4:	000d883a 	mov	r6,zero
   240b8:	003f3306 	br	23d88 <__addsf3+0x10c>
   240bc:	680d883a 	mov	r6,r13
   240c0:	003f3106 	br	23d88 <__addsf3+0x10c>
   240c4:	72c5883a 	add	r2,r14,r11
   240c8:	4823883a 	mov	r17,r9
   240cc:	003f5906 	br	23e34 <__addsf3+0x1b8>
   240d0:	0023883a 	mov	r17,zero
   240d4:	003f9306 	br	23f24 <__addsf3+0x2a8>

000240d8 <__divsf3>:
   240d8:	defff604 	addi	sp,sp,-40
   240dc:	2006d5fa 	srli	r3,r4,23
   240e0:	dd400615 	stw	r21,24(sp)
   240e4:	202ad7fa 	srli	r21,r4,31
   240e8:	00802034 	movhi	r2,128
   240ec:	dc800315 	stw	r18,12(sp)
   240f0:	dc000115 	stw	r16,4(sp)
   240f4:	10bfffc4 	addi	r2,r2,-1
   240f8:	dfc00915 	stw	ra,36(sp)
   240fc:	ddc00815 	stw	r23,32(sp)
   24100:	dd800715 	stw	r22,28(sp)
   24104:	dd000515 	stw	r20,20(sp)
   24108:	dcc00415 	stw	r19,16(sp)
   2410c:	dc400215 	stw	r17,8(sp)
   24110:	18c03fcc 	andi	r3,r3,255
   24114:	1120703a 	and	r16,r2,r4
   24118:	a825883a 	mov	r18,r21
   2411c:	18007b26 	beq	r3,zero,2430c <__divsf3+0x234>
   24120:	18803fe0 	cmpeqi	r2,r3,255
   24124:	10007e1e 	bne	r2,zero,24320 <__divsf3+0x248>
   24128:	800490fa 	slli	r2,r16,3
   2412c:	1d3fe044 	addi	r20,r3,-127
   24130:	0023883a 	mov	r17,zero
   24134:	14010034 	orhi	r16,r2,1024
   24138:	002d883a 	mov	r22,zero
   2413c:	2806d5fa 	srli	r3,r5,23
   24140:	01002034 	movhi	r4,128
   24144:	213fffc4 	addi	r4,r4,-1
   24148:	18c03fcc 	andi	r3,r3,255
   2414c:	282ed7fa 	srli	r23,r5,31
   24150:	2166703a 	and	r19,r4,r5
   24154:	18005326 	beq	r3,zero,242a4 <__divsf3+0x1cc>
   24158:	18803fe0 	cmpeqi	r2,r3,255
   2415c:	10001d1e 	bne	r2,zero,241d4 <__divsf3+0xfc>
   24160:	980a90fa 	slli	r5,r19,3
   24164:	18ffe044 	addi	r3,r3,-127
   24168:	a0e9c83a 	sub	r20,r20,r3
   2416c:	2cc10034 	orhi	r19,r5,1024
   24170:	0007883a 	mov	r3,zero
   24174:	1c62b03a 	or	r17,r3,r17
   24178:	882290ba 	slli	r17,r17,2
   2417c:	008000b4 	movhi	r2,2
   24180:	bd6af03a 	xor	r21,r23,r21
   24184:	8885883a 	add	r2,r17,r2
   24188:	10906517 	ldw	r2,16788(r2)
   2418c:	a809883a 	mov	r4,r21
   24190:	1000683a 	jmp	r2
   24194:	00024458 	cmpnei	zero,zero,2321
   24198:	00024398 	cmpnei	zero,zero,2318
   2419c:	00024258 	cmpnei	zero,zero,2313
   241a0:	000241e8 	cmpgeui	zero,zero,2311
   241a4:	00024258 	cmpnei	zero,zero,2313
   241a8:	00024404 	movi	zero,2320
   241ac:	00024258 	cmpnei	zero,zero,2313
   241b0:	000241e8 	cmpgeui	zero,zero,2311
   241b4:	00024398 	cmpnei	zero,zero,2318
   241b8:	00024398 	cmpnei	zero,zero,2318
   241bc:	00024404 	movi	zero,2320
   241c0:	000241e8 	cmpgeui	zero,zero,2311
   241c4:	000241f4 	movhi	zero,2311
   241c8:	000241f4 	movhi	zero,2311
   241cc:	000241f4 	movhi	zero,2311
   241d0:	0002441c 	xori	zero,zero,2320
   241d4:	a53fc044 	addi	r20,r20,-255
   241d8:	98006d1e 	bne	r19,zero,24390 <__divsf3+0x2b8>
   241dc:	00c00084 	movi	r3,2
   241e0:	00003206 	br	242ac <__divsf3+0x1d4>
   241e4:	0027883a 	mov	r19,zero
   241e8:	b825883a 	mov	r18,r23
   241ec:	9821883a 	mov	r16,r19
   241f0:	182d883a 	mov	r22,r3
   241f4:	b08000a0 	cmpeqi	r2,r22,2
   241f8:	10007f1e 	bne	r2,zero,243f8 <__divsf3+0x320>
   241fc:	b08000e0 	cmpeqi	r2,r22,3
   24200:	1000901e 	bne	r2,zero,24444 <__divsf3+0x36c>
   24204:	b5800060 	cmpeqi	r22,r22,1
   24208:	b000141e 	bne	r22,zero,2425c <__divsf3+0x184>
   2420c:	a0c01fc4 	addi	r3,r20,127
   24210:	00c0650e 	bge	zero,r3,243a8 <__divsf3+0x2d0>
   24214:	808001cc 	andi	r2,r16,7
   24218:	10000426 	beq	r2,zero,2422c <__divsf3+0x154>
   2421c:	808003cc 	andi	r2,r16,15
   24220:	10800120 	cmpeqi	r2,r2,4
   24224:	1000011e 	bne	r2,zero,2422c <__divsf3+0x154>
   24228:	84000104 	addi	r16,r16,4
   2422c:	8082002c 	andhi	r2,r16,2048
   24230:	10000426 	beq	r2,zero,24244 <__divsf3+0x16c>
   24234:	00be0034 	movhi	r2,63488
   24238:	10bfffc4 	addi	r2,r2,-1
   2423c:	80a0703a 	and	r16,r16,r2
   24240:	a0c02004 	addi	r3,r20,128
   24244:	18803fc8 	cmpgei	r2,r3,255
   24248:	10006b1e 	bne	r2,zero,243f8 <__divsf3+0x320>
   2424c:	800491ba 	slli	r2,r16,6
   24250:	1020d27a 	srli	r16,r2,9
   24254:	00000306 	br	24264 <__divsf3+0x18c>
   24258:	a825883a 	mov	r18,r21
   2425c:	0007883a 	mov	r3,zero
   24260:	0021883a 	mov	r16,zero
   24264:	18803fcc 	andi	r2,r3,255
   24268:	100495fa 	slli	r2,r2,23
   2426c:	902497fa 	slli	r18,r18,31
   24270:	1404b03a 	or	r2,r2,r16
   24274:	1484b03a 	or	r2,r2,r18
   24278:	dfc00917 	ldw	ra,36(sp)
   2427c:	ddc00817 	ldw	r23,32(sp)
   24280:	dd800717 	ldw	r22,28(sp)
   24284:	dd400617 	ldw	r21,24(sp)
   24288:	dd000517 	ldw	r20,20(sp)
   2428c:	dcc00417 	ldw	r19,16(sp)
   24290:	dc800317 	ldw	r18,12(sp)
   24294:	dc400217 	ldw	r17,8(sp)
   24298:	dc000117 	ldw	r16,4(sp)
   2429c:	dec00a04 	addi	sp,sp,40
   242a0:	f800283a 	ret
   242a4:	9800321e 	bne	r19,zero,24370 <__divsf3+0x298>
   242a8:	00c00044 	movi	r3,1
   242ac:	1c62b03a 	or	r17,r3,r17
   242b0:	882290ba 	slli	r17,r17,2
   242b4:	008000b4 	movhi	r2,2
   242b8:	bd6af03a 	xor	r21,r23,r21
   242bc:	8885883a 	add	r2,r17,r2
   242c0:	1090b317 	ldw	r2,17100(r2)
   242c4:	a809883a 	mov	r4,r21
   242c8:	1000683a 	jmp	r2
   242cc:	00024398 	cmpnei	zero,zero,2318
   242d0:	00024398 	cmpnei	zero,zero,2318
   242d4:	00024258 	cmpnei	zero,zero,2313
   242d8:	000241e4 	muli	zero,zero,2311
   242dc:	00024258 	cmpnei	zero,zero,2313
   242e0:	00024404 	movi	zero,2320
   242e4:	00024258 	cmpnei	zero,zero,2313
   242e8:	000241e4 	muli	zero,zero,2311
   242ec:	00024398 	cmpnei	zero,zero,2318
   242f0:	00024398 	cmpnei	zero,zero,2318
   242f4:	00024404 	movi	zero,2320
   242f8:	000241e4 	muli	zero,zero,2311
   242fc:	000241f4 	movhi	zero,2311
   24300:	000241f4 	movhi	zero,2311
   24304:	000241f4 	movhi	zero,2311
   24308:	00024418 	cmpnei	zero,zero,2320
   2430c:	80000d1e 	bne	r16,zero,24344 <__divsf3+0x26c>
   24310:	04400104 	movi	r17,4
   24314:	0029883a 	mov	r20,zero
   24318:	05800044 	movi	r22,1
   2431c:	003f8706 	br	2413c <__divsf3+0x64>
   24320:	8000041e 	bne	r16,zero,24334 <__divsf3+0x25c>
   24324:	04400204 	movi	r17,8
   24328:	05003fc4 	movi	r20,255
   2432c:	05800084 	movi	r22,2
   24330:	003f8206 	br	2413c <__divsf3+0x64>
   24334:	04400304 	movi	r17,12
   24338:	05003fc4 	movi	r20,255
   2433c:	058000c4 	movi	r22,3
   24340:	003f7e06 	br	2413c <__divsf3+0x64>
   24344:	8009883a 	mov	r4,r16
   24348:	d9400015 	stw	r5,0(sp)
   2434c:	002515c0 	call	2515c <__clzsi2>
   24350:	10fffec4 	addi	r3,r2,-5
   24354:	80e0983a 	sll	r16,r16,r3
   24358:	00ffe284 	movi	r3,-118
   2435c:	d9400017 	ldw	r5,0(sp)
   24360:	18a9c83a 	sub	r20,r3,r2
   24364:	0023883a 	mov	r17,zero
   24368:	002d883a 	mov	r22,zero
   2436c:	003f7306 	br	2413c <__divsf3+0x64>
   24370:	9809883a 	mov	r4,r19
   24374:	002515c0 	call	2515c <__clzsi2>
   24378:	a087883a 	add	r3,r20,r2
   2437c:	113ffec4 	addi	r4,r2,-5
   24380:	1d001d84 	addi	r20,r3,118
   24384:	9926983a 	sll	r19,r19,r4
   24388:	0007883a 	mov	r3,zero
   2438c:	003f7906 	br	24174 <__divsf3+0x9c>
   24390:	00c000c4 	movi	r3,3
   24394:	003f7706 	br	24174 <__divsf3+0x9c>
   24398:	2025883a 	mov	r18,r4
   2439c:	00ffffc4 	movi	r3,-1
   243a0:	0021883a 	mov	r16,zero
   243a4:	003faf06 	br	24264 <__divsf3+0x18c>
   243a8:	00800044 	movi	r2,1
   243ac:	10c7c83a 	sub	r3,r2,r3
   243b0:	18800708 	cmpgei	r2,r3,28
   243b4:	103fa91e 	bne	r2,zero,2425c <__divsf3+0x184>
   243b8:	a5002784 	addi	r20,r20,158
   243bc:	8528983a 	sll	r20,r16,r20
   243c0:	80c6d83a 	srl	r3,r16,r3
   243c4:	a020c03a 	cmpne	r16,r20,zero
   243c8:	1c20b03a 	or	r16,r3,r16
   243cc:	808001cc 	andi	r2,r16,7
   243d0:	10000426 	beq	r2,zero,243e4 <__divsf3+0x30c>
   243d4:	808003cc 	andi	r2,r16,15
   243d8:	10800120 	cmpeqi	r2,r2,4
   243dc:	1000011e 	bne	r2,zero,243e4 <__divsf3+0x30c>
   243e0:	84000104 	addi	r16,r16,4
   243e4:	8081002c 	andhi	r2,r16,1024
   243e8:	10003426 	beq	r2,zero,244bc <__divsf3+0x3e4>
   243ec:	00c00044 	movi	r3,1
   243f0:	0021883a 	mov	r16,zero
   243f4:	003f9b06 	br	24264 <__divsf3+0x18c>
   243f8:	00ffffc4 	movi	r3,-1
   243fc:	0021883a 	mov	r16,zero
   24400:	003f9806 	br	24264 <__divsf3+0x18c>
   24404:	04002034 	movhi	r16,128
   24408:	0025883a 	mov	r18,zero
   2440c:	843fffc4 	addi	r16,r16,-1
   24410:	00ffffc4 	movi	r3,-1
   24414:	003f9306 	br	24264 <__divsf3+0x18c>
   24418:	0027883a 	mov	r19,zero
   2441c:	8080102c 	andhi	r2,r16,64
   24420:	10000826 	beq	r2,zero,24444 <__divsf3+0x36c>
   24424:	9880102c 	andhi	r2,r19,64
   24428:	1000061e 	bne	r2,zero,24444 <__divsf3+0x36c>
   2442c:	00802034 	movhi	r2,128
   24430:	9c001034 	orhi	r16,r19,64
   24434:	10bfffc4 	addi	r2,r2,-1
   24438:	80a0703a 	and	r16,r16,r2
   2443c:	b825883a 	mov	r18,r23
   24440:	003ff306 	br	24410 <__divsf3+0x338>
   24444:	00802034 	movhi	r2,128
   24448:	84001034 	orhi	r16,r16,64
   2444c:	10bfffc4 	addi	r2,r2,-1
   24450:	80a0703a 	and	r16,r16,r2
   24454:	003fee06 	br	24410 <__divsf3+0x338>
   24458:	8004917a 	slli	r2,r16,5
   2445c:	9808917a 	slli	r4,r19,5
   24460:	1100122e 	bgeu	r2,r4,244ac <__divsf3+0x3d4>
   24464:	a53fffc4 	addi	r20,r20,-1
   24468:	014006c4 	movi	r5,27
   2446c:	0021883a 	mov	r16,zero
   24470:	1007883a 	mov	r3,r2
   24474:	297fffc4 	addi	r5,r5,-1
   24478:	1085883a 	add	r2,r2,r2
   2447c:	8421883a 	add	r16,r16,r16
   24480:	18000116 	blt	r3,zero,24488 <__divsf3+0x3b0>
   24484:	11000236 	bltu	r2,r4,24490 <__divsf3+0x3b8>
   24488:	1105c83a 	sub	r2,r2,r4
   2448c:	84000054 	ori	r16,r16,1
   24490:	283ff71e 	bne	r5,zero,24470 <__divsf3+0x398>
   24494:	1004c03a 	cmpne	r2,r2,zero
   24498:	a0c01fc4 	addi	r3,r20,127
   2449c:	1420b03a 	or	r16,r2,r16
   244a0:	a825883a 	mov	r18,r21
   244a4:	00ff5b16 	blt	zero,r3,24214 <__divsf3+0x13c>
   244a8:	003fbf06 	br	243a8 <__divsf3+0x2d0>
   244ac:	1105c83a 	sub	r2,r2,r4
   244b0:	01400684 	movi	r5,26
   244b4:	04000044 	movi	r16,1
   244b8:	003fed06 	br	24470 <__divsf3+0x398>
   244bc:	802091ba 	slli	r16,r16,6
   244c0:	0007883a 	mov	r3,zero
   244c4:	8020d27a 	srli	r16,r16,9
   244c8:	003f6606 	br	24264 <__divsf3+0x18c>

000244cc <__gesf2>:
   244cc:	200cd5fa 	srli	r6,r4,23
   244d0:	00c02034 	movhi	r3,128
   244d4:	18ffffc4 	addi	r3,r3,-1
   244d8:	31803fcc 	andi	r6,r6,255
   244dc:	32003fd8 	cmpnei	r8,r6,255
   244e0:	2012d7fa 	srli	r9,r4,31
   244e4:	280ed5fa 	srli	r7,r5,23
   244e8:	1908703a 	and	r4,r3,r4
   244ec:	2804d7fa 	srli	r2,r5,31
   244f0:	1946703a 	and	r3,r3,r5
   244f4:	40000a26 	beq	r8,zero,24520 <__gesf2+0x54>
   244f8:	39403fcc 	andi	r5,r7,255
   244fc:	29c03fd8 	cmpnei	r7,r5,255
   24500:	38000b26 	beq	r7,zero,24530 <__gesf2+0x64>
   24504:	3000151e 	bne	r6,zero,2455c <__gesf2+0x90>
   24508:	200f003a 	cmpeq	r7,r4,zero
   2450c:	2800101e 	bne	r5,zero,24550 <__gesf2+0x84>
   24510:	18000f1e 	bne	r3,zero,24550 <__gesf2+0x84>
   24514:	2000091e 	bne	r4,zero,2453c <__gesf2+0x70>
   24518:	0005883a 	mov	r2,zero
   2451c:	f800283a 	ret
   24520:	2000191e 	bne	r4,zero,24588 <__gesf2+0xbc>
   24524:	39403fcc 	andi	r5,r7,255
   24528:	29c03fe0 	cmpeqi	r7,r5,255
   2452c:	38000b26 	beq	r7,zero,2455c <__gesf2+0x90>
   24530:	1800151e 	bne	r3,zero,24588 <__gesf2+0xbc>
   24534:	30000526 	beq	r6,zero,2454c <__gesf2+0x80>
   24538:	48800b26 	beq	r9,r2,24568 <__gesf2+0x9c>
   2453c:	00800044 	movi	r2,1
   24540:	48000526 	beq	r9,zero,24558 <__gesf2+0x8c>
   24544:	00bfffc4 	movi	r2,-1
   24548:	f800283a 	ret
   2454c:	200f003a 	cmpeq	r7,r4,zero
   24550:	383ff926 	beq	r7,zero,24538 <__gesf2+0x6c>
   24554:	103ffb26 	beq	r2,zero,24544 <__gesf2+0x78>
   24558:	f800283a 	ret
   2455c:	283ff61e 	bne	r5,zero,24538 <__gesf2+0x6c>
   24560:	183ff51e 	bne	r3,zero,24538 <__gesf2+0x6c>
   24564:	003ff506 	br	2453c <__gesf2+0x70>
   24568:	29800416 	blt	r5,r6,2457c <__gesf2+0xb0>
   2456c:	317ff916 	blt	r6,r5,24554 <__gesf2+0x88>
   24570:	19000236 	bltu	r3,r4,2457c <__gesf2+0xb0>
   24574:	20ffe82e 	bgeu	r4,r3,24518 <__gesf2+0x4c>
   24578:	003ff606 	br	24554 <__gesf2+0x88>
   2457c:	103ff11e 	bne	r2,zero,24544 <__gesf2+0x78>
   24580:	00800044 	movi	r2,1
   24584:	f800283a 	ret
   24588:	00bfff84 	movi	r2,-2
   2458c:	f800283a 	ret

00024590 <__lesf2>:
   24590:	200cd5fa 	srli	r6,r4,23
   24594:	00c02034 	movhi	r3,128
   24598:	18ffffc4 	addi	r3,r3,-1
   2459c:	31803fcc 	andi	r6,r6,255
   245a0:	32003fd8 	cmpnei	r8,r6,255
   245a4:	2012d7fa 	srli	r9,r4,31
   245a8:	280ed5fa 	srli	r7,r5,23
   245ac:	1908703a 	and	r4,r3,r4
   245b0:	2804d7fa 	srli	r2,r5,31
   245b4:	1946703a 	and	r3,r3,r5
   245b8:	40000a26 	beq	r8,zero,245e4 <__lesf2+0x54>
   245bc:	39403fcc 	andi	r5,r7,255
   245c0:	29c03fd8 	cmpnei	r7,r5,255
   245c4:	38000b26 	beq	r7,zero,245f4 <__lesf2+0x64>
   245c8:	30001b1e 	bne	r6,zero,24638 <__lesf2+0xa8>
   245cc:	200f003a 	cmpeq	r7,r4,zero
   245d0:	28000b1e 	bne	r5,zero,24600 <__lesf2+0x70>
   245d4:	18000a1e 	bne	r3,zero,24600 <__lesf2+0x70>
   245d8:	20000b1e 	bne	r4,zero,24608 <__lesf2+0x78>
   245dc:	0005883a 	mov	r2,zero
   245e0:	f800283a 	ret
   245e4:	20000c1e 	bne	r4,zero,24618 <__lesf2+0x88>
   245e8:	39403fcc 	andi	r5,r7,255
   245ec:	29c03fe0 	cmpeqi	r7,r5,255
   245f0:	38001126 	beq	r7,zero,24638 <__lesf2+0xa8>
   245f4:	1800081e 	bne	r3,zero,24618 <__lesf2+0x88>
   245f8:	3000021e 	bne	r6,zero,24604 <__lesf2+0x74>
   245fc:	200f003a 	cmpeq	r7,r4,zero
   24600:	38000b1e 	bne	r7,zero,24630 <__lesf2+0xa0>
   24604:	48800626 	beq	r9,r2,24620 <__lesf2+0x90>
   24608:	00800044 	movi	r2,1
   2460c:	48000926 	beq	r9,zero,24634 <__lesf2+0xa4>
   24610:	00bfffc4 	movi	r2,-1
   24614:	f800283a 	ret
   24618:	00800084 	movi	r2,2
   2461c:	f800283a 	ret
   24620:	29800816 	blt	r5,r6,24644 <__lesf2+0xb4>
   24624:	31400216 	blt	r6,r5,24630 <__lesf2+0xa0>
   24628:	19000636 	bltu	r3,r4,24644 <__lesf2+0xb4>
   2462c:	20ffeb2e 	bgeu	r4,r3,245dc <__lesf2+0x4c>
   24630:	103ff726 	beq	r2,zero,24610 <__lesf2+0x80>
   24634:	f800283a 	ret
   24638:	283ff21e 	bne	r5,zero,24604 <__lesf2+0x74>
   2463c:	183ff11e 	bne	r3,zero,24604 <__lesf2+0x74>
   24640:	003ff106 	br	24608 <__lesf2+0x78>
   24644:	103ff21e 	bne	r2,zero,24610 <__lesf2+0x80>
   24648:	00800044 	movi	r2,1
   2464c:	f800283a 	ret

00024650 <__mulsf3>:
   24650:	defff504 	addi	sp,sp,-44
   24654:	dc400215 	stw	r17,8(sp)
   24658:	2022d5fa 	srli	r17,r4,23
   2465c:	dc000115 	stw	r16,4(sp)
   24660:	04002034 	movhi	r16,128
   24664:	dd800715 	stw	r22,28(sp)
   24668:	843fffc4 	addi	r16,r16,-1
   2466c:	dfc00a15 	stw	ra,40(sp)
   24670:	df000915 	stw	fp,36(sp)
   24674:	ddc00815 	stw	r23,32(sp)
   24678:	dd400615 	stw	r21,24(sp)
   2467c:	dd000515 	stw	r20,20(sp)
   24680:	dcc00415 	stw	r19,16(sp)
   24684:	dc800315 	stw	r18,12(sp)
   24688:	8c403fcc 	andi	r17,r17,255
   2468c:	202cd7fa 	srli	r22,r4,31
   24690:	8120703a 	and	r16,r16,r4
   24694:	88005026 	beq	r17,zero,247d8 <__mulsf3+0x188>
   24698:	88803fe0 	cmpeqi	r2,r17,255
   2469c:	1000531e 	bne	r2,zero,247ec <__mulsf3+0x19c>
   246a0:	802090fa 	slli	r16,r16,3
   246a4:	8c7fe044 	addi	r17,r17,-127
   246a8:	0025883a 	mov	r18,zero
   246ac:	84010034 	orhi	r16,r16,1024
   246b0:	0029883a 	mov	r20,zero
   246b4:	2804d5fa 	srli	r2,r5,23
   246b8:	01002034 	movhi	r4,128
   246bc:	213fffc4 	addi	r4,r4,-1
   246c0:	10803fcc 	andi	r2,r2,255
   246c4:	282ed7fa 	srli	r23,r5,31
   246c8:	2166703a 	and	r19,r4,r5
   246cc:	10004c26 	beq	r2,zero,24800 <__mulsf3+0x1b0>
   246d0:	10c03fe0 	cmpeqi	r3,r2,255
   246d4:	18001e1e 	bne	r3,zero,24750 <__mulsf3+0x100>
   246d8:	980890fa 	slli	r4,r19,3
   246dc:	10bfe044 	addi	r2,r2,-127
   246e0:	88a3883a 	add	r17,r17,r2
   246e4:	24c10034 	orhi	r19,r4,1024
   246e8:	0007883a 	mov	r3,zero
   246ec:	90800428 	cmpgeui	r2,r18,16
   246f0:	b5eaf03a 	xor	r21,r22,r23
   246f4:	8f000044 	addi	fp,r17,1
   246f8:	1000481e 	bne	r2,zero,2481c <__mulsf3+0x1cc>
   246fc:	902490ba 	slli	r18,r18,2
   24700:	008000b4 	movhi	r2,2
   24704:	9085883a 	add	r2,r18,r2
   24708:	1091c417 	ldw	r2,18192(r2)
   2470c:	1000683a 	jmp	r2
   24710:	0002481c 	xori	zero,zero,2336
   24714:	00024768 	cmpgeui	zero,zero,2333
   24718:	00024768 	cmpgeui	zero,zero,2333
   2471c:	00024764 	muli	zero,zero,2333
   24720:	00024770 	cmpltui	zero,zero,2333
   24724:	00024770 	cmpltui	zero,zero,2333
   24728:	0002497c 	xorhi	zero,zero,2341
   2472c:	00024764 	muli	zero,zero,2333
   24730:	00024770 	cmpltui	zero,zero,2333
   24734:	0002497c 	xorhi	zero,zero,2341
   24738:	00024770 	cmpltui	zero,zero,2333
   2473c:	00024764 	muli	zero,zero,2333
   24740:	0002490c 	andi	zero,zero,2340
   24744:	0002490c 	andi	zero,zero,2340
   24748:	0002490c 	andi	zero,zero,2340
   2474c:	000249e0 	cmpeqi	zero,zero,2343
   24750:	8c403fc4 	addi	r17,r17,255
   24754:	98006f1e 	bne	r19,zero,24914 <__mulsf3+0x2c4>
   24758:	94800094 	ori	r18,r18,2
   2475c:	00c00084 	movi	r3,2
   24760:	003fe206 	br	246ec <__mulsf3+0x9c>
   24764:	b82b883a 	mov	r21,r23
   24768:	9821883a 	mov	r16,r19
   2476c:	1829883a 	mov	r20,r3
   24770:	a08000a0 	cmpeqi	r2,r20,2
   24774:	1000261e 	bne	r2,zero,24810 <__mulsf3+0x1c0>
   24778:	a08000e0 	cmpeqi	r2,r20,3
   2477c:	1000ae1e 	bne	r2,zero,24a38 <__mulsf3+0x3e8>
   24780:	a0800060 	cmpeqi	r2,r20,1
   24784:	10004e26 	beq	r2,zero,248c0 <__mulsf3+0x270>
   24788:	0007883a 	mov	r3,zero
   2478c:	0009883a 	mov	r4,zero
   24790:	1c003fcc 	andi	r16,r3,255
   24794:	a8803fcc 	andi	r2,r21,255
   24798:	802095fa 	slli	r16,r16,23
   2479c:	100497fa 	slli	r2,r2,31
   247a0:	8120b03a 	or	r16,r16,r4
   247a4:	8084b03a 	or	r2,r16,r2
   247a8:	dfc00a17 	ldw	ra,40(sp)
   247ac:	df000917 	ldw	fp,36(sp)
   247b0:	ddc00817 	ldw	r23,32(sp)
   247b4:	dd800717 	ldw	r22,28(sp)
   247b8:	dd400617 	ldw	r21,24(sp)
   247bc:	dd000517 	ldw	r20,20(sp)
   247c0:	dcc00417 	ldw	r19,16(sp)
   247c4:	dc800317 	ldw	r18,12(sp)
   247c8:	dc400217 	ldw	r17,8(sp)
   247cc:	dc000117 	ldw	r16,4(sp)
   247d0:	dec00b04 	addi	sp,sp,44
   247d4:	f800283a 	ret
   247d8:	80005d1e 	bne	r16,zero,24950 <__mulsf3+0x300>
   247dc:	04800104 	movi	r18,4
   247e0:	0023883a 	mov	r17,zero
   247e4:	05000044 	movi	r20,1
   247e8:	003fb206 	br	246b4 <__mulsf3+0x64>
   247ec:	8000541e 	bne	r16,zero,24940 <__mulsf3+0x2f0>
   247f0:	04800204 	movi	r18,8
   247f4:	04403fc4 	movi	r17,255
   247f8:	05000084 	movi	r20,2
   247fc:	003fad06 	br	246b4 <__mulsf3+0x64>
   24800:	9800471e 	bne	r19,zero,24920 <__mulsf3+0x2d0>
   24804:	94800054 	ori	r18,r18,1
   24808:	00c00044 	movi	r3,1
   2480c:	003fb706 	br	246ec <__mulsf3+0x9c>
   24810:	00ffffc4 	movi	r3,-1
   24814:	0009883a 	mov	r4,zero
   24818:	003fdd06 	br	24790 <__mulsf3+0x140>
   2481c:	8028d43a 	srli	r20,r16,16
   24820:	9cbfffcc 	andi	r18,r19,65535
   24824:	843fffcc 	andi	r16,r16,65535
   24828:	900b883a 	mov	r5,r18
   2482c:	8009883a 	mov	r4,r16
   24830:	00251b00 	call	251b0 <__mulsi3>
   24834:	9826d43a 	srli	r19,r19,16
   24838:	900b883a 	mov	r5,r18
   2483c:	a009883a 	mov	r4,r20
   24840:	1025883a 	mov	r18,r2
   24844:	00251b00 	call	251b0 <__mulsi3>
   24848:	980b883a 	mov	r5,r19
   2484c:	a009883a 	mov	r4,r20
   24850:	1029883a 	mov	r20,r2
   24854:	00251b00 	call	251b0 <__mulsi3>
   24858:	9809883a 	mov	r4,r19
   2485c:	800b883a 	mov	r5,r16
   24860:	1027883a 	mov	r19,r2
   24864:	00251b00 	call	251b0 <__mulsi3>
   24868:	9006d43a 	srli	r3,r18,16
   2486c:	1505883a 	add	r2,r2,r20
   24870:	1887883a 	add	r3,r3,r2
   24874:	1d00022e 	bgeu	r3,r20,24880 <__mulsf3+0x230>
   24878:	00800074 	movhi	r2,1
   2487c:	98a7883a 	add	r19,r19,r2
   24880:	1808943a 	slli	r4,r3,16
   24884:	1820d43a 	srli	r16,r3,16
   24888:	94bfffcc 	andi	r18,r18,65535
   2488c:	2489883a 	add	r4,r4,r18
   24890:	200a91ba 	slli	r5,r4,6
   24894:	84e1883a 	add	r16,r16,r19
   24898:	802091ba 	slli	r16,r16,6
   2489c:	2008d6ba 	srli	r4,r4,26
   248a0:	2804c03a 	cmpne	r2,r5,zero
   248a4:	80c2002c 	andhi	r3,r16,2048
   248a8:	1108b03a 	or	r4,r2,r4
   248ac:	8120b03a 	or	r16,r16,r4
   248b0:	18005b26 	beq	r3,zero,24a20 <__mulsf3+0x3d0>
   248b4:	8004d07a 	srli	r2,r16,1
   248b8:	8400004c 	andi	r16,r16,1
   248bc:	1420b03a 	or	r16,r2,r16
   248c0:	e0c01fc4 	addi	r3,fp,127
   248c4:	00c0320e 	bge	zero,r3,24990 <__mulsf3+0x340>
   248c8:	808001cc 	andi	r2,r16,7
   248cc:	10000426 	beq	r2,zero,248e0 <__mulsf3+0x290>
   248d0:	808003cc 	andi	r2,r16,15
   248d4:	10800120 	cmpeqi	r2,r2,4
   248d8:	1000011e 	bne	r2,zero,248e0 <__mulsf3+0x290>
   248dc:	84000104 	addi	r16,r16,4
   248e0:	8082002c 	andhi	r2,r16,2048
   248e4:	10000426 	beq	r2,zero,248f8 <__mulsf3+0x2a8>
   248e8:	00be0034 	movhi	r2,63488
   248ec:	10bfffc4 	addi	r2,r2,-1
   248f0:	80a0703a 	and	r16,r16,r2
   248f4:	e0c02004 	addi	r3,fp,128
   248f8:	18803fc8 	cmpgei	r2,r3,255
   248fc:	103fc41e 	bne	r2,zero,24810 <__mulsf3+0x1c0>
   24900:	802091ba 	slli	r16,r16,6
   24904:	8008d27a 	srli	r4,r16,9
   24908:	003fa106 	br	24790 <__mulsf3+0x140>
   2490c:	b02b883a 	mov	r21,r22
   24910:	003f9706 	br	24770 <__mulsf3+0x120>
   24914:	948000d4 	ori	r18,r18,3
   24918:	00c000c4 	movi	r3,3
   2491c:	003f7306 	br	246ec <__mulsf3+0x9c>
   24920:	9809883a 	mov	r4,r19
   24924:	002515c0 	call	2515c <__clzsi2>
   24928:	10fffec4 	addi	r3,r2,-5
   2492c:	88a3c83a 	sub	r17,r17,r2
   24930:	98e6983a 	sll	r19,r19,r3
   24934:	8c7fe284 	addi	r17,r17,-118
   24938:	0007883a 	mov	r3,zero
   2493c:	003f6b06 	br	246ec <__mulsf3+0x9c>
   24940:	04800304 	movi	r18,12
   24944:	04403fc4 	movi	r17,255
   24948:	050000c4 	movi	r20,3
   2494c:	003f5906 	br	246b4 <__mulsf3+0x64>
   24950:	8009883a 	mov	r4,r16
   24954:	d9400015 	stw	r5,0(sp)
   24958:	002515c0 	call	2515c <__clzsi2>
   2495c:	10fffec4 	addi	r3,r2,-5
   24960:	047fe284 	movi	r17,-118
   24964:	80e0983a 	sll	r16,r16,r3
   24968:	d9400017 	ldw	r5,0(sp)
   2496c:	88a3c83a 	sub	r17,r17,r2
   24970:	0025883a 	mov	r18,zero
   24974:	0029883a 	mov	r20,zero
   24978:	003f4e06 	br	246b4 <__mulsf3+0x64>
   2497c:	01002034 	movhi	r4,128
   24980:	002b883a 	mov	r21,zero
   24984:	213fffc4 	addi	r4,r4,-1
   24988:	00ffffc4 	movi	r3,-1
   2498c:	003f8006 	br	24790 <__mulsf3+0x140>
   24990:	00800044 	movi	r2,1
   24994:	10c7c83a 	sub	r3,r2,r3
   24998:	18800708 	cmpgei	r2,r3,28
   2499c:	103f7a1e 	bne	r2,zero,24788 <__mulsf3+0x138>
   249a0:	e1002784 	addi	r4,fp,158
   249a4:	8108983a 	sll	r4,r16,r4
   249a8:	80e0d83a 	srl	r16,r16,r3
   249ac:	2008c03a 	cmpne	r4,r4,zero
   249b0:	8120b03a 	or	r16,r16,r4
   249b4:	808001cc 	andi	r2,r16,7
   249b8:	10000426 	beq	r2,zero,249cc <__mulsf3+0x37c>
   249bc:	808003cc 	andi	r2,r16,15
   249c0:	10800120 	cmpeqi	r2,r2,4
   249c4:	1000011e 	bne	r2,zero,249cc <__mulsf3+0x37c>
   249c8:	84000104 	addi	r16,r16,4
   249cc:	8081002c 	andhi	r2,r16,1024
   249d0:	10001526 	beq	r2,zero,24a28 <__mulsf3+0x3d8>
   249d4:	00c00044 	movi	r3,1
   249d8:	0009883a 	mov	r4,zero
   249dc:	003f6c06 	br	24790 <__mulsf3+0x140>
   249e0:	8080102c 	andhi	r2,r16,64
   249e4:	10000826 	beq	r2,zero,24a08 <__mulsf3+0x3b8>
   249e8:	9880102c 	andhi	r2,r19,64
   249ec:	1000061e 	bne	r2,zero,24a08 <__mulsf3+0x3b8>
   249f0:	00802034 	movhi	r2,128
   249f4:	99001034 	orhi	r4,r19,64
   249f8:	10bfffc4 	addi	r2,r2,-1
   249fc:	2088703a 	and	r4,r4,r2
   24a00:	b82b883a 	mov	r21,r23
   24a04:	003fe006 	br	24988 <__mulsf3+0x338>
   24a08:	00802034 	movhi	r2,128
   24a0c:	81001034 	orhi	r4,r16,64
   24a10:	10bfffc4 	addi	r2,r2,-1
   24a14:	2088703a 	and	r4,r4,r2
   24a18:	b02b883a 	mov	r21,r22
   24a1c:	003fda06 	br	24988 <__mulsf3+0x338>
   24a20:	8839883a 	mov	fp,r17
   24a24:	003fa606 	br	248c0 <__mulsf3+0x270>
   24a28:	802091ba 	slli	r16,r16,6
   24a2c:	0007883a 	mov	r3,zero
   24a30:	8008d27a 	srli	r4,r16,9
   24a34:	003f5606 	br	24790 <__mulsf3+0x140>
   24a38:	00802034 	movhi	r2,128
   24a3c:	81001034 	orhi	r4,r16,64
   24a40:	10bfffc4 	addi	r2,r2,-1
   24a44:	2088703a 	and	r4,r4,r2
   24a48:	003fcf06 	br	24988 <__mulsf3+0x338>

00024a4c <__subsf3>:
   24a4c:	2818d5fa 	srli	r12,r5,23
   24a50:	2006d5fa 	srli	r3,r4,23
   24a54:	200ed7fa 	srli	r7,r4,31
   24a58:	01802034 	movhi	r6,128
   24a5c:	defffc04 	addi	sp,sp,-16
   24a60:	31bfffc4 	addi	r6,r6,-1
   24a64:	63003fcc 	andi	r12,r12,255
   24a68:	3108703a 	and	r4,r6,r4
   24a6c:	3150703a 	and	r8,r6,r5
   24a70:	1a403fcc 	andi	r9,r3,255
   24a74:	dc800215 	stw	r18,8(sp)
   24a78:	dc400115 	stw	r17,4(sp)
   24a7c:	dfc00315 	stw	ra,12(sp)
   24a80:	dc000015 	stw	r16,0(sp)
   24a84:	63403fd8 	cmpnei	r13,r12,255
   24a88:	3823883a 	mov	r17,r7
   24a8c:	201490fa 	slli	r10,r4,3
   24a90:	280ad7fa 	srli	r5,r5,31
   24a94:	401690fa 	slli	r11,r8,3
   24a98:	201d883a 	mov	r14,r4
   24a9c:	4825883a 	mov	r18,r9
   24aa0:	39c03fcc 	andi	r7,r7,255
   24aa4:	4b0dc83a 	sub	r6,r9,r12
   24aa8:	68004f26 	beq	r13,zero,24be8 <__subsf3+0x19c>
   24aac:	2b40005c 	xori	r13,r5,1
   24ab0:	3b405826 	beq	r7,r13,24c14 <__subsf3+0x1c8>
   24ab4:	01803b0e 	bge	zero,r6,24ba4 <__subsf3+0x158>
   24ab8:	60004f1e 	bne	r12,zero,24bf8 <__subsf3+0x1ac>
   24abc:	58009226 	beq	r11,zero,24d08 <__subsf3+0x2bc>
   24ac0:	31bfffc4 	addi	r6,r6,-1
   24ac4:	3000e326 	beq	r6,zero,24e54 <__subsf3+0x408>
   24ac8:	4a403fe0 	cmpeqi	r9,r9,255
   24acc:	48003f1e 	bne	r9,zero,24bcc <__subsf3+0x180>
   24ad0:	30800708 	cmpgei	r2,r6,28
   24ad4:	10004d1e 	bne	r2,zero,24c0c <__subsf3+0x1c0>
   24ad8:	00c00804 	movi	r3,32
   24adc:	1987c83a 	sub	r3,r3,r6
   24ae0:	58c6983a 	sll	r3,r11,r3
   24ae4:	5984d83a 	srl	r2,r11,r6
   24ae8:	180cc03a 	cmpne	r6,r3,zero
   24aec:	1184b03a 	or	r2,r2,r6
   24af0:	5085c83a 	sub	r2,r10,r2
   24af4:	10c1002c 	andhi	r3,r2,1024
   24af8:	18008026 	beq	r3,zero,24cfc <__subsf3+0x2b0>
   24afc:	04010034 	movhi	r16,1024
   24b00:	843fffc4 	addi	r16,r16,-1
   24b04:	1420703a 	and	r16,r2,r16
   24b08:	8009883a 	mov	r4,r16
   24b0c:	002515c0 	call	2515c <__clzsi2>
   24b10:	10fffec4 	addi	r3,r2,-5
   24b14:	80c4983a 	sll	r2,r16,r3
   24b18:	1c809616 	blt	r3,r18,24d74 <__subsf3+0x328>
   24b1c:	1c87c83a 	sub	r3,r3,r18
   24b20:	1c000044 	addi	r16,r3,1
   24b24:	01000804 	movi	r4,32
   24b28:	2409c83a 	sub	r4,r4,r16
   24b2c:	1108983a 	sll	r4,r2,r4
   24b30:	1404d83a 	srl	r2,r2,r16
   24b34:	0025883a 	mov	r18,zero
   24b38:	2008c03a 	cmpne	r4,r4,zero
   24b3c:	1104b03a 	or	r2,r2,r4
   24b40:	10c001cc 	andi	r3,r2,7
   24b44:	18000426 	beq	r3,zero,24b58 <__subsf3+0x10c>
   24b48:	10c003cc 	andi	r3,r2,15
   24b4c:	18c00120 	cmpeqi	r3,r3,4
   24b50:	1800011e 	bne	r3,zero,24b58 <__subsf3+0x10c>
   24b54:	10800104 	addi	r2,r2,4
   24b58:	10c1002c 	andhi	r3,r2,1024
   24b5c:	18006926 	beq	r3,zero,24d04 <__subsf3+0x2b8>
   24b60:	90c00044 	addi	r3,r18,1
   24b64:	19003fe0 	cmpeqi	r4,r3,255
   24b68:	20006e1e 	bne	r4,zero,24d24 <__subsf3+0x2d8>
   24b6c:	100491ba 	slli	r2,r2,6
   24b70:	1008d27a 	srli	r4,r2,9
   24b74:	18803fcc 	andi	r2,r3,255
   24b78:	100495fa 	slli	r2,r2,23
   24b7c:	8c403fcc 	andi	r17,r17,255
   24b80:	882297fa 	slli	r17,r17,31
   24b84:	1104b03a 	or	r2,r2,r4
   24b88:	1444b03a 	or	r2,r2,r17
   24b8c:	dfc00317 	ldw	ra,12(sp)
   24b90:	dc800217 	ldw	r18,8(sp)
   24b94:	dc400117 	ldw	r17,4(sp)
   24b98:	dc000017 	ldw	r16,0(sp)
   24b9c:	dec00404 	addi	sp,sp,16
   24ba0:	f800283a 	ret
   24ba4:	30003526 	beq	r6,zero,24c7c <__subsf3+0x230>
   24ba8:	6247c83a 	sub	r3,r12,r9
   24bac:	6823883a 	mov	r17,r13
   24bb0:	48007d1e 	bne	r9,zero,24da8 <__subsf3+0x35c>
   24bb4:	50009926 	beq	r10,zero,24e1c <__subsf3+0x3d0>
   24bb8:	18ffffc4 	addi	r3,r3,-1
   24bbc:	1800b226 	beq	r3,zero,24e88 <__subsf3+0x43c>
   24bc0:	60803fe0 	cmpeqi	r2,r12,255
   24bc4:	10007b26 	beq	r2,zero,24db4 <__subsf3+0x368>
   24bc8:	401d883a 	mov	r14,r8
   24bcc:	70005526 	beq	r14,zero,24d24 <__subsf3+0x2d8>
   24bd0:	00802034 	movhi	r2,128
   24bd4:	71001034 	orhi	r4,r14,64
   24bd8:	10bfffc4 	addi	r2,r2,-1
   24bdc:	2088703a 	and	r4,r4,r2
   24be0:	00ffffc4 	movi	r3,-1
   24be4:	003fe306 	br	24b74 <__subsf3+0x128>
   24be8:	583fb026 	beq	r11,zero,24aac <__subsf3+0x60>
   24bec:	2b403fcc 	andi	r13,r5,255
   24bf0:	39404f26 	beq	r7,r5,24d30 <__subsf3+0x2e4>
   24bf4:	01bfeb0e 	bge	zero,r6,24ba4 <__subsf3+0x158>
   24bf8:	4a403fe0 	cmpeqi	r9,r9,255
   24bfc:	483ff31e 	bne	r9,zero,24bcc <__subsf3+0x180>
   24c00:	30800708 	cmpgei	r2,r6,28
   24c04:	5ac10034 	orhi	r11,r11,1024
   24c08:	103fb326 	beq	r2,zero,24ad8 <__subsf3+0x8c>
   24c0c:	00800044 	movi	r2,1
   24c10:	003fb706 	br	24af0 <__subsf3+0xa4>
   24c14:	0180460e 	bge	zero,r6,24d30 <__subsf3+0x2e4>
   24c18:	60002526 	beq	r12,zero,24cb0 <__subsf3+0x264>
   24c1c:	4a403fe0 	cmpeqi	r9,r9,255
   24c20:	483fea1e 	bne	r9,zero,24bcc <__subsf3+0x180>
   24c24:	5ac10034 	orhi	r11,r11,1024
   24c28:	30800708 	cmpgei	r2,r6,28
   24c2c:	1000671e 	bne	r2,zero,24dcc <__subsf3+0x380>
   24c30:	00c00804 	movi	r3,32
   24c34:	1987c83a 	sub	r3,r3,r6
   24c38:	58c6983a 	sll	r3,r11,r3
   24c3c:	5984d83a 	srl	r2,r11,r6
   24c40:	180cc03a 	cmpne	r6,r3,zero
   24c44:	1184b03a 	or	r2,r2,r6
   24c48:	1285883a 	add	r2,r2,r10
   24c4c:	10c1002c 	andhi	r3,r2,1024
   24c50:	18002a26 	beq	r3,zero,24cfc <__subsf3+0x2b0>
   24c54:	94800044 	addi	r18,r18,1
   24c58:	90c03fe0 	cmpeqi	r3,r18,255
   24c5c:	1800311e 	bne	r3,zero,24d24 <__subsf3+0x2d8>
   24c60:	1008d07a 	srli	r4,r2,1
   24c64:	00df8034 	movhi	r3,32256
   24c68:	18ffffc4 	addi	r3,r3,-1
   24c6c:	1080004c 	andi	r2,r2,1
   24c70:	20c8703a 	and	r4,r4,r3
   24c74:	2084b03a 	or	r2,r4,r2
   24c78:	003fb106 	br	24b40 <__subsf3+0xf4>
   24c7c:	48800044 	addi	r2,r9,1
   24c80:	10803f8c 	andi	r2,r2,254
   24c84:	1000401e 	bne	r2,zero,24d88 <__subsf3+0x33c>
   24c88:	48006a1e 	bne	r9,zero,24e34 <__subsf3+0x3e8>
   24c8c:	50008126 	beq	r10,zero,24e94 <__subsf3+0x448>
   24c90:	583fb826 	beq	r11,zero,24b74 <__subsf3+0x128>
   24c94:	52c5c83a 	sub	r2,r10,r11
   24c98:	1101002c 	andhi	r4,r2,1024
   24c9c:	20008126 	beq	r4,zero,24ea4 <__subsf3+0x458>
   24ca0:	5a85c83a 	sub	r2,r11,r10
   24ca4:	6823883a 	mov	r17,r13
   24ca8:	0025883a 	mov	r18,zero
   24cac:	003fa406 	br	24b40 <__subsf3+0xf4>
   24cb0:	58001526 	beq	r11,zero,24d08 <__subsf3+0x2bc>
   24cb4:	31bfffc4 	addi	r6,r6,-1
   24cb8:	30006426 	beq	r6,zero,24e4c <__subsf3+0x400>
   24cbc:	4a403fe0 	cmpeqi	r9,r9,255
   24cc0:	483fd926 	beq	r9,zero,24c28 <__subsf3+0x1dc>
   24cc4:	003fc106 	br	24bcc <__subsf3+0x180>
   24cc8:	4c800044 	addi	r18,r9,1
   24ccc:	90803f8c 	andi	r2,r18,254
   24cd0:	10004d1e 	bne	r2,zero,24e08 <__subsf3+0x3bc>
   24cd4:	4800611e 	bne	r9,zero,24e5c <__subsf3+0x410>
   24cd8:	50007626 	beq	r10,zero,24eb4 <__subsf3+0x468>
   24cdc:	583fa526 	beq	r11,zero,24b74 <__subsf3+0x128>
   24ce0:	52c5883a 	add	r2,r10,r11
   24ce4:	10c1002c 	andhi	r3,r2,1024
   24ce8:	18007426 	beq	r3,zero,24ebc <__subsf3+0x470>
   24cec:	00ff0034 	movhi	r3,64512
   24cf0:	18ffffc4 	addi	r3,r3,-1
   24cf4:	10c4703a 	and	r2,r2,r3
   24cf8:	04800044 	movi	r18,1
   24cfc:	10c001cc 	andi	r3,r2,7
   24d00:	183f911e 	bne	r3,zero,24b48 <__subsf3+0xfc>
   24d04:	101cd0fa 	srli	r14,r2,3
   24d08:	90803fe0 	cmpeqi	r2,r18,255
   24d0c:	103faf1e 	bne	r2,zero,24bcc <__subsf3+0x180>
   24d10:	00802034 	movhi	r2,128
   24d14:	10bfffc4 	addi	r2,r2,-1
   24d18:	7088703a 	and	r4,r14,r2
   24d1c:	9007883a 	mov	r3,r18
   24d20:	003f9406 	br	24b74 <__subsf3+0x128>
   24d24:	00ffffc4 	movi	r3,-1
   24d28:	0009883a 	mov	r4,zero
   24d2c:	003f9106 	br	24b74 <__subsf3+0x128>
   24d30:	303fe526 	beq	r6,zero,24cc8 <__subsf3+0x27c>
   24d34:	6247c83a 	sub	r3,r12,r9
   24d38:	48002d26 	beq	r9,zero,24df0 <__subsf3+0x3a4>
   24d3c:	60803fe0 	cmpeqi	r2,r12,255
   24d40:	103fa11e 	bne	r2,zero,24bc8 <__subsf3+0x17c>
   24d44:	52810034 	orhi	r10,r10,1024
   24d48:	18800708 	cmpgei	r2,r3,28
   24d4c:	10004c1e 	bne	r2,zero,24e80 <__subsf3+0x434>
   24d50:	00800804 	movi	r2,32
   24d54:	10c5c83a 	sub	r2,r2,r3
   24d58:	5084983a 	sll	r2,r10,r2
   24d5c:	50c6d83a 	srl	r3,r10,r3
   24d60:	1004c03a 	cmpne	r2,r2,zero
   24d64:	1888b03a 	or	r4,r3,r2
   24d68:	22c5883a 	add	r2,r4,r11
   24d6c:	6025883a 	mov	r18,r12
   24d70:	003fb606 	br	24c4c <__subsf3+0x200>
   24d74:	013f0034 	movhi	r4,64512
   24d78:	213fffc4 	addi	r4,r4,-1
   24d7c:	90e5c83a 	sub	r18,r18,r3
   24d80:	1104703a 	and	r2,r2,r4
   24d84:	003f6e06 	br	24b40 <__subsf3+0xf4>
   24d88:	52e1c83a 	sub	r16,r10,r11
   24d8c:	8081002c 	andhi	r2,r16,1024
   24d90:	1000251e 	bne	r2,zero,24e28 <__subsf3+0x3dc>
   24d94:	803f5c1e 	bne	r16,zero,24b08 <__subsf3+0xbc>
   24d98:	0023883a 	mov	r17,zero
   24d9c:	0007883a 	mov	r3,zero
   24da0:	0009883a 	mov	r4,zero
   24da4:	003f7306 	br	24b74 <__subsf3+0x128>
   24da8:	60803fe0 	cmpeqi	r2,r12,255
   24dac:	103f861e 	bne	r2,zero,24bc8 <__subsf3+0x17c>
   24db0:	52810034 	orhi	r10,r10,1024
   24db4:	18800708 	cmpgei	r2,r3,28
   24db8:	10000626 	beq	r2,zero,24dd4 <__subsf3+0x388>
   24dbc:	01000044 	movi	r4,1
   24dc0:	5905c83a 	sub	r2,r11,r4
   24dc4:	6025883a 	mov	r18,r12
   24dc8:	003f4a06 	br	24af4 <__subsf3+0xa8>
   24dcc:	00800044 	movi	r2,1
   24dd0:	003f9d06 	br	24c48 <__subsf3+0x1fc>
   24dd4:	00800804 	movi	r2,32
   24dd8:	10c5c83a 	sub	r2,r2,r3
   24ddc:	5084983a 	sll	r2,r10,r2
   24de0:	50c6d83a 	srl	r3,r10,r3
   24de4:	1004c03a 	cmpne	r2,r2,zero
   24de8:	1888b03a 	or	r4,r3,r2
   24dec:	003ff406 	br	24dc0 <__subsf3+0x374>
   24df0:	50000a26 	beq	r10,zero,24e1c <__subsf3+0x3d0>
   24df4:	18ffffc4 	addi	r3,r3,-1
   24df8:	18003226 	beq	r3,zero,24ec4 <__subsf3+0x478>
   24dfc:	60803fe0 	cmpeqi	r2,r12,255
   24e00:	103fd126 	beq	r2,zero,24d48 <__subsf3+0x2fc>
   24e04:	003f7006 	br	24bc8 <__subsf3+0x17c>
   24e08:	90803fe0 	cmpeqi	r2,r18,255
   24e0c:	103fc51e 	bne	r2,zero,24d24 <__subsf3+0x2d8>
   24e10:	52c5883a 	add	r2,r10,r11
   24e14:	1004d07a 	srli	r2,r2,1
   24e18:	003fb806 	br	24cfc <__subsf3+0x2b0>
   24e1c:	401d883a 	mov	r14,r8
   24e20:	6025883a 	mov	r18,r12
   24e24:	003fb806 	br	24d08 <__subsf3+0x2bc>
   24e28:	5aa1c83a 	sub	r16,r11,r10
   24e2c:	6823883a 	mov	r17,r13
   24e30:	003f3506 	br	24b08 <__subsf3+0xbc>
   24e34:	50000a1e 	bne	r10,zero,24e60 <__subsf3+0x414>
   24e38:	58000e1e 	bne	r11,zero,24e74 <__subsf3+0x428>
   24e3c:	01002034 	movhi	r4,128
   24e40:	0023883a 	mov	r17,zero
   24e44:	213fffc4 	addi	r4,r4,-1
   24e48:	003f6506 	br	24be0 <__subsf3+0x194>
   24e4c:	52c5883a 	add	r2,r10,r11
   24e50:	003f7e06 	br	24c4c <__subsf3+0x200>
   24e54:	52c5c83a 	sub	r2,r10,r11
   24e58:	003f2606 	br	24af4 <__subsf3+0xa8>
   24e5c:	503f5a26 	beq	r10,zero,24bc8 <__subsf3+0x17c>
   24e60:	583f5a26 	beq	r11,zero,24bcc <__subsf3+0x180>
   24e64:	2080102c 	andhi	r2,r4,64
   24e68:	103f5826 	beq	r2,zero,24bcc <__subsf3+0x180>
   24e6c:	4080102c 	andhi	r2,r8,64
   24e70:	103f561e 	bne	r2,zero,24bcc <__subsf3+0x180>
   24e74:	6823883a 	mov	r17,r13
   24e78:	401d883a 	mov	r14,r8
   24e7c:	003f5306 	br	24bcc <__subsf3+0x180>
   24e80:	01000044 	movi	r4,1
   24e84:	003fb806 	br	24d68 <__subsf3+0x31c>
   24e88:	5a85c83a 	sub	r2,r11,r10
   24e8c:	6025883a 	mov	r18,r12
   24e90:	003f1806 	br	24af4 <__subsf3+0xa8>
   24e94:	58000426 	beq	r11,zero,24ea8 <__subsf3+0x45c>
   24e98:	6823883a 	mov	r17,r13
   24e9c:	4009883a 	mov	r4,r8
   24ea0:	003f3406 	br	24b74 <__subsf3+0x128>
   24ea4:	1000051e 	bne	r2,zero,24ebc <__subsf3+0x470>
   24ea8:	0023883a 	mov	r17,zero
   24eac:	0009883a 	mov	r4,zero
   24eb0:	003f3006 	br	24b74 <__subsf3+0x128>
   24eb4:	4009883a 	mov	r4,r8
   24eb8:	003f2e06 	br	24b74 <__subsf3+0x128>
   24ebc:	0025883a 	mov	r18,zero
   24ec0:	003f8e06 	br	24cfc <__subsf3+0x2b0>
   24ec4:	52c5883a 	add	r2,r10,r11
   24ec8:	6025883a 	mov	r18,r12
   24ecc:	003f5f06 	br	24c4c <__subsf3+0x200>

00024ed0 <__fixsfsi>:
   24ed0:	200ad5fa 	srli	r5,r4,23
   24ed4:	00c02034 	movhi	r3,128
   24ed8:	18ffffc4 	addi	r3,r3,-1
   24edc:	29403fcc 	andi	r5,r5,255
   24ee0:	29801ff0 	cmpltui	r6,r5,127
   24ee4:	200ed7fa 	srli	r7,r4,31
   24ee8:	1906703a 	and	r3,r3,r4
   24eec:	3000061e 	bne	r6,zero,24f08 <__fixsfsi+0x38>
   24ef0:	288027b0 	cmpltui	r2,r5,158
   24ef4:	1000061e 	bne	r2,zero,24f10 <__fixsfsi+0x40>
   24ef8:	00a00034 	movhi	r2,32768
   24efc:	10bfffc4 	addi	r2,r2,-1
   24f00:	3885883a 	add	r2,r7,r2
   24f04:	f800283a 	ret
   24f08:	0005883a 	mov	r2,zero
   24f0c:	f800283a 	ret
   24f10:	28802590 	cmplti	r2,r5,150
   24f14:	18c02034 	orhi	r3,r3,128
   24f18:	1000051e 	bne	r2,zero,24f30 <__fixsfsi+0x60>
   24f1c:	28bfda84 	addi	r2,r5,-150
   24f20:	1884983a 	sll	r2,r3,r2
   24f24:	383ff926 	beq	r7,zero,24f0c <__fixsfsi+0x3c>
   24f28:	0085c83a 	sub	r2,zero,r2
   24f2c:	f800283a 	ret
   24f30:	00802584 	movi	r2,150
   24f34:	1145c83a 	sub	r2,r2,r5
   24f38:	1884d83a 	srl	r2,r3,r2
   24f3c:	003ff906 	br	24f24 <__fixsfsi+0x54>

00024f40 <__floatsisf>:
   24f40:	defffd04 	addi	sp,sp,-12
   24f44:	dfc00215 	stw	ra,8(sp)
   24f48:	dc400115 	stw	r17,4(sp)
   24f4c:	dc000015 	stw	r16,0(sp)
   24f50:	20001226 	beq	r4,zero,24f9c <__floatsisf+0x5c>
   24f54:	2022d7fa 	srli	r17,r4,31
   24f58:	2021883a 	mov	r16,r4
   24f5c:	20001d16 	blt	r4,zero,24fd4 <__floatsisf+0x94>
   24f60:	8009883a 	mov	r4,r16
   24f64:	002515c0 	call	2515c <__clzsi2>
   24f68:	100b883a 	mov	r5,r2
   24f6c:	00802784 	movi	r2,158
   24f70:	1145c83a 	sub	r2,r2,r5
   24f74:	10c025c8 	cmpgei	r3,r2,151
   24f78:	1800181e 	bne	r3,zero,24fdc <__floatsisf+0x9c>
   24f7c:	28c00248 	cmpgei	r3,r5,9
   24f80:	18003426 	beq	r3,zero,25054 <__floatsisf+0x114>
   24f84:	297ffe04 	addi	r5,r5,-8
   24f88:	8160983a 	sll	r16,r16,r5
   24f8c:	00c02034 	movhi	r3,128
   24f90:	18ffffc4 	addi	r3,r3,-1
   24f94:	80e0703a 	and	r16,r16,r3
   24f98:	00000306 	br	24fa8 <__floatsisf+0x68>
   24f9c:	0023883a 	mov	r17,zero
   24fa0:	0005883a 	mov	r2,zero
   24fa4:	0021883a 	mov	r16,zero
   24fa8:	10803fcc 	andi	r2,r2,255
   24fac:	100495fa 	slli	r2,r2,23
   24fb0:	8c403fcc 	andi	r17,r17,255
   24fb4:	882297fa 	slli	r17,r17,31
   24fb8:	1404b03a 	or	r2,r2,r16
   24fbc:	1444b03a 	or	r2,r2,r17
   24fc0:	dfc00217 	ldw	ra,8(sp)
   24fc4:	dc400117 	ldw	r17,4(sp)
   24fc8:	dc000017 	ldw	r16,0(sp)
   24fcc:	dec00304 	addi	sp,sp,12
   24fd0:	f800283a 	ret
   24fd4:	0121c83a 	sub	r16,zero,r4
   24fd8:	003fe106 	br	24f60 <__floatsisf+0x20>
   24fdc:	10c02690 	cmplti	r3,r2,154
   24fe0:	1800071e 	bne	r3,zero,25000 <__floatsisf+0xc0>
   24fe4:	28c006c4 	addi	r3,r5,27
   24fe8:	01000144 	movi	r4,5
   24fec:	80c6983a 	sll	r3,r16,r3
   24ff0:	2149c83a 	sub	r4,r4,r5
   24ff4:	8120d83a 	srl	r16,r16,r4
   24ff8:	1806c03a 	cmpne	r3,r3,zero
   24ffc:	80e0b03a 	or	r16,r16,r3
   25000:	28c00190 	cmplti	r3,r5,6
   25004:	1800021e 	bne	r3,zero,25010 <__floatsisf+0xd0>
   25008:	28fffec4 	addi	r3,r5,-5
   2500c:	80e0983a 	sll	r16,r16,r3
   25010:	00ff0034 	movhi	r3,64512
   25014:	18ffffc4 	addi	r3,r3,-1
   25018:	810001cc 	andi	r4,r16,7
   2501c:	80cc703a 	and	r6,r16,r3
   25020:	20000926 	beq	r4,zero,25048 <__floatsisf+0x108>
   25024:	810003cc 	andi	r4,r16,15
   25028:	21000120 	cmpeqi	r4,r4,4
   2502c:	2000061e 	bne	r4,zero,25048 <__floatsisf+0x108>
   25030:	31800104 	addi	r6,r6,4
   25034:	3101002c 	andhi	r4,r6,1024
   25038:	20000326 	beq	r4,zero,25048 <__floatsisf+0x108>
   2503c:	30cc703a 	and	r6,r6,r3
   25040:	00c027c4 	movi	r3,159
   25044:	1945c83a 	sub	r2,r3,r5
   25048:	302091ba 	slli	r16,r6,6
   2504c:	8020d27a 	srli	r16,r16,9
   25050:	003fd506 	br	24fa8 <__floatsisf+0x68>
   25054:	01002034 	movhi	r4,128
   25058:	213fffc4 	addi	r4,r4,-1
   2505c:	8120703a 	and	r16,r16,r4
   25060:	003fd106 	br	24fa8 <__floatsisf+0x68>

00025064 <__floatunsisf>:
   25064:	defffe04 	addi	sp,sp,-8
   25068:	dfc00115 	stw	ra,4(sp)
   2506c:	dc000015 	stw	r16,0(sp)
   25070:	20000f26 	beq	r4,zero,250b0 <__floatunsisf+0x4c>
   25074:	2021883a 	mov	r16,r4
   25078:	002515c0 	call	2515c <__clzsi2>
   2507c:	100b883a 	mov	r5,r2
   25080:	00802784 	movi	r2,158
   25084:	1145c83a 	sub	r2,r2,r5
   25088:	10c025c8 	cmpgei	r3,r2,151
   2508c:	1800111e 	bne	r3,zero,250d4 <__floatunsisf+0x70>
   25090:	28c00248 	cmpgei	r3,r5,9
   25094:	18002d26 	beq	r3,zero,2514c <__floatunsisf+0xe8>
   25098:	297ffe04 	addi	r5,r5,-8
   2509c:	8160983a 	sll	r16,r16,r5
   250a0:	00c02034 	movhi	r3,128
   250a4:	18ffffc4 	addi	r3,r3,-1
   250a8:	80e0703a 	and	r16,r16,r3
   250ac:	00000206 	br	250b8 <__floatunsisf+0x54>
   250b0:	0005883a 	mov	r2,zero
   250b4:	0021883a 	mov	r16,zero
   250b8:	10803fcc 	andi	r2,r2,255
   250bc:	100495fa 	slli	r2,r2,23
   250c0:	1404b03a 	or	r2,r2,r16
   250c4:	dfc00117 	ldw	ra,4(sp)
   250c8:	dc000017 	ldw	r16,0(sp)
   250cc:	dec00204 	addi	sp,sp,8
   250d0:	f800283a 	ret
   250d4:	10c02690 	cmplti	r3,r2,154
   250d8:	1800071e 	bne	r3,zero,250f8 <__floatunsisf+0x94>
   250dc:	290006c4 	addi	r4,r5,27
   250e0:	8106983a 	sll	r3,r16,r4
   250e4:	01000144 	movi	r4,5
   250e8:	2149c83a 	sub	r4,r4,r5
   250ec:	8120d83a 	srl	r16,r16,r4
   250f0:	1808c03a 	cmpne	r4,r3,zero
   250f4:	2420b03a 	or	r16,r4,r16
   250f8:	28c00190 	cmplti	r3,r5,6
   250fc:	1800021e 	bne	r3,zero,25108 <__floatunsisf+0xa4>
   25100:	28fffec4 	addi	r3,r5,-5
   25104:	80e0983a 	sll	r16,r16,r3
   25108:	01bf0034 	movhi	r6,64512
   2510c:	31bfffc4 	addi	r6,r6,-1
   25110:	80c001cc 	andi	r3,r16,7
   25114:	8188703a 	and	r4,r16,r6
   25118:	18000926 	beq	r3,zero,25140 <__floatunsisf+0xdc>
   2511c:	80c003cc 	andi	r3,r16,15
   25120:	18c00120 	cmpeqi	r3,r3,4
   25124:	1800061e 	bne	r3,zero,25140 <__floatunsisf+0xdc>
   25128:	21000104 	addi	r4,r4,4
   2512c:	20c1002c 	andhi	r3,r4,1024
   25130:	18000326 	beq	r3,zero,25140 <__floatunsisf+0xdc>
   25134:	00c027c4 	movi	r3,159
   25138:	2188703a 	and	r4,r4,r6
   2513c:	1945c83a 	sub	r2,r3,r5
   25140:	202091ba 	slli	r16,r4,6
   25144:	8020d27a 	srli	r16,r16,9
   25148:	003fdb06 	br	250b8 <__floatunsisf+0x54>
   2514c:	01002034 	movhi	r4,128
   25150:	213fffc4 	addi	r4,r4,-1
   25154:	8120703a 	and	r16,r16,r4
   25158:	003fd706 	br	250b8 <__floatunsisf+0x54>

0002515c <__clzsi2>:
   2515c:	00bfffd4 	movui	r2,65535
   25160:	11000436 	bltu	r2,r4,25174 <__clzsi2+0x18>
   25164:	20804030 	cmpltui	r2,r4,256
   25168:	10000e26 	beq	r2,zero,251a4 <__clzsi2+0x48>
   2516c:	01400804 	movi	r5,32
   25170:	00000406 	br	25184 <__clzsi2+0x28>
   25174:	00804034 	movhi	r2,256
   25178:	20800736 	bltu	r4,r2,25198 <__clzsi2+0x3c>
   2517c:	2008d63a 	srli	r4,r4,24
   25180:	01400204 	movi	r5,8
   25184:	00c000f4 	movhi	r3,3
   25188:	20c7883a 	add	r3,r4,r3
   2518c:	18a28e03 	ldbu	r2,-30152(r3)
   25190:	2885c83a 	sub	r2,r5,r2
   25194:	f800283a 	ret
   25198:	2008d43a 	srli	r4,r4,16
   2519c:	01400404 	movi	r5,16
   251a0:	003ff806 	br	25184 <__clzsi2+0x28>
   251a4:	2008d23a 	srli	r4,r4,8
   251a8:	01400604 	movi	r5,24
   251ac:	003ff506 	br	25184 <__clzsi2+0x28>

000251b0 <__mulsi3>:
   251b0:	0005883a 	mov	r2,zero
   251b4:	20000726 	beq	r4,zero,251d4 <__mulsi3+0x24>
   251b8:	20c0004c 	andi	r3,r4,1
   251bc:	2008d07a 	srli	r4,r4,1
   251c0:	18000126 	beq	r3,zero,251c8 <__mulsi3+0x18>
   251c4:	1145883a 	add	r2,r2,r5
   251c8:	294b883a 	add	r5,r5,r5
   251cc:	203ffa1e 	bne	r4,zero,251b8 <__mulsi3+0x8>
   251d0:	f800283a 	ret
   251d4:	f800283a 	ret

000251d8 <malloc>:
   251d8:	008000f4 	movhi	r2,3
   251dc:	200b883a 	mov	r5,r4
   251e0:	11297317 	ldw	r4,-23092(r2)
   251e4:	00251f81 	jmpi	251f8 <_malloc_r>

000251e8 <free>:
   251e8:	008000f4 	movhi	r2,3
   251ec:	200b883a 	mov	r5,r4
   251f0:	11297317 	ldw	r4,-23092(r2)
   251f4:	0025cf41 	jmpi	25cf4 <_free_r>

000251f8 <_malloc_r>:
   251f8:	defff604 	addi	sp,sp,-40
   251fc:	dc400115 	stw	r17,4(sp)
   25200:	2c4002c4 	addi	r17,r5,11
   25204:	dc800215 	stw	r18,8(sp)
   25208:	dfc00915 	stw	ra,36(sp)
   2520c:	df000815 	stw	fp,32(sp)
   25210:	ddc00715 	stw	r23,28(sp)
   25214:	dd800615 	stw	r22,24(sp)
   25218:	dd400515 	stw	r21,20(sp)
   2521c:	dd000415 	stw	r20,16(sp)
   25220:	dcc00315 	stw	r19,12(sp)
   25224:	dc000015 	stw	r16,0(sp)
   25228:	888005e8 	cmpgeui	r2,r17,23
   2522c:	2025883a 	mov	r18,r4
   25230:	10001b1e 	bne	r2,zero,252a0 <_malloc_r+0xa8>
   25234:	29400468 	cmpgeui	r5,r5,17
   25238:	2800821e 	bne	r5,zero,25444 <_malloc_r+0x24c>
   2523c:	00263f00 	call	263f0 <__malloc_lock>
   25240:	04400404 	movi	r17,16
   25244:	01c00084 	movi	r7,2
   25248:	00800604 	movi	r2,24
   2524c:	04c000f4 	movhi	r19,3
   25250:	9ce2db04 	addi	r19,r19,-29844
   25254:	9885883a 	add	r2,r19,r2
   25258:	14000117 	ldw	r16,4(r2)
   2525c:	10fffe04 	addi	r3,r2,-8
   25260:	80c08b26 	beq	r16,r3,25490 <_malloc_r+0x298>
   25264:	80800117 	ldw	r2,4(r16)
   25268:	81000317 	ldw	r4,12(r16)
   2526c:	00ffff04 	movi	r3,-4
   25270:	10c4703a 	and	r2,r2,r3
   25274:	81400217 	ldw	r5,8(r16)
   25278:	8085883a 	add	r2,r16,r2
   2527c:	10c00117 	ldw	r3,4(r2)
   25280:	29000315 	stw	r4,12(r5)
   25284:	21400215 	stw	r5,8(r4)
   25288:	18c00054 	ori	r3,r3,1
   2528c:	10c00115 	stw	r3,4(r2)
   25290:	9009883a 	mov	r4,r18
   25294:	00264140 	call	26414 <__malloc_unlock>
   25298:	80800204 	addi	r2,r16,8
   2529c:	00006c06 	br	25450 <_malloc_r+0x258>
   252a0:	00bffe04 	movi	r2,-8
   252a4:	88a2703a 	and	r17,r17,r2
   252a8:	88006616 	blt	r17,zero,25444 <_malloc_r+0x24c>
   252ac:	89406536 	bltu	r17,r5,25444 <_malloc_r+0x24c>
   252b0:	00263f00 	call	263f0 <__malloc_lock>
   252b4:	88807e28 	cmpgeui	r2,r17,504
   252b8:	10012226 	beq	r2,zero,25744 <_malloc_r+0x54c>
   252bc:	8804d27a 	srli	r2,r17,9
   252c0:	10006f26 	beq	r2,zero,25480 <_malloc_r+0x288>
   252c4:	10c00168 	cmpgeui	r3,r2,5
   252c8:	1800fe1e 	bne	r3,zero,256c4 <_malloc_r+0x4cc>
   252cc:	8804d1ba 	srli	r2,r17,6
   252d0:	11c00e44 	addi	r7,r2,57
   252d4:	380890fa 	slli	r4,r7,3
   252d8:	12000e04 	addi	r8,r2,56
   252dc:	04c000f4 	movhi	r19,3
   252e0:	9ce2db04 	addi	r19,r19,-29844
   252e4:	9909883a 	add	r4,r19,r4
   252e8:	24000117 	ldw	r16,4(r4)
   252ec:	213ffe04 	addi	r4,r4,-8
   252f0:	24000b26 	beq	r4,r16,25320 <_malloc_r+0x128>
   252f4:	01bfff04 	movi	r6,-4
   252f8:	00000306 	br	25308 <_malloc_r+0x110>
   252fc:	1800d60e 	bge	r3,zero,25658 <_malloc_r+0x460>
   25300:	84000317 	ldw	r16,12(r16)
   25304:	24000626 	beq	r4,r16,25320 <_malloc_r+0x128>
   25308:	80800117 	ldw	r2,4(r16)
   2530c:	1184703a 	and	r2,r2,r6
