00020000 A __alt_mem_onchip_memory2_0
00020000 T __reset
00020020 A __flash_exceptions_start
00020020 A __ram_exceptions_start
00020020 T alt_exception
00020020 T alt_irq_entry
000200fc T alt_irq_handler
000201c4 T alt_instruction_exception_entry
00020224 A __ram_exceptions_end
00020224 T _start
0002025c t alt_after_alt_main
00020260 T main
000202e4 t _Z41__static_initialization_and_destruction_0ii
00020358 t _GLOBAL__sub_I_searcher
00020388 t _GLOBAL__sub_D_searcher
000203b8 T _ZN15LTC5548_HANDLERC1Ev
000203b8 T _ZN15LTC5548_HANDLERC2Ev
000203ec T _ZN15LTC5548_HANDLERD1Ev
000203ec T _ZN15LTC5548_HANDLERD2Ev
00020420 T _ZN15LTC5548_HANDLERD0Ev
0002045c T _ZN15LTC5548_HANDLER4InitEv
000204d0 T _ZN15LTC5548_HANDLER9Set_MixerEb
00020524 T _ZN15LTC5548_HANDLER11Start_MixerEv
00020588 T _ZN15LTC5548_HANDLER10Stop_MixerEv
000205c4 T _ZN15LTC5548_HANDLER10Set_EnableEb
00020648 T _ZN15LTC5548_HANDLER14Read_ADC_ValueEv
00020688 T _ZN15LTC5548_HANDLER10Read_IndexEv
000206c4 t _Z41__static_initialization_and_destruction_0ii
00020738 t _GLOBAL__sub_I__ZN15LTC5548_HANDLERC2Ev
00020768 t _GLOBAL__sub_D__ZN15LTC5548_HANDLERC2Ev
00020798 T _ZN15lmx2694_HandlerC1Ev
00020798 T _ZN15lmx2694_HandlerC2Ev
00020870 T _ZN15lmx2694_HandlerD1Ev
00020870 T _ZN15lmx2694_HandlerD2Ev
000208b8 T _ZN15lmx2694_HandlerD0Ev
000208f4 T _ZN15lmx2694_Handler4InitEv
0002099c T _ZN15lmx2694_Handler14Set_MASH_ORDEREh
00020a50 T _ZN15lmx2694_Handler10Got_LockedEv
00020b30 T _ZN15lmx2694_Handler11Get_OUT_MUXEh
00020b98 T _ZN15lmx2694_Handler25Get_Channel_Divider_ValueEb
00020c3c T _ZN15lmx2694_Handler13Get_N_DividerEb
00020cb0 T _ZN15lmx2694_Handler13Get_NumeratorEb
00020d24 T _ZN15lmx2694_Handler15Get_DenominatorEb
00020d98 T _ZN15lmx2694_Handler27Calculate_Current_FrequencyEb
00020e78 T _ZN15lmx2694_Handler3GCDEmm
00020f1c T _ZN15lmx2694_Handler20Set_Target_FrequencyEf
000211b0 T _ZN15lmx2694_Handler24Write_Division_RegistersEv
00021298 T _ZN15lmx2694_Handler28Choose_Channel_Divider_IndexEv
000213e0 T _ZN15lmx2694_Handler19Program_PFD_DLY_SELEf
000214ec T _ZN15lmx2694_Handler19Program_PFD_DLY_SELEv
000215a0 T _ZN15lmx2694_Handler18Calculate_FractionEf
00021698 T _ZN15lmx2694_Handler10Power_DownEv
00021740 T _ZN15lmx2694_Handler13Write_FCAL_ENEb
000217ec T _ZN15lmx2694_Handler14Toggle_FCAL_ENEv
0002184c T _ZN15lmx2694_Handler13Program_ResetEv
00021960 T _ZN15lmx2694_Handler15Get_Three_BytesEm
000219d0 T _ZN15lmx2694_Handler16Make_Three_BytesEht
00021a5c T _ZN15lmx2694_Handler18Initiate_RegistersEv
00021b3c T _ZN15lmx2694_Handler21Write_Single_RegisterEht
00021c50 T _ZN15lmx2694_Handler20Read_Single_RegisterEh
00021de0 T _ZN15lmx2694_Handler19Set_MUXOUT_READBACKEb
00021e88 T _ZN15lmx2694_Handler9Self_TestEv
000220d0 t _Z41__static_initialization_and_destruction_0ii
00022144 t _GLOBAL__sub_I__ZN15lmx2694_HandlerC2Ev
00022174 t _GLOBAL__sub_D__ZN15lmx2694_HandlerC2Ev
000221a4 W _ZN11SPI_Handler5WriteEPhm
000221e4 W _ZN11SPI_Handler4ReadEPhm
00022224 W _ZSt5floorf
0002225c W _ZSt5roundf
00022294 T _ZN18PLL_LOCKED_CAPTUREC1Ev
00022294 T _ZN18PLL_LOCKED_CAPTUREC2Ev
000222f4 T _ZN18PLL_LOCKED_CAPTURED1Ev
000222f4 T _ZN18PLL_LOCKED_CAPTURED2Ev
00022328 T _ZN18PLL_LOCKED_CAPTURED0Ev
00022364 t _ZL21handle_pll_interruptsPv
000223b8 T _ZN18PLL_LOCKED_CAPTURE12init_pll_pioEv
00022450 T _ZN18PLL_LOCKED_CAPTURE15disable_pll_pioEv
000224b0 T _ZN18PLL_LOCKED_CAPTURE9Is_LockedEv
00022570 T _ZN18PLL_LOCKED_CAPTURE17Capture_InterruptEv
0002260c T _ZN11SPI_HandlerC1Ev
0002260c T _ZN11SPI_HandlerC2Ev
00022658 T _ZN11SPI_HandlerD1Ev
00022658 T _ZN11SPI_HandlerD2Ev
0002268c T _ZN11SPI_HandlerD0Ev
000226c8 T _ZN11SPI_Handler4InitEmm
0002270c T _ZN11SPI_Handler4OpenEv
00022748 T _ZN11SPI_Handler5CloseEv
00022780 T _ZN11SPI_Handler5SetCSEb
000227e4 T _ZN11SPI_Handler9WriteDataEPhm
0002296c T _ZN11SPI_Handler12TransferDataEPhm
000229e8 T _ZN11SPI_Handler12TransferDataEPhS0_m
00022a6c T _ZN11SPI_Handler12TransferDataEPhmS0_m
00022af0 T _ZN11SPI_Handler8ReadDataEPhS0_m
00022b74 T _ZN11SPI_Handler8ReadDataEPhm
00022d0c T _ZNK10__cxxabiv117__class_type_info11__do_upcastEPKS0_PPv
00022d84 T _ZNK10__cxxabiv117__class_type_info20__do_find_public_srcEiPKvPKS0_S2_
00022d9c T _ZN10__cxxabiv117__class_type_infoD1Ev
00022d9c T _ZN10__cxxabiv117__class_type_infoD2Ev
00022dac T _ZN10__cxxabiv117__class_type_infoD0Ev
00022de4 T _ZNK10__cxxabiv117__class_type_info12__do_dyncastEiNS0_10__sub_kindEPKS0_PKvS3_S5_RNS0_16__dyncast_resultE
00022ea8 T _ZNK10__cxxabiv117__class_type_info11__do_upcastEPKS0_PKvRNS0_15__upcast_resultE
00022f14 T _ZNK10__cxxabiv117__class_type_info10__do_catchEPKSt9type_infoPPvj
00022fbc T _ZdlPvj
00022fc0 T _ZN10__cxxabiv120__si_class_type_infoD1Ev
00022fc0 T _ZN10__cxxabiv120__si_class_type_infoD2Ev
00022fd0 T _ZN10__cxxabiv120__si_class_type_infoD0Ev
00023008 T _ZNK10__cxxabiv120__si_class_type_info20__do_find_public_srcEiPKvPKNS_17__class_type_infoES2_
000230a4 T _ZNK10__cxxabiv120__si_class_type_info12__do_dyncastEiNS_17__class_type_info10__sub_kindEPKS1_PKvS4_S6_RNS1_16__dyncast_resultE
00023204 T _ZNK10__cxxabiv120__si_class_type_info11__do_upcastEPKNS_17__class_type_infoEPKvRNS1_15__upcast_resultE
00023288 T _ZNSt9type_infoD1Ev
00023288 T _ZNSt9type_infoD2Ev
0002328c T _ZNKSt9type_info14__is_pointer_pEv
0002328c T _ZNKSt9type_info15__is_function_pEv
00023294 T _ZNKSt9type_info11__do_upcastEPKN10__cxxabiv117__class_type_infoEPPv
0002329c T _ZNSt9type_infoD0Ev
000232a4 T _ZNKSt9type_info10__do_catchEPKS_PPvj
000232e8 T _ZN10__cxxabiv121__vmi_class_type_infoD1Ev
000232e8 T _ZN10__cxxabiv121__vmi_class_type_infoD2Ev
000232f8 T _ZN10__cxxabiv121__vmi_class_type_infoD0Ev
00023330 T _ZNK10__cxxabiv121__vmi_class_type_info20__do_find_public_srcEiPKvPKNS_17__class_type_infoES2_
00023458 T _ZNK10__cxxabiv121__vmi_class_type_info12__do_dyncastEiNS_17__class_type_info10__sub_kindEPKS1_PKvS4_S6_RNS1_16__dyncast_resultE
00023a64 T _ZNK10__cxxabiv121__vmi_class_type_info11__do_upcastEPKNS_17__class_type_infoEPKvRNS1_15__upcast_resultE
00023cc8 T _ZdlPv
00023ccc T floorf
00023dc0 T roundf
00023e44 T __fixunssfsi
00023ea4 T __divsi3
00023f24 T __modsi3
00023f98 T __udivsi3
00023ffc T __umodsi3
00024058 T __addsf3
000244b4 T __divsf3
000248a8 T __gesf2
000248a8 T __gtsf2
0002496c T __lesf2
0002496c T __ltsf2
00024a2c T __mulsf3
00024e28 T __subsf3
000252ac T __fixsfsi
0002531c T __floatsisf
00025440 T __floatunsisf
00025538 T __clzsi2
0002558c T __mulsi3
000255b4 T malloc
000255c4 T free
000255d4 T _malloc_r
00025db4 T memset
00025ea4 T _printf_r
00025ed4 T printf
00025f0c T _sbrk_r
00025f64 T strcmp
0002601c T ___vfprintf_internal_r
00028108 T __vfprintf_internal
00028124 t __sbprintf
000281e4 T __swsetup_r
00028340 t quorem
00028560 T _dtoa_r
00029cb0 T __sflush_r
00029ed8 T _fflush_r
00029f38 T fflush
00029f60 t __fp_lock
00029f68 T _cleanup_r
00029f74 t __sinit.part.0
0002a0dc t __fp_unlock
0002a0e4 T __sfmoreglue
0002a15c T __sfp
0002a258 T _cleanup
0002a26c T __sinit
0002a27c T __sfp_lock_acquire
0002a280 T __sfp_lock_release
0002a284 T __sinit_lock_acquire
0002a288 T __sinit_lock_release
0002a28c T __fp_lock_all
0002a2a0 T __fp_unlock_all
0002a2b4 T _malloc_trim_r
0002a3d0 T _free_r
0002a6cc T _fwalk
0002a764 T _fwalk_reent
0002a80c T __localeconv_l
0002a814 T _localeconv_r
0002a820 T localeconv
0002a82c T __swhatbuf_r
0002a8c4 T __smakebuf_r
0002aa04 T memchr
0002aad8 T memcpy
0002abd8 T _Balloc
0002ac7c T _Bfree
0002aca0 T __multadd
0002adfc T __s2b
0002af34 T __hi0bits
0002af98 T __lo0bits
0002b048 T __i2b
0002b09c T __multiply
0002b348 T __pow5mult
0002b460 T __lshift
0002b5e8 T __mcmp
0002b640 T __mdiff
0002b86c T __ulp
0002b8c8 T __b2d
0002b9cc T __d2b
0002bb30 T __ratio
0002bbd4 T _mprec_log10
0002bc44 T __copybits
0002bcb0 T __any_on
0002bd10 T __sread
0002bd64 T __seofread
0002bd6c T __swrite
0002bdec T __sseek
0002be48 T __sclose
0002be50 T strlen
0002bee8 t __sprint_r.part.0
0002bfdc T __sprint_r
0002bff4 T ___vfiprintf_internal_r
0002d308 T __vfiprintf_internal
0002d324 t __sbprintf
0002d3e4 T _write_r
0002d448 T _close_r
0002d4a0 T __assert_func
0002d504 T __assert
0002d518 T _calloc_r
0002d5dc T _fclose_r
0002d6d4 T fclose
0002d6e4 T _fiprintf_r
0002d704 T fiprintf
0002d73c T __fputwc
0002d8a0 T _fputwc_r
0002d8c4 T fputwc
0002d93c T _fstat_r
0002d99c T __sfvwrite_r
0002de68 T _isatty_r
0002dec0 T _setlocale_r
0002df34 T __locale_mb_cur_max
0002df40 T setlocale
0002df58 T _lseek_r
0002dfbc T _mbtowc_r
0002dfc8 T __ascii_mbtowc
0002e00c T memmove
0002e138 T _read_r
0002e19c T _realloc_r
0002e700 T _vfiprintf_r
0002e704 T __swbuf_r
0002e84c T __swbuf
0002e864 T _wcrtomb_r
0002e8d0 T wcrtomb
0002e958 T _wctomb_r
0002e964 T __ascii_wctomb
0002e994 T abort
0002e9ac t _init_signal_r.part.0
0002e9f8 T _init_signal_r
0002ea0c T _signal_r
0002ea90 T _raise_r
0002eb54 T __sigtramp_r
0002ec0c T raise
0002ec1c T signal
0002ec34 T _init_signal
0002ec50 T __sigtramp
0002ec60 T _kill_r
0002ecc0 T _getpid_r
0002ecc4 T __udivdi3
0002f2e0 T __umoddi3
0002f8a4 T __adddf3
0003021c T __divdf3
00030b50 T __eqdf2
00030b50 T __nedf2
00030bd0 T __gedf2
00030bd0 T __gtdf2
00030cc0 T __ledf2
00030cc0 T __ltdf2
00030db0 T __muldf3
00031558 T __subdf3
00031e8c T __unorddf2
00031ee0 T __fixdfsi
00031f60 T __floatsidf
0003201c T __floatunsidf
000320ac t alt_get_errno
000320e8 T close
000321c4 t alt_dev_null_write
000321f0 T _exit
00032228 t alt_get_errno
00032264 T fstat
00032320 T getpid
00032340 T alt_ic_isr_register
00032390 T alt_ic_irq_enable
00032418 T alt_ic_irq_disable
000324a4 T alt_ic_irq_enabled
000324f0 T alt_iic_isr_register
000325d8 t alt_get_errno
00032614 T isatty
000326c4 t alt_get_errno
00032700 T kill
0003282c t alt_load_section
00032894 T alt_load
00032918 t alt_get_errno
00032954 T lseek
00032a34 T alt_main
00032ab0 T __malloc_lock
00032ad4 T __malloc_unlock
00032af8 t alt_get_errno
00032b34 T read
00032c3c T alt_release_fd
00032cac T sbrk
00032d64 T usleep
00032d94 t alt_get_errno
00032dd0 T write
00032ed4 t alt_dev_reg
00032f08 T alt_irq_init
00032f44 T alt_sys_init
00032f90 T altera_avalon_jtag_uart_read_fd
00032ff0 T altera_avalon_jtag_uart_write_fd
00033050 T altera_avalon_jtag_uart_close_fd
000330a0 T altera_avalon_jtag_uart_ioctl_fd
000330f4 T altera_avalon_jtag_uart_init
000331b4 t altera_avalon_jtag_uart_irq
000333c0 t altera_avalon_jtag_uart_timeout
00033460 T altera_avalon_jtag_uart_close
000334c8 T altera_avalon_jtag_uart_ioctl
000335bc T altera_avalon_jtag_uart_read
000337dc T altera_avalon_jtag_uart_write
00033a04 T alt_avalon_spi_command
00033c00 T alt_alarm_start
00033d34 T alt_busy_sleep
00033e8c T alt_dcache_flush_all
00033eac t alt_get_errno
00033ee8 T alt_dev_llist_insert
00033f90 T _do_ctors
00033ff4 T _do_dtors
00034058 T alt_icache_flush_all
00034078 T alt_exception_cause_generated_bad_addr
00034110 t alt_open_fd
000341e4 T alt_io_redirect
00034260 t alt_get_errno
0003429c t alt_file_locked
00034378 T open
000344d8 T alt_alarm_stop
0003457c T alt_tick
00034684 T altera_nios2_gen2_irq_init
000346a8 T alt_find_dev
00034738 T alt_find_file
00034840 T alt_get_fd
000348f8 T atexit
0003490c T exit
00034940 T memcmp
000349b8 T __register_exitproc
00034a48 T __call_exitprocs
00034b68 A __CTOR_LIST__
00034b74 A __CTOR_END__
00034b74 A __DTOR_LIST__
00034b80 A __DTOR_END__
00034b80 A __flash_rodata_start
00034b80 A __ram_rodata_start
00034b80 r _ZL17default_registers
00034c8e r _ZL17default_registers
00034d74 V _ZTV15LTC5548_HANDLER
00034d84 V _ZTS15LTC5548_HANDLER
00034d98 r _ZL17default_registers
00034e80 r _ZL22channel_divider_values
00034eb8 V _ZTV15lmx2694_Handler
00034ec8 V _ZTI15lmx2694_Handler
00034ee0 V _ZTS15lmx2694_Handler
00034ef4 V _ZTV18PLL_LOCKED_CAPTURE
00034f04 V _ZTS18PLL_LOCKED_CAPTURE
00034f1c V _ZTV11SPI_Handler
00034f2c V _ZTS11SPI_Handler
00034f3c V _ZTSN10__cxxabiv117__class_type_infoE
00034f60 V _ZTIN10__cxxabiv117__class_type_infoE
00034f6c V _ZTVN10__cxxabiv117__class_type_infoE
00034f98 V _ZTSN10__cxxabiv120__si_class_type_infoE
00034fc0 V _ZTIN10__cxxabiv120__si_class_type_infoE
00034fcc V _ZTVN10__cxxabiv120__si_class_type_infoE
00034ff8 V _ZTSSt9type_info
00035008 V _ZTVSt9type_info
00035028 V _ZTSN10__cxxabiv121__vmi_class_type_infoE
00035050 V _ZTIN10__cxxabiv121__vmi_class_type_infoE
0003505c V _ZTVN10__cxxabiv121__vmi_class_type_infoE
00035088 R __clz_tab
000351cc r zeroes.5177
000351dc r blanks.5176
00035290 r p05.3991
0003529c R __mprec_tinytens
000352c4 R __mprec_bigtens
000352ec R __mprec_tens
000353b4 r zeroes.5154
000353c4 r blanks.5153
00035424 R _ctype_
00035528 R _ctype_b
000356dc G __malloc_av_
000356dc A __ram_rodata_end
000356dc A __ram_rwdata_start
00035ae4 g impure_data
00035f08 G __global_locale
00036074 G alt_dev_null
0003609c G alt_fd_list
0003621c g jtag_uart_0
0003727c V _ZTI15LTC5548_HANDLER
00037284 g _ZL20channel_divider_size
00037288 g _ZL9precision
0003728c V _ZTI18PLL_LOCKED_CAPTURE
00037294 V _ZTI11SPI_Handler
0003729c V _ZTISt9type_info
000372a4 G __malloc_sbrk_base
000372a8 G __malloc_trim_threshold
000372ac G _global_impure_ptr
000372b0 G _impure_ptr
000372b4 G alt_fs_list
000372bc G alt_dev_list
000372c4 G alt_max_fd
000372c8 G alt_errno
000372cc G alt_priority_mask
000372d0 g heap_end
000372d4 G alt_alarm_list
000372dc A __flash_rwdata_start
000372dc A __ram_rwdata_end
000372dc A _edata
00038edc A __bss_start
00038edc B __malloc_max_total_mem
00038ee0 B __malloc_max_sbrked_mem
00038ee4 B __malloc_top_pad
00038ee8 B errno
00038eec B _PathLocale
00038ef0 B alt_irq_active
00038ef4 B alt_argc
00038ef8 B alt_argv
00038efc B alt_envp
00038f00 B alt_instruction_exception_handler
00038f04 B _alt_tick_rate
00038f08 B _alt_nticks
00038f0c B searcher
00038f1c b _ZL9local_lmx
00038f7c b _ZL9staticSPI
00038fcc b _ZL20local_read_registers
000390b2 b _ZL21local_write_registers
00039198 B __malloc_current_mallinfo
000391c0 B alt_irq
000392c0 A __alt_heap_start
000392c0 A __alt_stack_base
000392c0 A __bss_end
000392c0 A _end
000392c0 A end
0003f27c A _gp
00040000 A __alt_data_end
00040000 A __alt_heap_limit
00040000 A __alt_stack_pointer
