00020000 A __alt_mem_onchip_memory2_0
00020000 T __reset
00020020 A __flash_exceptions_start
00020020 A __ram_exceptions_start
00020020 T alt_exception
00020020 T alt_irq_entry
00020108 T alt_irq_handler
000201d0 T alt_instruction_exception_entry
00020230 A __ram_exceptions_end
00020230 T _start
00020268 t alt_after_alt_main
0002026c T main
000202e8 t _Z41__static_initialization_and_destruction_0ii
0002035c t _GLOBAL__sub_I_main
0002038c t _GLOBAL__sub_D_main
000203bc T _ZN15lmx2694_HandlerC1Ev
000203bc T _ZN15lmx2694_HandlerC2Ev
00020494 T _ZN15lmx2694_HandlerD1Ev
00020494 T _ZN15lmx2694_HandlerD2Ev
000204dc T _ZN15lmx2694_HandlerD0Ev
00020518 T _ZN15lmx2694_Handler4InitEv
000205c0 T _ZN15lmx2694_Handler14Set_MASH_ORDEREh
00020674 T _ZN15lmx2694_Handler10Got_LockedEv
00020754 T _ZN15lmx2694_Handler11Get_OUT_MUXEh
000207bc T _ZN15lmx2694_Handler25Get_Channel_Divider_ValueEb
00020860 T _ZN15lmx2694_Handler13Get_N_DividerEb
000208d4 T _ZN15lmx2694_Handler13Get_NumeratorEb
00020948 T _ZN15lmx2694_Handler15Get_DenominatorEb
000209bc T _ZN15lmx2694_Handler27Calculate_Current_FrequencyEb
00020a9c T _ZN15lmx2694_Handler3GCDEmm
00020b40 T _ZN15lmx2694_Handler20Set_Target_FrequencyEf
00020dd4 T _ZN15lmx2694_Handler24Write_Division_RegistersEv
00020ebc T _ZN15lmx2694_Handler28Choose_Channel_Divider_IndexEv
00021004 T _ZN15lmx2694_Handler19Program_PFD_DLY_SELEf
00021110 T _ZN15lmx2694_Handler19Program_PFD_DLY_SELEv
000211c4 T _ZN15lmx2694_Handler18Calculate_FractionEf
000212bc T _ZN15lmx2694_Handler10Power_DownEv
00021364 T _ZN15lmx2694_Handler13Write_FCAL_ENEb
00021410 T _ZN15lmx2694_Handler14Toggle_FCAL_ENEv
00021470 T _ZN15lmx2694_Handler13Program_ResetEv
00021584 T _ZN15lmx2694_Handler15Get_Three_BytesEm
000215f4 T _ZN15lmx2694_Handler16Make_Three_BytesEht
00021680 T _ZN15lmx2694_Handler18Initiate_RegistersEv
00021760 T _ZN15lmx2694_Handler21Write_Single_RegisterEht
00021874 T _ZN15lmx2694_Handler20Read_Single_RegisterEh
00021a04 T _ZN15lmx2694_Handler19Set_MUXOUT_READBACKEb
00021aac T _ZN15lmx2694_Handler9Self_TestEv
00021cf4 t _Z41__static_initialization_and_destruction_0ii
00021d68 t _GLOBAL__sub_I__ZN15lmx2694_HandlerC2Ev
00021d98 t _GLOBAL__sub_D__ZN15lmx2694_HandlerC2Ev
00021dc8 W _ZN11SPI_Handler5WriteEPhm
00021e08 W _ZN11SPI_Handler4ReadEPhm
00021e48 W _ZSt5floorf
00021e80 W _ZSt5roundf
00021eb8 T _ZN18PLL_LOCKED_CAPTUREC1Ev
00021eb8 T _ZN18PLL_LOCKED_CAPTUREC2Ev
00021f18 T _ZN18PLL_LOCKED_CAPTURED1Ev
00021f18 T _ZN18PLL_LOCKED_CAPTURED2Ev
00021f4c T _ZN18PLL_LOCKED_CAPTURED0Ev
00021f88 t _ZL21handle_pll_interruptsPv
00021fdc T _ZN18PLL_LOCKED_CAPTURE12init_pll_pioEv
00022074 T _ZN18PLL_LOCKED_CAPTURE15disable_pll_pioEv
000220d4 T _ZN18PLL_LOCKED_CAPTURE9Is_LockedEv
00022194 T _ZN18PLL_LOCKED_CAPTURE17Capture_InterruptEv
00022230 T _ZN11SPI_HandlerC1Ev
00022230 T _ZN11SPI_HandlerC2Ev
0002227c T _ZN11SPI_HandlerD1Ev
0002227c T _ZN11SPI_HandlerD2Ev
000222b0 T _ZN11SPI_HandlerD0Ev
000222ec T _ZN11SPI_Handler4InitEmm
00022330 T _ZN11SPI_Handler4OpenEv
0002236c T _ZN11SPI_Handler5CloseEv
000223a4 T _ZN11SPI_Handler5SetCSEb
00022408 T _ZN11SPI_Handler9WriteDataEPhm
00022590 T _ZN11SPI_Handler12TransferDataEPhm
0002260c T _ZN11SPI_Handler12TransferDataEPhS0_m
00022690 T _ZN11SPI_Handler12TransferDataEPhmS0_m
00022714 T _ZN11SPI_Handler8ReadDataEPhS0_m
00022798 T _ZN11SPI_Handler8ReadDataEPhm
00022930 T _ZNK10__cxxabiv117__class_type_info11__do_upcastEPKS0_PPv
000229a8 T _ZNK10__cxxabiv117__class_type_info20__do_find_public_srcEiPKvPKS0_S2_
000229c0 T _ZN10__cxxabiv117__class_type_infoD1Ev
000229c0 T _ZN10__cxxabiv117__class_type_infoD2Ev
000229d0 T _ZN10__cxxabiv117__class_type_infoD0Ev
00022a08 T _ZNK10__cxxabiv117__class_type_info12__do_dyncastEiNS0_10__sub_kindEPKS0_PKvS3_S5_RNS0_16__dyncast_resultE
00022acc T _ZNK10__cxxabiv117__class_type_info11__do_upcastEPKS0_PKvRNS0_15__upcast_resultE
00022b38 T _ZNK10__cxxabiv117__class_type_info10__do_catchEPKSt9type_infoPPvj
00022be0 T _ZdlPvj
00022be4 T _ZN10__cxxabiv120__si_class_type_infoD1Ev
00022be4 T _ZN10__cxxabiv120__si_class_type_infoD2Ev
00022bf4 T _ZN10__cxxabiv120__si_class_type_infoD0Ev
00022c2c T _ZNK10__cxxabiv120__si_class_type_info20__do_find_public_srcEiPKvPKNS_17__class_type_infoES2_
00022cc8 T _ZNK10__cxxabiv120__si_class_type_info12__do_dyncastEiNS_17__class_type_info10__sub_kindEPKS1_PKvS4_S6_RNS1_16__dyncast_resultE
00022e28 T _ZNK10__cxxabiv120__si_class_type_info11__do_upcastEPKNS_17__class_type_infoEPKvRNS1_15__upcast_resultE
00022eac T _ZNSt9type_infoD1Ev
00022eac T _ZNSt9type_infoD2Ev
00022eb0 T _ZNKSt9type_info14__is_pointer_pEv
00022eb0 T _ZNKSt9type_info15__is_function_pEv
00022eb8 T _ZNKSt9type_info11__do_upcastEPKN10__cxxabiv117__class_type_infoEPPv
00022ec0 T _ZNSt9type_infoD0Ev
00022ec8 T _ZNKSt9type_info10__do_catchEPKS_PPvj
00022f0c T _ZN10__cxxabiv121__vmi_class_type_infoD1Ev
00022f0c T _ZN10__cxxabiv121__vmi_class_type_infoD2Ev
00022f1c T _ZN10__cxxabiv121__vmi_class_type_infoD0Ev
00022f54 T _ZNK10__cxxabiv121__vmi_class_type_info20__do_find_public_srcEiPKvPKNS_17__class_type_infoES2_
0002307c T _ZNK10__cxxabiv121__vmi_class_type_info12__do_dyncastEiNS_17__class_type_info10__sub_kindEPKS1_PKvS4_S6_RNS1_16__dyncast_resultE
00023688 T _ZNK10__cxxabiv121__vmi_class_type_info11__do_upcastEPKNS_17__class_type_infoEPKvRNS1_15__upcast_resultE
000238ec T _ZdlPv
000238f0 T floorf
000239e4 T roundf
00023a68 T __fixunssfsi
00023ac8 T __divsi3
00023b48 T __modsi3
00023bbc T __udivsi3
00023c20 T __umodsi3
00023c7c T __addsf3
000240d8 T __divsf3
000244cc T __gesf2
000244cc T __gtsf2
00024590 T __lesf2
00024590 T __ltsf2
00024650 T __mulsf3
00024a4c T __subsf3
00024ed0 T __fixsfsi
00024f40 T __floatsisf
00025064 T __floatunsisf
0002515c T __clzsi2
000251b0 T __mulsi3
000251d8 T malloc
000251e8 T free
000251f8 T _malloc_r
000259d8 T memset
00025ac8 T _sbrk_r
00025b20 T strcmp
00025bd8 T _malloc_trim_r
00025cf4 T _free_r
00025ff0 T alt_ic_isr_register
00026040 T alt_ic_irq_enable
000260c8 T alt_ic_irq_disable
00026154 T alt_ic_irq_enabled
000261a0 T alt_iic_isr_register
00026288 t alt_load_section
000262f0 T alt_load
00026374 T alt_main
000263f0 T __malloc_lock
00026414 T __malloc_unlock
00026438 T sbrk
000264f0 T usleep
00026520 t alt_dev_reg
00026554 T alt_irq_init
00026590 T alt_sys_init
000265f4 T altera_avalon_jtag_uart_read_fd
00026654 T altera_avalon_jtag_uart_write_fd
000266b4 T altera_avalon_jtag_uart_close_fd
00026704 T altera_avalon_jtag_uart_ioctl_fd
00026758 T altera_avalon_jtag_uart_init
00026818 t altera_avalon_jtag_uart_irq
00026a24 t altera_avalon_jtag_uart_timeout
00026ac4 T altera_avalon_jtag_uart_close
00026b2c T altera_avalon_jtag_uart_ioctl
00026c20 T altera_avalon_jtag_uart_read
00026e40 T altera_avalon_jtag_uart_write
00027068 T alt_avalon_spi_command
00027264 t alt_avalon_timer_sc_irq
000272e0 T alt_avalon_timer_sc_init
00027364 T alt_alarm_start
00027498 T alt_busy_sleep
000275f0 t alt_get_errno
0002762c T close
00027708 T alt_dcache_flush_all
00027728 t alt_dev_null_write
00027754 t alt_get_errno
00027790 T alt_dev_llist_insert
00027838 T _do_ctors
0002789c T _do_dtors
00027900 T alt_icache_flush_all
00027920 T alt_exception_cause_generated_bad_addr
000279b8 t alt_open_fd
00027a8c T alt_io_redirect
00027b08 t alt_get_errno
00027b44 t alt_file_locked
00027c20 T open
00027d80 T alt_release_fd
00027df0 T alt_alarm_stop
00027e94 T alt_tick
00027f9c T altera_nios2_gen2_irq_init
00027fc0 T alt_find_dev
00028050 T alt_find_file
00028158 T alt_get_fd
00028210 T atexit
00028224 T exit
00028258 T memcmp
000282d0 T memcpy
000283d0 T strlen
00028468 T __register_exitproc
000284f8 T __call_exitprocs
00028618 T _exit
00028650 A __CTOR_LIST__
00028658 A __CTOR_END__
00028658 A __DTOR_LIST__
00028660 A __DTOR_END__
00028660 A __flash_rodata_start
00028660 A __ram_rodata_start
00028660 r _ZL17default_registers
00028748 r _ZL17default_registers
00028830 r _ZL22channel_divider_values
00028868 V _ZTV15lmx2694_Handler
00028878 V _ZTI15lmx2694_Handler
00028890 V _ZTS15lmx2694_Handler
000288a4 V _ZTV18PLL_LOCKED_CAPTURE
000288b4 V _ZTS18PLL_LOCKED_CAPTURE
000288cc V _ZTV11SPI_Handler
000288dc V _ZTS11SPI_Handler
000288ec V _ZTSN10__cxxabiv117__class_type_infoE
00028910 V _ZTIN10__cxxabiv117__class_type_infoE
0002891c V _ZTVN10__cxxabiv117__class_type_infoE
00028948 V _ZTSN10__cxxabiv120__si_class_type_infoE
00028970 V _ZTIN10__cxxabiv120__si_class_type_infoE
0002897c V _ZTVN10__cxxabiv120__si_class_type_infoE
000289a8 V _ZTSSt9type_info
000289b8 V _ZTVSt9type_info
000289d8 V _ZTSN10__cxxabiv121__vmi_class_type_infoE
00028a00 V _ZTIN10__cxxabiv121__vmi_class_type_infoE
00028a0c V _ZTVN10__cxxabiv121__vmi_class_type_infoE
00028a38 R __clz_tab
00028b6c G __malloc_av_
00028b6c A __ram_rodata_end
00028b6c A __ram_rwdata_start
00028f74 g impure_data
00029398 g jtag_uart_0
0002a3f8 G alt_dev_null
0002a420 G alt_fd_list
0002a5a0 g _ZL20channel_divider_size
0002a5a4 g _ZL9precision
0002a5a8 V _ZTI18PLL_LOCKED_CAPTURE
0002a5b0 V _ZTI11SPI_Handler
0002a5b8 V _ZTISt9type_info
0002a5c0 G __malloc_sbrk_base
0002a5c4 G __malloc_trim_threshold
0002a5c8 G _global_impure_ptr
0002a5cc G _impure_ptr
0002a5d0 g heap_end
0002a5d4 G alt_fs_list
0002a5dc G alt_dev_list
0002a5e4 G alt_max_fd
0002a5e8 G alt_errno
0002a5ec G alt_alarm_list
0002a5f4 A __flash_rwdata_start
0002a5f4 A __ram_rwdata_end
0002a5f4 A _edata
0002c07c A __bss_start
0002c07c B __malloc_max_total_mem
0002c080 B __malloc_max_sbrked_mem
0002c084 B __malloc_top_pad
0002c088 B errno
0002c08c B alt_irq_active
0002c090 B alt_argc
0002c094 B alt_argv
0002c098 B alt_envp
0002c09c B alt_instruction_exception_handler
0002c0a0 B _alt_tick_rate
0002c0a4 B _alt_nticks
0002c0a8 b _ZL3pll
0002c108 b _ZL9staticSPI
0002c158 b _ZL20local_read_registers
0002c23e b _ZL21local_write_registers
0002c324 B __malloc_current_mallinfo
0002c34c B alt_irq
0002c44c A __alt_heap_start
0002c44c A __alt_stack_base
0002c44c A __bss_end
0002c44c A _end
0002c44c A end
000325a0 A _gp
0003f800 A __alt_data_end
0003f800 A __alt_heap_limit
0003f800 A __alt_stack_pointer
00040000 A __alt_exception_stack_pointer
